cnumpy.core.multiarray
_reconstruct
p1
(cnumpy
ndarray
p2
(I0
tS'b'
tRp3
(I1
(I355
I4
tcnumpy
dtype
p4
(S'S13'
I0
I1
tRp5
(I3
S'|'
NNNI13
I1
I0
tbI00
S'834.005004883814.265258789794.525512695847.164855957830.715087891812.620300293804.395385742840.584960938829.070068359807.68536377\x00847.164855957842.229919434835.650024414807.68536377\x00810.975280762845.519897461832.360046387809.330322266797.815490723850.454833984832.360046387809.330322266814.265258789852.09979248\x00830.715087891814.265258789768.205810547852.09979248\x00829.070068359814.265258789814.265258789847.164855957827.425109863814.265258789830.715087891838.940002441829.070068359814.265258789830.715087891843.874938965834.005004883814.265258789837.29498291\x00842.229919434832.360046387812.620300293784.655639648842.229919434838.940002441814.265258789873.484558105850.454833984834.005004883815.91027832\x00774.785766602843.874938965829.070068359814.265258789830.715087891850.454833984832.360046387815.91027832\x00804.395385742850.454833984830.715087891812.620300293783.010620117843.874938965830.715087891812.620300293886.64440918\x00838.940002441829.070068359814.265258789781.365661621835.650024414827.425109863814.265258789830.715087891843.874938965830.715087891817.555236816796.170471191847.164855957832.360046387817.555236816814.265258789847.164855957827.425109863815.91027832\x00855.389770508847.164855957829.070068359815.91027832\x00794.525512695842.229919434827.425109863817.555236816855.389770508845.519897461827.425109863814.265258789815.91027832\x00850.454833984827.425109863815.91027832\x00802.750427246852.09979248\x00824.135131836815.91027832\x00830.715087891847.164855957829.070068359815.91027832\x00845.519897461850.454833984829.070068359815.91027832\x00801.105407715845.519897461827.425109863815.91027832\x00814.265258789845.519897461827.425109863817.555236816829.070068359847.164855957824.135131836814.265258789817.555236816843.874938965824.135131836817.555236816827.425109863843.874938965825.780151367815.91027832\x00845.519897461847.164855957827.425109863819.200195312753.401000977838.940002441827.425109863817.555236816835.650024414835.650024414829.070068359815.91027832\x00797.815490723838.940002441829.070068359817.555236816799.460449219847.164855957832.360046387817.555236816786.300598145853.744812012827.425109863819.200195312830.715087891848.809875488827.425109863817.555236816796.170471191848.809875488825.780151367817.555236816830.715087891845.519897461829.070068359820.845214844810.975280762850.454833984830.715087891817.555236816761.625915527845.519897461829.070068359819.200195312815.91027832\x00840.584960938825.780151367817.555236816802.750427246840.584960938829.070068359815.91027832\x00807.68536377\x00840.584960938832.360046387819.200195312778.075683594838.940002441830.715087891817.555236816802.750427246838.940002441827.425109863815.91027832\x00814.265258789838.940002441822.49017334\x00815.91027832\x00784.655639648840.584960938825.780151367817.555236816817.555236816843.874938965824.135131836817.555236816764.91583252\x00842.229919434822.49017334\x00817.555236816755.045959473843.874938965820.845214844817.555236816814.265258789834.005004883827.425109863815.91027832\x00886.64440918\x00838.940002441830.715087891815.91027832\x00781.365661621847.164855957810.975280762809.330322266791.235534668838.940002441810.975280762807.68536377\x00815.91027832\x00840.584960938810.975280762810.975280762751.75604248\x00835.650024414810.975280762814.265258789880.064453125827.425109863822.49017334\x00814.265258789802.750427246834.005004883817.555236816814.265258789783.010620117835.650024414819.200195312812.620300293829.070068359840.584960938824.135131836815.91027832\x00822.49017334\x00838.940002441829.070068359814.265258789802.750427246843.874938965827.425109863814.265258789815.91027832\x00840.584960938819.200195312814.265258789769.850830078837.29498291\x00827.425109863815.91027832\x00799.460449219843.874938965825.780151367822.49017334\x00842.229919434838.940002441827.425109863817.555236816796.170471191835.650024414830.715087891815.91027832\x00838.940002441840.584960938827.425109863815.91027832\x00825.780151367842.229919434825.780151367814.265258789815.91027832\x00843.874938965827.425109863814.265258789809.330322266848.809875488825.780151367812.620300293773.14074707\x00850.454833984824.135131836812.620300293838.940002441843.874938965822.49017334\x00810.975280762779.720703125843.874938965822.49017334\x00812.620300293861.969726562835.650024414827.425109863812.620300293806.040344238840.584960938825.780151367812.620300293792.880554199838.940002441830.715087891814.265258789801.105407715840.584960938834.005004883814.265258789840.584960938837.29498291\x00832.360046387814.265258789814.265258789837.29498291\x00832.360046387810.975280762819.200195312843.874938965830.715087891810.975280762801.105407715843.874938965827.425109863812.620300293784.655639648843.874938965827.425109863809.330322266850.454833984843.874938965827.425109863810.975280762786.300598145843.874938965827.425109863812.620300293865.259643555845.519897461827.425109863810.975280762801.105407715840.584960938827.425109863809.330322266806.040344238840.584960938822.49017334\x00809.330322266820.845214844838.940002441820.845214844810.975280762838.940002441835.650024414829.070068359809.330322266796.170471191840.584960938824.135131836810.975280762810.975280762837.29498291\x00825.780151367809.330322266824.135131836838.940002441822.49017334\x00809.330322266815.91027832\x00835.650024414819.200195312809.330322266812.620300293835.650024414820.845214844809.330322266824.135131836834.005004883819.200195312807.68536377\x00759.980895996829.070068359822.49017334\x00807.68536377\x00806.040344238834.005004883824.135131836810.975280762857.034729004835.650024414829.070068359812.620300293796.170471191835.650024414834.005004883814.265258789861.969726562837.29498291\x00837.29498291\x00812.620300293786.300598145838.940002441837.29498291\x00810.975280762810.975280762835.650024414838.940002441812.620300293830.715087891834.005004883834.005004883812.620300293819.200195312835.650024414834.005004883815.91027832\x00799.460449219835.650024414827.425109863812.620300293802.750427246838.940002441822.49017334\x00812.620300293827.425109863843.874938965822.49017334\x00809.330322266827.425109863843.874938965815.91027832\x00809.330322266845.519897461842.229919434820.845214844812.620300293827.425109863840.584960938825.780151367814.265258789756.690979004845.519897461822.49017334\x00814.265258789834.005004883843.874938965827.425109863815.91027832\x00817.555236816847.164855957827.425109863817.555236816781.365661621843.874938965827.425109863815.91027832\x00792.880554199843.874938965834.005004883819.200195312822.49017334\x00843.874938965829.070068359817.555236816843.874938965847.164855957827.425109863814.265258789835.650024414852.09979248\x00830.715087891817.555236816797.815490723852.09979248\x00827.425109863815.91027832\x00801.105407715843.874938965827.425109863814.265258789774.785766602847.164855957824.135131836815.91027832\x00868.549621582843.874938965837.29498291\x00815.91027832\x00799.460449219853.744812012835.650024414817.555236816786.300598145866.904663086815.91027832\x00814.265258789784.655639648847.164855957819.200195312815.91027832\x00796.170471191825.780151367814.265258789815.91027832\x00863.614685059834.005004883822.49017334\x00815.91027832\x00784.655639648835.650024414827.425109863817.555236816804.395385742847.164855957827.425109863820.845214844806.040344238853.744812012827.425109863822.49017334\x00847.164855957845.519897461825.780151367820.845214844820.845214844843.874938965829.070068359819.200195312791.235534668857.034729004820.845214844815.91027832\x00764.91583252\x00847.164855957825.780151367817.555236816820.845214844842.229919434827.425109863819.200195312824.135131836843.874938965825.780151367819.200195312840.584960938842.229919434824.135131836815.91027832\x00774.785766602842.229919434824.135131836814.265258789786.300598145847.164855957825.780151367812.620300293797.815490723847.164855957825.780151367815.91027832\x00840.584960938855.389770508830.715087891814.265258789806.040344238850.454833984832.360046387815.91027832\x00827.425109863845.519897461835.650024414815.91027832\x00776.430725098845.519897461834.005004883819.200195312784.655639648848.809875488829.070068359815.91027832\x00819.200195312845.519897461832.360046387815.91027832\x00814.265258789843.874938965835.650024414814.265258789838.940002441843.874938965835.650024414814.265258789796.170471191843.874938965835.650024414817.555236816779.720703125847.164855957837.29498291\x00817.555236816832.360046387847.164855957834.005004883814.265258789817.555236816840.584960938835.650024414815.91027832\x00822.49017334\x00842.229919434835.650024414815.91027832\x00834.005004883845.519897461835.650024414814.265258789758.3359375\x00\x00843.874938965834.005004883817.555236816837.29498291\x00838.940002441838.940002441817.555236816810.975280762838.940002441840.584960938817.555236816810.975280762845.519897461837.29498291\x00817.555236816837.29498291\x00840.584960938840.584960938817.555236816784.655639648843.874938965837.29498291\x00817.555236816837.29498291\x00845.519897461837.29498291\x00817.555236816784.655639648838.940002441842.229919434815.91027832\x00784.655639648848.809875488840.584960938814.265258789837.29498291\x00843.874938965838.940002441814.265258789810.975280762840.584960938838.940002441814.265258789810.975280762850.454833984837.29498291\x00814.265258789863.614685059857.034729004842.229919434812.620300293810.975280762847.164855957832.360046387814.265258789837.29498291\x00825.780151367834.005004883814.265258789837.29498291\x00832.360046387835.650024414812.620300293784.655639648832.360046387835.650024414810.975280762838.940002441842.229919434835.650024414809.330322266847.164855957845.519897461832.360046387809.330322266837.29498291\x00840.584960938829.070068359809.330322266817.555236816838.940002441834.005004883809.330322266838.940002441838.940002441830.715087891809.330322266787.945556641835.650024414829.070068359812.620300293842.229919434829.070068359827.425109863812.620300293853.744812012835.650024414832.360046387814.265258789847.164855957838.940002441832.360046387812.620300293863.614685059832.360046387832.360046387812.620300293824.135131836835.650024414832.360046387810.975280762822.49017334\x00837.29498291\x00834.005004883812.620300293852.09979248\x00838.940002441835.650024414812.620300293847.164855957835.650024414834.005004883810.975280762825.780151367834.005004883835.650024414812.620300293830.715087891840.584960938830.715087891812.620300293848.809875488840.584960938832.360046387814.265258789848.809875488840.584960938827.425109863812.620300293866.904663086827.425109863822.49017334\x00812.620300293815.91027832\x00837.29498291\x00822.49017334\x00812.620300293804.395385742832.360046387815.91027832\x00812.620300293865.259643555829.070068359819.200195312814.265258789807.68536377\x00829.070068359819.200195312812.620300293824.135131836824.135131836819.200195312812.620300293815.91027832\x00834.005004883822.49017334\x00815.91027832\x00893.224304199832.360046387822.49017334\x00815.91027832\x00838.940002441827.425109863819.200195312814.265258789835.650024414825.780151367819.200195312815.91027832\x00802.750427246835.650024414820.845214844812.620300293801.105407715835.650024414820.845214844814.265258789830.715087891842.229919434822.49017334\x00814.265258789863.614685059843.874938965825.780151367814.265258789834.005004883835.650024414822.49017334\x00817.555236816807.68536377\x00837.29498291\x00825.780151367815.91027832\x00834.005004883834.005004883825.780151367815.91027832\x00834.005004883840.584960938824.135131836812.620300293834.005004883842.229919434830.715087891814.265258789834.005004883842.229919434830.715087891814.265258789807.68536377\x00832.360046387829.070068359812.620300293807.68536377\x00835.650024414829.070068359814.265258789860.324707031842.229919434830.715087891814.265258789860.324707031840.584960938830.715087891810.975280762860.324707031840.584960938830.715087891810.975280762807.68536377\x00843.874938965830.715087891814.265258789860.324707031840.584960938827.425109863815.91027832\x00807.68536377\x00848.809875488829.070068359815.91027832\x00807.68536377\x00848.809875488829.070068359814.265258789834.005004883840.584960938830.715087891815.91027832\x00807.68536377\x00847.164855957834.005004883817.555236816886.64440918\x00847.164855957829.070068359815.91027832\x00812.620300293853.744812012832.360046387817.555236816825.780151367853.744812012822.49017334\x00812.620300293814.265258789843.874938965825.780151367812.620300293799.460449219845.519897461835.650024414812.620300293840.584960938865.259643555832.360046387814.265258789824.135131836870.194580078824.135131836814.265258789837.29498291\x00822.49017334\x00822.49017334\x00814.265258789850.454833984838.940002441822.49017334\x00814.265258789784.655639648820.845214844822.49017334\x00810.975280762819.200195312842.229919434830.715087891814.265258789838.940002441858.679748535822.49017334\x00810.975280762799.460449219843.874938965825.780151367810.975280762810.975280762847.164855957830.715087891812.620300293783.010620117853.744812012829.070068359812.620300293848.809875488860.324707031832.360046387814.265258789830.715087891843.874938965832.360046387812.620300293847.164855957843.874938965840.584960938812.620300293792.880554199847.164855957838.940002441812.620300293758.3359375\x00\x00838.940002441835.650024414814.265258789848.809875488843.874938965837.29498291\x00812.620300293792.880554199843.874938965838.940002441812.620300293794.525512695843.874938965837.29498291\x00812.620300293810.975280762843.874938965835.650024414810.975280762819.200195312837.29498291\x00838.940002441814.265258789830.715087891845.519897461838.940002441815.91027832\x00815.91027832\x00850.454833984842.229919434812.620300293796.170471191845.519897461835.650024414812.620300293815.91027832\x00855.389770508840.584960938810.975280762814.265258789842.229919434838.940002441814.265258789876.774536133847.164855957832.360046387814.265258789801.105407715845.519897461837.29498291\x00814.265258789797.815490723840.584960938837.29498291\x00815.91027832\x00863.614685059848.809875488840.584960938817.555236816801.105407715843.874938965840.584960938817.555236816827.425109863842.229919434840.584960938815.91027832\x00810.975280762840.584960938838.940002441815.91027832\x00774.785766602845.519897461838.940002441815.91027832\x00850.454833984847.164855957842.229919434815.91027832\x00886.64440918\x00848.809875488845.519897461814.265258789827.425109863852.09979248\x00842.229919434815.91027832\x00807.68536377\x00850.454833984850.454833984817.555236816784.655639648852.09979248\x00852.09979248\x00822.49017334\x00820.845214844847.164855957852.09979248\x00819.200195312847.164855957847.164855957855.389770508817.555236816820.845214844842.229919434848.809875488817.555236816876.774536133840.584960938848.809875488817.555236816834.005004883837.29498291\x00838.940002441819.200195312861.969726562840.584960938835.650024414817.555236816817.555236816848.809875488840.584960938819.200195312807.68536377\x00853.744812012845.519897461814.265258789820.845214844857.034729004825.780151367814.265258789852.09979248\x00845.519897461830.715087891814.265258789838.940002441832.360046387820.845214844810.975280762835.650024414825.780151367820.845214844814.265258789817.555236816830.715087891830.715087891814.265258789858.679748535824.135131836824.135131836817.555236816875.129516602832.360046387827.425109863815.91027832\x00838.940002441832.360046387827.425109863814.265258789825.780151367830.715087891830.715087891815.91027832\x00809.330322266837.29498291\x00834.005004883814.265258789829.070068359834.005004883830.715087891814.265258789853.744812012835.650024414825.780151367814.265258789871.839599609842.229919434830.715087891810.975280762806.040344238840.584960938822.49017334\x00812.620300293845.519897461842.229919434827.425109863812.620300293875.129516602835.650024414829.070068359812.620300293812.620300293832.360046387825.780151367814.265258789855.389770508834.005004883829.070068359812.620300293822.49017334\x00837.29498291\x00830.715087891814.265258789819.200195312838.940002441834.005004883815.91027832\x00891.579345703840.584960938832.360046387817.555236816809.330322266842.229919434829.070068359819.200195312875.129516602842.229919434832.360046387819.200195312838.940002441840.584960938830.715087891817.555236816822.49017334\x00845.519897461830.715087891817.555236816848.809875488845.519897461834.005004883817.555236816858.679748535838.940002441830.715087891814.265258789822.49017334\x00845.519897461829.070068359814.265258789868.549621582834.005004883827.425109863812.620300293815.91027832\x00843.874938965827.425109863810.975280762791.235534668843.874938965829.070068359814.265258789875.129516602832.360046387834.005004883814.265258789801.105407715837.29498291\x00832.360046387815.91027832\x00824.135131836838.940002441829.070068359817.555236816814.265258789845.519897461827.425109863814.265258789850.454833984852.09979248\x00827.425109863814.265258789840.584960938848.809875488825.780151367815.91027832\x00866.904663086843.874938965827.425109863814.265258789837.29498291\x00845.519897461832.360046387814.265258789812.620300293845.519897461830.715087891812.620300293850.454833984845.519897461832.360046387817.555236816855.389770508843.874938965834.005004883815.91027832\x00817.555236816843.874938965830.715087891810.975280762835.650024414842.229919434837.29498291\x00815.91027832\x00853.744812012840.584960938835.650024414815.91027832\x00837.29498291\x00845.519897461829.070068359814.265258789858.679748535847.164855957834.005004883817.555236816850.454833984845.519897461829.070068359814.265258789797.815490723847.164855957825.780151367814.265258789866.904663086847.164855957825.780151367810.975280762812.620300293842.229919434824.135131836812.620300293843.874938965840.584960938824.135131836812.620300293792.880554199838.940002441819.200195312812.620300293855.389770508842.229919434824.135131836815.91027832\x00891.579345703845.519897461822.49017334\x00812.620300293847.164855957845.519897461829.070068359814.265258789819.200195312843.874938965838.940002441814.265258789791.235534668858.679748535842.229919434815.91027832\x00824.135131836866.904663086830.715087891815.91027832\x00843.874938965832.360046387824.135131836814.265258789868.549621582838.940002441824.135131836815.91027832\x00852.09979248\x00838.940002441822.49017334\x00812.620300293776.430725098852.09979248\x00832.360046387814.265258789878.419494629857.034729004830.715087891812.620300293848.809875488853.744812012832.360046387814.265258789819.200195312850.454833984830.715087891814.265258789829.070068359852.09979248\x00830.715087891814.265258789809.330322266858.679748535832.360046387815.91027832\x00881.709472656852.09979248\x00829.070068359815.91027832\x00832.360046387852.09979248\x00832.360046387814.265258789834.005004883857.034729004835.650024414814.265258789778.075683594853.744812012830.715087891814.265258789797.815490723848.809875488827.425109863814.265258789845.519897461847.164855957829.070068359814.265258789847.164855957847.164855957830.715087891812.620300293801.105407715855.389770508829.070068359815.91027832\x00806.040344238855.389770508830.715087891814.265258789847.164855957853.744812012'
tb.