cnumpy.core.multiarray
_reconstruct
p1
(cnumpy
ndarray
p2
(I0
tS'b'
tRp3
(I1
(I78
I4
tcnumpy
dtype
p4
(S'S15'
I0
I1
tRp5
(I3
S'|'
NNNI15
I1
I0
tbI00
S'0.05406655371190.04013408347960.146503716707\x000.05865435674790.05339505150910.03945131227370.146360814571\x000.05934587493540.05388183519240.039852052927\x000.143301948905\x000.06227363646030.05627772584560.04267763718960.139095157385\x000.06899312883620.06314366310830.04949693754320.135080337524\x000.08154310286050.07700255513190.06314148008820.133760601282\x000.104142665863\x000.09631378948690.08754634112120.137025550008\x000.141066685319\x000.116693936288\x000.120887041092\x000.145121872425\x000.191878259182\x000.124090135098\x000.148470699787\x000.147572189569\x000.239960953593\x000.117854751647\x000.152566283941\x000.142914071679\x000.26122200489\x00\x000.108820170164\x000.147369265556\x000.132623359561\x000.265362799168\x000.1002542153\x00\x00\x000.142357781529\x000.122235380113\x000.264724701643\x000.093607775867\x000.138325259089\x000.115498647094\x000.262274235487\x000.09026365727190.136407762766\x000.114817753434\x000.255567640066\x000.08662587404250.139197319746\x000.119881987572\x000.239558532834\x000.08490177243950.145344212651\x000.125370681286\x000.237164542079\x000.08377278596160.152404859662\x000.12944060564\x00\x000.234292268753\x000.08270718157290.157094955444\x000.128153800964\x000.22965246439\x00\x000.081446416676\x000.156088322401\x000.121659502387\x000.22190669179\x00\x000.08139789104460.149422764778\x000.11296197027\x00\x000.210730791092\x000.086271494627\x000.140776976943\x000.10545026511\x00\x000.198088526726\x000.09609556198120.134093120694\x000.100996285677\x000.187425047159\x000.106318093836\x000.129972442985\x000.09948240220550.183635234833\x000.113346040249\x000.128382742405\x000.100257083774\x000.185756534338\x000.118979051709\x000.126993715763\x000.103429324925\x000.191577598453\x000.126002162695\x000.125276774168\x000.108211934566\x000.194166988134\x000.126002162695\x000.121692635119\x000.113600127399\x000.194166988134\x000.126002162695\x000.117046296597\x000.117915019393\x000.194166988134\x000.126002162695\x000.11252181977\x00\x000.120472937822\x000.194166988134\x000.126002162695\x000.108159743249\x000.121325433254\x000.194166988134\x000.126002162695\x000.103838689625\x000.121398791671\x000.194166988134\x000.229169622064\x000.09916734695430.122716471553\x000.214465156198\x000.246149465442\x000.09416387230160.127420261502\x000.21238809824\x00\x000.249730929732\x000.09000206738710.137104153633\x000.21071960032\x00\x000.242767557502\x000.08826159685850.152030318975\x000.210237413645\x000.231776311994\x000.088609136641\x000.17002658546\x00\x000.210258081555\x000.222007527947\x000.08950158953670.186632379889\x000.209218665957\x000.215184733272\x000.08973946422340.198846906424\x000.206816613674\x000.209639906883\x000.08934929966930.205736473203\x000.204773232341\x000.205343350768\x000.089136838913\x000.207261100411\x000.205303311348\x000.200172096491\x000.090420588851\x000.207519412041\x000.205854490399\x000.194011881948\x000.09361968189480.209644168615\x000.205047339201\x000.187259301543\x000.09822769463060.216714411974\x000.203521549702\x000.186348244548\x000.102847717702\x000.227904453874\x000.203581631184\x000.18273280561\x00\x000.107279792428\x000.242011100054\x000.204737633467\x000.175573527813\x000.111748598516\x000.256475061178\x000.205264016986\x000.165747046471\x000.114555336535\x000.268602758646\x000.204849272966\x000.156380727887\x000.116843633354\x000.27536213398\x00\x000.20434448123\x00\x000.145091488957\x000.116168156266\x000.278559118509\x000.202680230141\x000.132493853569\x000.112828552723\x000.282808750868\x000.197608202696\x000.125154316425\x000.107660725713\x000.288771182299\x000.187920600176\x000.12233529985\x00\x000.103415317833\x000.29794383049\x00\x000.178035840392\x000.122036546469\x000.101720422506\x000.309611022472\x000.1714001894\x00\x00\x000.121780887246\x000.102837689221\x000.320366919041\x000.167316034436\x000.119626097381\x000.105988316238\x000.325675100088\x000.1686347574\x00\x00\x000.120472453535\x000.109850607812\x000.326336860657\x000.172835931182\x000.124473117292\x000.110405027866\x000.320965826511\x000.176870658994\x000.131899371743\x000.102873675525\x000.311340004206\x000.179033115506\x000.138739988208\x000.08825138211250.300555497408\x000.178884148598\x000.141027748585\x000.07439704984430.291936248541\x000.176864430308\x000.138499766588\x000.06471604108810.286847263575\x000.175293922424\x000.134113729\x00\x00\x00\x000.06035391613840.28448420763\x00\x000.175689712167\x000.130448713899\x000.05895868316290.28736230731\x00\x000.17515553534\x00\x000.12913890183\x00\x000.05960639938710.289980530739\x000.173981651664\x000.127542346716\x000.06145159527660.289878964424\x000.164793521166\x000.129204392433\x000.06338801234960.285773158073\x000.168971657753\x000.133365035057\x000.06384684890510.278778195381\x000.174142748117\x000.140284821391\x000.06009364128110.270971208811\x000.179137647152\x000.148220390081\x000.05051723495130.262857228518\x000.18324829638\x00\x000.153270572424\x000.03964781016110.258796989918\x000.183986574411\x000.150751501322\x000.03140638768670.259585618973\x000.179974213243\x000.145668953657\x000.02629502676430.26291179657\x00\x000.172100707889\x000.138909906149\x000.02350649796430.268499851227\x000.162995174527\x000.13206538558\x00\x000.02225173451010.268499851227\x000.154917091131\x000.126800626516\x000.02187114953990.268499851227\x000.148815050721\x000.124449931085\x000.02181441523130.268499851227\x000.144551873207\x000.124449931085\x000.02183137275280.268499851227\x000.144551873207\x000.124449931085\x000.021737774834\x000.268499851227\x000.144551873207\x00'
tb.