cnumpy.core.multiarray
_reconstruct
p1
(cnumpy
ndarray
p2
(I0
tS'b'
tRp3
(I1
(I83
I4
tcnumpy
dtype
p4
(S'S15'
I0
I1
tRp5
(I3
S'|'
NNNI15
I1
I0
tbI00
S'0.08431967347860.010113327764\x000.01590224541720.05038602650170.07906179875140.012851218693\x000.01990812644360.05051463097330.073027856648\x000.01903512515130.030079331249\x000.05856560170650.08715500682590.02830504439770.04402935877440.06362552940850.112544573843\x000.04146401211620.05980218946930.07194054126740.132135137916\x000.05833264812830.07884428650140.08436968922620.157047078013\x000.07972105592490.09717343002560.100775308907\x000.174039185047\x000.09704346954820.106173157692\x000.115059830248\x000.175925418735\x000.09739092737440.102656237781\x000.122025363147\x000.176676914096\x000.08860232681040.09429297596220.122720360756\x000.170845508575\x000.07695942372080.08621971309190.121643424034\x000.163342505693\x000.07209353894\x00\x000.07801730185750.12093386054\x00\x000.159996390343\x000.07029820233580.074247635901\x000.121557705104\x000.15782161057\x00\x000.06912392377850.07272283732890.123649463058\x000.156995907426\x000.068745650351\x000.07175393402580.12670224905\x00\x000.15757034719\x00\x000.06904325634240.07303004711870.128974497318\x000.158782616258\x000.07224415242670.07283543795350.128566205502\x000.161274880171\x000.07769721001390.07286772876980.128172665834\x000.167320370674\x000.08357185125350.07051795721050.120228104293\x000.163180187345\x000.09209353476760.06315267086030.113992959261\x000.138314425945\x000.08655707538130.05658614262940.115351624787\x000.115458972752\x000.08085432648660.05783960595730.115030378103\x000.121497713029\x000.08001096546650.064372651279\x000.133690223098\x000.140947878361\x000.08755063265560.07798098027710.170639157295\x000.229964151978\x000.111612908542\x000.109838485718\x000.248501673341\x000.325100362301\x000.135779008269\x000.15270884335\x00\x000.349359244108\x000.3803345263\x00\x00\x000.148754283786\x000.181882545352\x000.407366871834\x000.387069165707\x000.154547840357\x000.195989042521\x000.422395467758\x000.376622349024\x000.156102076173\x000.20022945106\x00\x000.414002925158\x000.354755580425\x000.159562304616\x000.201223090291\x000.392113655806\x000.335631668568\x000.16224513948\x00\x000.200719237328\x000.374322772026\x000.325103312731\x000.163591384888\x000.203324869275\x000.366411656141\x000.322392016649\x000.163555249572\x000.209827840328\x000.367976903915\x000.326020866632\x000.162701591849\x000.219934016466\x000.377067387104\x000.333308815956\x000.166173741221\x000.233533501625\x000.389941364527\x000.340693622828\x000.170982941985\x000.242310449481\x000.40189063549\x00\x000.346156030893\x000.174859046936\x000.245115026832\x000.410585433245\x000.350534200668\x000.177318245173\x000.245156809688\x000.417507618666\x000.355833232403\x000.178065672517\x000.246750041842\x000.425514250994\x000.364729553461\x000.181924015284\x000.251817643642\x000.437635153532\x000.380310505629\x000.185713753104\x000.257945299149\x000.457095623016\x000.403733730316\x000.184795886278\x000.251202046871\x000.48157864809\x00\x000.419268459082\x000.173320844769\x000.231019243598\x000.498562514782\x000.418809592724\x000.169937983155\x000.20702342689\x00\x000.503031432629\x000.39465367794\x00\x000.181965649128\x000.185896769166\x000.486703842878\x000.339509487152\x000.190024092793\x000.153545558453\x000.435634762049\x000.243927136064\x000.192776277661\x000.104530543089\x000.311155647039\x000.231372669339\x000.214235752821\x000.09144939482210.220176875591\x000.236110851169\x000.251994401217\x000.108442649245\x000.211891546845\x000.225168421865\x000.298317074776\x000.124026313424\x000.210573211312\x000.215763062239\x000.309466391802\x000.120877593756\x000.216481715441\x000.219918996096\x000.287890553474\x000.105195790529\x000.22366733849\x00\x000.222441747785\x000.253681659698\x000.09455861151220.228560134768\x000.219747066498\x000.233835503459\x000.08921129256490.224078729749\x000.210475727916\x000.221768796444\x000.08678119629620.208897531033\x000.196371674538\x000.219283908606\x000.085192784667\x000.186891496181\x000.172932580113\x000.219612240791\x000.08551273494960.168606594205\x000.154326453805\x000.216442361474\x000.08916371315720.163098469377\x000.136302143335\x000.20035725832\x00\x000.09235184639690.139101728797\x000.127183973789\x000.182943239808\x000.091741129756\x000.118893809617\x000.136913269758\x000.167331546545\x000.08841950446370.117410123348\x000.218196451664\x000.157549038529\x000.08619645982980.158031195402\x000.214582577348\x000.153379261494\x000.08737789839510.166740313172\x000.207776546478\x000.153707772493\x000.09276309609410.196626991034\x000.265649467707\x000.158140048385\x000.103315763175\x000.248249605298\x000.355835020542\x000.167493119836\x000.119547754526\x000.305559754372\x000.409807145596\x000.181124016643\x000.137561351061\x000.336196839809\x000.419428020716\x000.188712850213\x000.156013384461\x000.336015254259\x000.39302071929\x00\x000.181445643306\x000.172524511814\x000.308336108923\x000.357880800962\x000.164469838142\x000.184007868171\x000.282117158175\x000.339331805706\x000.150647580624\x000.193898111582\x000.267670333385\x000.334725528955\x000.143599554896\x000.206716552377\x000.265725135803\x000.327539652586\x000.141457751393\x000.226944476366\x000.261227309704\x000.325281053782\x000.1450099051\x00\x00\x000.252208054066\x000.259687036276\x000.32386508584\x00\x000.138879612088\x000.262007176876\x000.25668206811\x00\x000.32092615962\x00\x000.167389944196\x000.31468051672\x00\x000.249590277672\x000.31689208746\x00\x000.218383029103\x000.325171500444\x000.237867698073\x000.312811493874\x000.227663129568\x000.282923400402\x000.225408017635\x000.308065026999\x000.199683576822\x000.230893298984\x000.215420126915\x000.304388970137\x000.176311776042\x000.194580063224\x000.204258546233\x000.30670362711\x00\x000.163602590561\x000.173400640488\x000.199736639857\x000.318782538176\x000.157691538334\x000.162518367171\x000.203867509961\x000.343060672283\x000.155924320221\x000.157985046506\x000.216682463884\x00'
tb.