cnumpy.core.multiarray
_reconstruct
p1
(cnumpy
ndarray
p2
(I0
tS'b'
tRp3
(I1
(I107
I4
tcnumpy
dtype
p4
(S'S15'
I0
I1
tRp5
(I3
S'|'
NNNI15
I1
I0
tbI00
S'0.170396134257\x000.116312801838\x000.183160468936\x000.3304656744\x00\x00\x000.165732398629\x000.100897751749\x000.176732435822\x000.330553174019\x000.164993420243\x000.08965886384250.168977931142\x000.329325199127\x000.169831365347\x000.08336000144480.162108123302\x000.328078299761\x000.181204542518\x000.08095892518760.157806068659\x000.325694859028\x000.192741453648\x000.08108074218030.156967744231\x000.320830732584\x000.204642862082\x000.08239216357470.157782182097\x000.31537130475\x00\x000.210807681084\x000.08477690815930.159778133035\x000.312528580427\x000.213670268655\x000.08782736957070.16162134707\x00\x000.312377363443\x000.213668107986\x000.091362260282\x000.162524491549\x000.310136258602\x000.210048347712\x000.09458199888470.161257356405\x000.302508354187\x000.207200407982\x000.09722716361280.159145057201\x000.291436761618\x000.212002679706\x000.09951933473350.157550767064\x000.28009262681\x00\x000.222010180354\x000.102472946048\x000.155780389905\x000.26829007268\x00\x000.236044600606\x000.108676545322\x000.14939430356\x00\x000.261773139238\x000.249462082982\x000.121531948447\x000.141903340816\x000.262113839388\x000.257854878902\x000.144512921572\x000.135999888182\x000.26338994503\x00\x000.259356051683\x000.180504828691\x000.131951376796\x000.263290405273\x000.252426683903\x000.224359676242\x000.129041865468\x000.259669840336\x000.238598704338\x000.261934489012\x000.129725366831\x000.252849847078\x000.223720297217\x000.282402902842\x000.133887454867\x000.241925090551\x000.210335150361\x000.2888058424\x00\x00\x000.139792397618\x000.230293437839\x000.201464682817\x000.283213615417\x000.144529730082\x000.221071153879\x000.198319301009\x000.276071876287\x000.146148681641\x000.21916270256\x00\x000.201087042689\x000.273025125265\x000.146065637469\x000.222823277116\x000.203587219119\x000.272368580103\x000.144975617528\x000.230544000864\x000.201073393226\x000.275953173637\x000.142944216728\x000.236458078027\x000.196038678288\x000.274121999741\x000.14076679945\x00\x000.241770207882\x000.189927235246\x000.260712355375\x000.139617413282\x000.241910859942\x000.187399581075\x000.241714179516\x000.140587553382\x000.240682482719\x000.18819437921\x00\x000.222649201751\x000.144360661507\x000.238974943757\x000.191358536482\x000.207100450993\x000.151990070939\x000.237206742167\x000.195593312383\x000.198284834623\x000.167449697852\x000.234466850758\x000.199241682887\x000.191847085953\x000.190182760358\x000.229534655809\x000.203899383545\x000.183253705502\x000.211695104837\x000.223757937551\x000.214216902852\x000.175037041306\x000.220271080732\x000.220291092992\x000.229007303715\x000.170535907149\x000.2227255404\x00\x00\x000.2196482867\x00\x00\x000.241297498345\x000.169978812337\x000.22360317409\x00\x000.225727275014\x000.249371245503\x000.173415437341\x000.22682723403\x00\x000.238880202174\x000.254711955786\x000.180726870894\x000.232372671366\x000.256516605616\x000.259668707848\x000.19152918458\x00\x000.239381849766\x000.267910957336\x000.264767378569\x000.200586989522\x000.248940289021\x000.275901287794\x000.2638707757\x00\x00\x000.205234244466\x000.257029503584\x000.279006689787\x000.258931517601\x000.210302531719\x000.258005142212\x000.272558927536\x000.254112452269\x000.211394459009\x000.251135706902\x000.261108070612\x000.248323723674\x000.211512342095\x000.242872714996\x000.252146571875\x000.240841269493\x000.21060153842\x00\x000.238303482533\x000.24542465806\x00\x000.234234765172\x000.20865419507\x00\x000.237470954657\x000.237755700946\x000.230452045798\x000.207450449467\x000.238372817636\x000.22807636857\x00\x000.227347627282\x000.205567985773\x000.237120106816\x000.217015400529\x000.223370954394\x000.205818086863\x000.231975018978\x000.206826835871\x000.218439742923\x000.204879298806\x000.220362499356\x000.199151128531\x000.211189076304\x000.186014696956\x000.203711032867\x000.19351054728\x00\x000.199245661497\x000.145833939314\x000.186137080193\x000.186165988445\x000.184969067574\x000.110183477402\x000.172463580966\x000.178630292416\x000.17319996655\x00\x000.08663147687910.162284493446\x000.173479303718\x000.168301030993\x000.07246278971430.152809336782\x000.17026026547\x00\x000.169439435005\x000.063618093729\x000.144982129335\x000.167209804058\x000.17183457315\x00\x000.05884507298470.140409573913\x000.164530202746\x000.175082996488\x000.05674290657040.139323860407\x000.162067770958\x000.180693686008\x000.05622356757520.140009388328\x000.162055253983\x000.187180146575\x000.05633275583390.140677019954\x000.163330674171\x000.193124607205\x000.05631688609720.139603599906\x000.165246009827\x000.197285190225\x000.05567394569520.137810528278\x000.167744338512\x000.199402019382\x000.05426178127530.134955406189\x000.171817973256\x000.200380891562\x000.05223278701310.131927385926\x000.174861609936\x000.19997638464\x00\x000.05019109323620.128913238645\x000.176743403077\x000.198260456324\x000.04865686595440.126220092177\x000.178020626307\x000.193721294403\x000.048316065222\x000.123014442623\x000.178504869342\x000.184627503157\x000.04993268102410.12234647572\x00\x000.178678885102\x000.172482401133\x000.05494525283580.123102366924\x000.167042523623\x000.151072457433\x000.065336316824\x000.130663454533\x000.152938187122\x000.153002843261\x000.07520019263030.136032447219\x000.154675096273\x000.15488563478\x00\x000.079121991992\x000.128803640604\x000.15815512836\x00\x000.153908938169\x000.07414749264720.107723101974\x000.159153476357\x000.149911463261\x000.06125611066820.08382537961010.157379820943\x000.142172977328\x000.04844101890920.06577636301520.152950793505\x000.131729245186\x000.03952410072090.05472350493070.147714212537\x000.120932303369\x000.03438041731720.049070674926\x000.143909573555\x000.11209577322\x00\x000.03196415677670.04714505746960.142397299409\x000.10596024245\x00\x000.03126730024810.04715998843310.142484366894\x000.102181687951\x000.03156162053350.04758302867410.142243653536\x000.10121113807\x00\x000.03239228948950.04776834324\x00\x000.140258714557\x000.122830748558\x000.033388376236\x000.04748376831410.13411924243\x00\x000.139503449202\x000.03422980755570.04699616134170.133734747767\x000.14434286952\x00\x000.03475991263990.04667682200670.134315490723\x000.214253798127\x000.03488513082270.04697020724420.167525321245\x000.204273179173\x000.03492568805810.04807999357580.167064398527\x000.190951287746\x000.03569162637\x00\x000.04998986050490.164677366614\x000.179846584797\x000.03879435360430.05357518419620.159349098802\x000.17056286335\x00\x000.04575667157770.06040936335920.15232732892\x00\x000.162395194173\x000.05863653123380.07263314723970.144916594028\x000.155650377274\x000.07985897362230.09283061325550.138678565621\x000.150902748108\x000.112489499152\x000.121864296496\x000.133660808206\x000.148528277874\x000.147911041975\x000.150792852044\x000.128833517432\x000.148315548897\x000.170175462961\x000.166893586516\x000.125252366066\x000.149534076452\x000.176083296537\x000.17169675231\x00\x000.12435118109\x00\x000.150951340795\x000.170614734292\x000.171608924866\x000.125563651323\x000.149867802858\x000.16406968236\x00\x000.173118561506\x000.132610723376\x000.149576187134\x000.159229397774\x000.174444362521\x000.130465567112\x000.143868267536\x000.15712878108\x00\x000.174655482173\x000.126071363688\x000.136904001236\x000.15805400908\x00\x000.17142085731\x00\x000.121066682041\x000.126031771302\x000.161096572876\x000.16109149158\x00\x000.114071153104\x000.11628177762\x00\x000.164387717843\x000.144347041845\x000.102843999863\x000.116676822305\x000.161437019706\x000.123374685645\x000.103314884007\x000.118388183415\x000.135966166854\x000.104058273137\x000.104616813362\x000.12048381567\x00\x000.09780229628090.08987477421760.106885179877\x00'
tb.