cnumpy.core.multiarray
_reconstruct
p1
(cnumpy
ndarray
p2
(I0
tS'b'
tRp3
(I1
(I80
I4
tcnumpy
dtype
p4
(S'S14'
I0
I1
tRp5
(I3
S'|'
NNNI14
I1
I0
tbI00
S'0.3098204135890.4917580783370.4494429230690.2661842107770.3117805719380.4836910665040.4349442422390.2664568424220.3120789229870.4700952172280.4179103374480.2678261399270.3087361752990.4484111070630.3981670141220.2686887085440.3002938032150.4143769741060.3750379085540.2696968913080.2901589274410.3777907192710.3491102457050.2729468047620.2807849049570.3503990471360.3190779984\x00\x000.2857794761660.2757980227470.3189721703530.2922312021260.30235388875\x000.26898252964\x000.2958046495910.2716182470320.3160129487510.2574817538260.28833797574\x000.2631661891940.3235639333720.2539263665680.30402430892\x000.2673962414260.3321434259410.2779388725760.3575558066370.2762689292430.3510957658290.36723613739\x000.4526677429680.3097129762170.3721253573890.3713115453720.5506045818330.3695222139360.3831492066380.3770120739940.6150042414670.4517801702020.3927814960480.3840952217580.6559107303620.5252137780190.4001391232010.3961854875090.6808565855030.5833126306530.4057176411150.4152309000490.6952517032620.6247925162320.4117038249970.4355452954770.70668143034\x000.6515395045280.4212977290150.4542197287080.7103816866870.6669052243230.4330906569960.4801620244980.70052665472\x000.67227679491\x000.4437473714350.5146019458770.6549014449120.6625435948370.4493273794650.5596170425420.5859474539760.6297185420990.4611504971980.61236923933\x000.5246441960330.5813100934030.4836748838420.61236923933\x000.4892311990260.5450303554530.4836748838420.61236923933\x000.4782240092750.5311393737790.4836748838420.61236923933\x000.4823164343830.5334373116490.4836748838420.61236923933\x000.4823674559590.5357090234760.4836748838420.61236923933\x000.4775879681110.5345554947850.4836748838420.4700109958650.4685322940350.5298013091090.4748587906360.4474071860310.4573645293710.5215750336650.4499218761920.4299072027210.4458400607110.5100696682930.4304772317410.4149296879770.4355756640430.4970916211610.4144258797170.4012296795850.4274424016480.4853634834290.40087017417\x000.3873654901980.4233384728430.4759884476660.3885824978350.3732275962830.4230061173440.4690258502960.3771267831330.3613439500330.4238591492180.4620449244980.3675960600380.3520127534870.4217608869080.4495034515860.3611779809\x00\x000.3456549644470.4113319218160.4254936873910.3579164743420.3412601053710.3899077177050.3861766755580.3562679588790.3370430469510.3634597957130.3333714306350.3540174365040.3029091060160.3639570772650.30165246129\x000.3170189857480.2927159368990.4108907282350.31913870573\x000.3067137897010.3117114603520.5172905921940.40865162015\x000.3292863070960.3442136049270.6345201134680.5158294439320.3696260154250.3752824068070.6434435248370.5478457808490.4238925576210.3886085450650.6336870193480.5481843948360.4359009563920.3772774934770.62729871273\x000.5419745445250.4377073943610.3626266717910.6246719360350.53816819191\x000.4311444163320.3524677455430.62564355135\x000.5395126342770.4274738729\x00\x000.3481876850130.6304537057880.5470652580260.4292677342890.35342207551\x000.6371261477470.5462981462480.4386182725430.3626624047760.6386575698850.5412357449530.4479445815090.3670874834060.6333879828450.5300427675250.4610620439050.3656797409060.6084131002430.5108367204670.4698090553280.3594781458380.5616629719730.4873441457750.4431279301640.3457227349280.5054208636280.4545636773110.4047625958920.3263260126110.4596951007840.4410531222820.3642644584180.3036768436430.3868687152860.3914484381680.3202879428860.2781276702880.3067529797550.3216502368450.2802865505220.2483496814970.2429755181070.2666010558610.2479277700190.22852344811\x000.2038445174690.2334422320130.2235015928750.2189424782990.1831116080280.2156024277210.2089373916390.2175626456740.1704876273870.2055240720510.2028025239710.2248363345860.1631946414710.1998691409830.2019430547950.23518076539\x000.1610268503430.1987125575540.2050940692420.2441506236790.1618667542930.2004857659340.2069080770020.2471096366640.1634793430570.2033986151220.2022267133\x00\x000.2415350228550.1643023192880.2063154727220.1890963017940.23446983099\x000.1667851507660.2146184295420.1780829727650.2464405596260.1901719719170.2431111782790.2057753354310.3231780827050.26861011982\x000.3222578167920.3297401964660.3261852860450.2650072574620.4454121887680.3415998220440.3317077755930.2598943114280.4510993063450.3602469861510.3432338237760.2583938837050.4609608948230.3813253939150.3596749603750.2663380503650.4777666032310.4073939323430.3848224878310.28722307086\x000.5035945773120.44290009141\x000.4155830144880.3252831101420.5400171279910.4821801781650.4440483450890.3766927123070.5758996605870.5288885831830.4717815220360.4266187548640.6068947315220.570035219193'
tb.