cnumpy.core.multiarray
_reconstruct
p1
(cnumpy
ndarray
p2
(I0
tS'b'
tRp3
(I1
(I52
I4
tcnumpy
dtype
p4
(S'S15'
I0
I1
tRp5
(I3
S'|'
NNNI15
I1
I0
tbI00
S'0.117799811065\x000.04175372794270.08430393785240.108366146684\x000.112090580165\x000.04059043526650.07851208001380.102218188345\x000.104231007397\x000.04096377640960.07546386867760.095868870616\x000.09388323128220.042513422668\x000.07576867192980.08848629891870.08244576305150.04611212015150.07949158549310.08074432611470.08013016730550.048484928906\x000.08221055567260.07326322793960.08410978317260.047114521265\x000.08491154015060.06735925376420.277646899223\x000.05090866237880.09352575242520.134590134025\x000.259805947542\x000.05545185506340.102189123631\x000.127281636\x00\x00\x00\x000.25821891427\x00\x000.05794451385740.10689651221\x00\x000.125308200717\x000.263193070889\x000.05902728438380.108638823032\x000.126808434725\x000.299068301916\x000.061146043241\x000.110597468913\x000.134854257107\x000.329579204321\x000.06617609411480.111207999289\x000.165842801332\x000.355944484472\x000.07710270583630.117075547576\x000.311353564262\x000.377883821726\x000.09705609083180.132842868567\x000.335240960121\x000.395555645227\x000.127360597253\x000.161745712161\x000.355273038149\x000.40976062417\x00\x000.159205898643\x000.201470255852\x000.371602267027\x000.421828329563\x000.173443242908\x000.22419808805\x00\x000.384439915419\x000.432687371969\x000.168952390552\x000.235812962055\x000.394016295671\x000.442617595196\x000.152885198593\x000.233191043139\x000.400729209185\x000.451166421175\x000.121901363134\x000.227617457509\x000.405472785234\x000.457933187485\x000.101135805249\x000.239161342382\x000.409266501665\x000.409698396921\x000.09490136057140.254544377327\x000.364129811525\x000.336452960968\x000.09591862559320.268791586161\x000.265949875116\x000.274689674377\x000.09746830910440.287791281939\x000.184165611863\x000.227241948247\x000.110755413771\x000.288632184267\x000.14701141417\x00\x000.215424746275\x000.130064308643\x000.263407170773\x000.131804198027\x000.205197408795\x000.132388949394\x000.228460758924\x000.123945251107\x000.19908772409\x00\x000.134902194142\x000.205765783787\x000.118434995413\x000.196612149477\x000.139301687479\x000.198112905025\x000.114943854511\x000.212664812803\x000.152903497219\x000.218738496304\x000.111524164677\x000.232397466898\x000.169691249728\x000.242365062237\x000.11142256856\x00\x000.237259164453\x000.198331728578\x000.246325224638\x000.116913951933\x000.223025381565\x000.23048402369\x00\x000.23658592999\x00\x000.120877861977\x000.199571296573\x000.258320122957\x000.224506735802\x000.118277050555\x000.189144417644\x000.283238887787\x000.217599034309\x000.114543527365\x000.187368363142\x000.299185752869\x000.214418753982\x000.11288972199\x00\x000.191026970744\x000.305213183165\x000.213588342071\x000.120892897248\x000.195978492498\x000.306101322174\x000.213053315878\x000.128562316298\x000.200693741441\x000.307223320007\x000.211255162954\x000.130922630429\x000.203216210008\x000.317093849182\x000.211414292455\x000.145906373858\x000.204625755548\x000.321659684181\x000.211453095078\x000.152684435248\x000.209798082709\x000.310703366995\x000.209187597036\x000.159516587853\x000.223618879914\x000.306544810534\x000.207388922572\x000.163567274809\x000.235072299838\x000.318903774023\x000.213958904147\x000.169342845678\x000.24290214479\x00\x000.332261353731\x000.235735148191\x000.172219797969\x000.254714399576\x000.349240034819\x000.263186961412\x000.175653904676\x000.263473540545\x000.363581478596\x000.288723289967\x000.17962923646\x00\x000.276006132364\x000.365152955055\x000.314839959145\x000.182461351156\x000.283058911562\x000.341323167086\x000.329397976398\x000.189085334539\x000.272172868252\x000.309961527586\x000.331398069859\x000.204466357827\x000.266110986471\x000.271799325943\x000.3391033113\x00\x00\x000.220473051071\x00'
tb.