cnumpy.core.multiarray
_reconstruct
p1
(cnumpy
ndarray
p2
(I0
tS'b'
tRp3
(I1
(I77
I4
tcnumpy
dtype
p4
(S'S15'
I0
I1
tRp5
(I3
S'|'
NNNI15
I1
I0
tbI00
S'0.1070176512\x00\x00\x000.209140121937\x000.142847970128\x000.122722961009\x000.1070176512\x00\x00\x000.207315698266\x000.136333748698\x000.122722961009\x000.1070176512\x00\x00\x000.20013654232\x00\x000.12808598578\x00\x000.122722961009\x000.1070176512\x00\x00\x000.187946677208\x000.1177072227\x00\x00\x000.122722961009\x000.1070176512\x00\x00\x000.177987426519\x000.110067792237\x000.122722961009\x000.1070176512\x00\x00\x000.174381703138\x000.106726482511\x000.122722961009\x000.1070176512\x00\x00\x000.177822455764\x000.106945984066\x000.122722961009\x000.1070176512\x00\x00\x000.185787171125\x000.109910666943\x000.122722961009\x000.1070176512\x00\x00\x000.196401685476\x000.113553896546\x000.122722961009\x000.1070176512\x00\x00\x000.207692325115\x000.118018604815\x000.122722961009\x000.1070176512\x00\x00\x000.217583745718\x000.121605955064\x000.122722961009\x000.1070176512\x00\x00\x000.226938948035\x000.125511422753\x000.122722961009\x000.1070176512\x00\x00\x000.239154428244\x000.12778814137\x00\x000.122722961009\x000.1070176512\x00\x00\x000.255516380072\x000.127943202853\x000.122722961009\x000.1070176512\x00\x00\x000.273104935884\x000.126976579428\x000.122722961009\x000.1070176512\x00\x00\x000.286607593298\x000.126376196742\x000.122722961009\x000.1070176512\x00\x00\x000.29167124629\x00\x000.126035913825\x000.122722961009\x000.1070176512\x00\x00\x000.295674234629\x000.125403359532\x000.122722961009\x000.1070176512\x00\x00\x000.305489093065\x000.121854700148\x000.122722961009\x000.1070176512\x00\x00\x000.322939276695\x000.117592059076\x000.122722961009\x000.1070176512\x00\x00\x000.334562778473\x000.112836673856\x000.122722961009\x000.1070176512\x00\x00\x000.338457524776\x000.10747346282\x00\x000.122722961009\x000.1070176512\x00\x00\x000.333991348743\x000.101750403643\x000.122722961009\x000.1070176512\x00\x00\x000.326392889023\x000.095006108284\x000.122722961009\x000.1070176512\x00\x00\x000.319589525461\x000.08590805530550.122722961009\x000.1070176512\x00\x00\x000.314554154873\x000.074552834034\x000.122722961009\x000.1070176512\x00\x00\x000.311448216438\x000.06403308361770.122722961009\x000.1070176512\x00\x00\x000.311959862709\x000.05758912861350.122722961009\x000.1070176512\x00\x00\x000.317039757967\x000.05840340629220.122722961009\x000.1070176512\x00\x00\x000.323913067579\x000.06584195792680.122722961009\x000.1070176512\x00\x00\x000.329246610403\x000.07703547924760.122722961009\x000.1070176512\x00\x00\x000.32951554656\x00\x000.08985085785390.122722961009\x000.1070176512\x00\x00\x000.322779595852\x000.103802725673\x000.122722961009\x000.1070176512\x00\x00\x000.310236334801\x000.119162581861\x000.122722961009\x000.1070176512\x00\x00\x000.297760277987\x000.136289447546\x000.122722961009\x000.1070176512\x00\x00\x000.288151741028\x000.155026167631\x000.122722961009\x000.1070176512\x00\x00\x000.286266028881\x000.170213520527\x000.122722961009\x000.1070176512\x00\x00\x000.290833115578\x000.178481698036\x000.122722961009\x000.1070176512\x00\x00\x000.296867519617\x000.183851286769\x000.122722961009\x000.1070176512\x00\x00\x000.301135718822\x000.189085781574\x000.122722961009\x000.1070176512\x00\x00\x000.305186599493\x000.195059582591\x000.122722961009\x000.08627059310670.307783216238\x000.199898809195\x000.06333532184360.08627059310670.303427159786\x000.20128044486\x00\x000.06333532184360.08627059310670.285965144634\x000.197715386748\x000.06333532184360.08627059310670.256919145584\x000.194424390793\x000.06333532184360.08627059310670.223715350032\x000.192600637674\x000.06333532184360.08627059310670.198715016246\x000.186048790812\x000.06333532184360.08627059310670.194434449077\x000.166673347354\x000.06333532184360.08627059310670.202257841825\x000.147625505924\x000.06333532184360.08627059310670.208098873496\x000.132943376899\x000.06333532184360.08627059310670.212208002806\x000.12511909008\x00\x000.06333532184360.08627059310670.21313303709\x00\x000.121200479567\x000.06333532184360.08627059310670.214325278997\x000.121457725763\x000.06333532184360.08627059310670.215788051486\x000.122706592083\x000.06333532184360.08627059310670.216345340014\x000.121391929686\x000.06333532184360.08627059310670.217987805605\x000.11956782639\x00\x000.06333532184360.08627059310670.22191759944\x00\x000.120083354414\x000.06333532184360.08627059310670.227512851357\x000.123999752104\x000.06333532184360.177334174514\x000.233296886086\x000.130478620529\x000.217790946364\x000.16596788168\x00\x000.236848533154\x000.137353152037\x000.213534846902\x000.160109624267\x000.236660525203\x000.143196865916\x000.2053360641\x00\x00\x000.158342927694\x000.232564941049\x000.145768836141\x000.190417379141\x000.159172683954\x000.224231317639\x000.144346550107\x000.174046456814\x000.155729547143\x000.214311927557\x000.138925880194\x000.156785562634\x000.150927364826\x000.210170134902\x000.130826935172\x000.146869301796\x000.150927364826\x000.210213586688\x000.12289185822\x00\x000.146869301796\x000.150927364826\x000.209538832307\x000.118520334363\x000.146869301796\x000.150927364826\x000.20251442492\x00\x000.11889359355\x00\x000.146869301796\x000.150927364826\x000.184264108539\x000.123240143061\x000.146869301796\x000.150927364826\x000.161086201668\x000.125817388296\x000.146869301796\x000.150029271841\x000.13779592514\x00\x000.125452667475\x000.146157577634\x000.148286864161\x000.117985069752\x000.122288793325\x000.140093296766\x000.147674813867\x000.10177756846\x00\x000.119052015245\x000.130321532488\x000.15122140944\x00\x000.09134966880080.119331225753\x000.117777265608\x000.156058177352\x000.09051100164650.124630413949\x000.104579031467\x000.157646596432\x000.09784715622660.130142018199\x000.09366153925660.157646596432\x000.108573406935\x000.133515119553\x000.0936615392566'
tb.