cnumpy.core.multiarray
_reconstruct
p1
(cnumpy
ndarray
p2
(I0
tS'b'
tRp3
(I1
(I33
I4
tcnumpy
dtype
p4
(S'S14'
I0
I1
tRp5
(I3
S'|'
NNNI14
I1
I0
tbI00
S'0.3435605764390.3546719551090.1656782031060.2927681207660.3435605764390.3440883159640.25663754344\x000.2927681207660.3435605764390.3456729352470.2895237803460.2927681207660.3435605764390.3644370138650.31700143218\x000.2927681207660.3435605764390.3710485994820.3375576436520.2927681207660.3435605764390.3657664358620.3494867980480.2927681207660.3435605764390.3575940132140.3561767637730.2927681207660.3435605764390.3453552424910.3591033220290.2927681207660.3435605764390.3332279324530.3731041848660.2927681207660.3435605764390.3314223289490.4004490673540.2927681207660.3435605764390.3343490660190.4342778921130.2927681207660.3435605764390.3478545546530.45195415616\x000.2927681207660.3435605764390.3490597605710.4929139614110.2927681207660.3435605764390.3427355289460.5021329522130.2927681207660.3435605764390.27733823657\x000.5021329522130.2927681207660.3435605764390.19092515111\x000.5021329522130.2927681207660.3435605764390.1697120964530.49966904521\x000.2927681207660.3435605764390.1484658122060.4884275197980.2927681207660.3435605764390.1897329390050.5017494559290.2927681207660.3435605764390.26303589344\x000.52733874321\x000.2927681207660.3435605764390.3498224616050.5394821166990.2927681207660.3435605764390.4141513407230.5394821166990.2927681207660.3435605764390.4488629996780.5384414792060.2927681207660.3435605764390.4808456599710.5384414792060.2927681207660.3435605764390.4993636608120.5384414792060.2927681207660.3435605764390.4997472763060.5384414792060.2927681207660.3435605764390.4999267160890.5384414792060.2927681207660.3435605764390.4999267160890.5086421966550.2927681207660.3435605764390.5077172517780.4832845926280.4146355688570.3644341826440.5349484682080.4365691840650.4146355688570.3962374031540.5615901947020.4111440777780.4146355688570.4171168506150.5751883983610.5007084608080.4160951375960.4255081117150.5762799978260.6357921361920.433787703514'
tb.