cnumpy.core.multiarray
_reconstruct
p1
(cnumpy
ndarray
p2
(I0
tS'b'
tRp3
(I1
(I142
I4
tcnumpy
dtype
p4
(S'S14'
I0
I1
tRp5
(I3
S'|'
NNNI14
I1
I0
tbI00
S'0.1201272681360.9268611669540.6528598666190.3340778648850.1201272681360.9591026306150.69645678997\x000.3340778648850.1201272681360.9895217418670.7299515604970.3340778648850.1201272681361.0117880106\x00\x000.7583525776860.3340778648850.1201272681361.02042734623\x000.7889261841770.3340778648850.1201272681361.01329815388\x000.8262099623680.3340778648850.1201272681360.9951998591420.8644578456880.3340778648850.1201272681360.9771410822870.8983767032620.3340778648850.1201272681360.9657338857650.92214435339\x000.3340778648850.1201272681360.9643390774730.9347085356710.3340778648850.1201272681360.97134077549\x000.9407629370690.3340778648850.1201272681360.9802250266080.9409101009370.3340778648850.1201272681360.9818449616430.9342334270480.3340778648850.1201272681360.9728057384490.9196130633350.3340778648850.1201272681360.9554928541180.8979801535610.3340778648850.1201272681360.9340270161630.8738121390340.3340778648850.1201272681360.9113918542860.85101890564\x000.3340778648850.1201272681360.8858808875080.8323519825940.3340778648850.1201272681360.8603848218920.8177022933960.3340778648850.1201272681360.8436187505720.80838060379\x000.3340778648850.1201272681360.8474186658860.7998169660570.3340778648850.1201272681360.8690852522850.7933338880540.3340778648850.1201272681360.8961825966840.7900644540790.3340778648850.1201272681360.9181740283970.7934248447420.3340778648850.1201272681360.9312332272530.8122964501380.3340778648850.1201272681360.9358079433440.84442037344\x000.3340778648850.1201272681360.9353954792020.8818795084950.3340778648850.1201272681360.9321259260180.9158902168270.3340778648850.1201272681360.9242614507680.9384628534320.3340778648850.1201272681360.9084786772730.9501799345020.3340778648850.1201272681360.8835443258290.9540596604350.3340778648850.1201272681360.8520660400390.95556896925\x000.3340778648850.1201272681360.8209377527240.9546263217930.3340778648850.1201272681360.7962331771850.9472779035570.3340778648850.1201272681360.7774572968480.9263385534290.3340778648850.1201272681360.7591344118120.8903899788860.3340778648850.1201272681360.7429272532460.8433933258060.3340778648850.1201272681360.7326827049260.7921978831290.3340778648850.1201272681360.7357696294780.7471514344220.3340778648850.1201272681360.7506574392320.7047123312950.3340778648850.1201272681360.7680482864380.6579506397250.3340778648850.1201272681360.7766196727750.6040350198750.3340778648850.1201272681360.7713375091550.5551255941390.3340778648850.1201272681360.7561707496640.5452131032940.3340778648850.1201272681360.7425567507740.5846835374830.3340778648850.1201272681360.7462337017060.6552367806430.3340778648850.1201272681360.7820026874540.7294338345530.3340778648850.1201272681360.8444580435750.7945905923840.3340778648850.1201272681360.9162256121640.8458921313290.3340778648850.1201272681360.9777715802190.8838232159610.3340778648850.1201272681361.01856839657\x000.9078136086460.3340778648850.1201272681361.03699195385\x000.9197685122490.3340778648850.1201272681361.03735470772\x000.9234502911570.3340778648850.1201272681361.02765703201\x000.9200456142430.3340778648850.1201272681361.0167593956\x00\x000.9108425974850.3340778648850.1201272681361.0120023489\x00\x000.8973219990730.3340778648850.1201272681361.01645970345\x000.8823512196540.3340778648850.1201272681361.02947211266\x000.86481320858\x000.3340778648850.1201272681361.04695987701\x000.8395431637760.3340778648850.1201272681361.06778776646\x000.8031271100040.3340778648850.1201272681361.09218013287\x000.7575198411940.3340778648850.1201272681361.11562848091\x000.7071905136110.3340778648850.1201272681361.13045573235\x000.6562004089360.3340778648850.1201272681361.13301110268\x000.6084281802180.3340778648850.1201272681361.12758433819\x000.5652897953990.3340778648850.1201272681361.12352120876\x000.5334260463710.3340778648850.1201272681361.12610542774\x000.5175270438190.3340778648850.1201272681361.13243865967\x000.5126200318340.3340778648850.1201272681361.13523471355\x000.5130960345270.3340778648850.1201272681361.13026344776\x000.5131000280380.3340778648850.1201272681361.1177585125\x00\x000.5134380459790.3340778648850.1201272681361.09895932674\x000.5173790454860.3340778648850.1201272681361.07709729671\x000.5365211367610.3340778648850.1201272681361.05813157558\x000.58863389492\x000.3340778648850.1201272681361.04149150848\x000.6672100424770.3340778648850.1201272681361.02046442032\x000.7585006952290.3340778648850.1201272681360.98827880621\x000.8462367653850.3340778648850.1201272681360.9477971196170.9219235181810.3340778648850.1201272681360.9054189324380.9846447706220.3340778648850.1201272681360.8682053089141.03681445122\x000.3340778648850.1201272681360.8337345719341.07832539082\x000.3340778648850.1201272681360.8027167320251.11014091969\x000.3340778648850.1201272681360.7843007445341.13711225986\x000.3340778648850.1201272681360.7881054282191.16275680065\x000.3340778648850.1201272681360.8065366745\x00\x001.1865401268\x00\x000.3340778648850.1201272681360.8271337151531.20566403866\x000.3340778648850.1201272681360.8554878830911.21908521652\x000.3340778648850.1201272681360.9107760190961.22680270672\x000.3340778648850.1201272681360.9982508420941.22679436207\x000.3340778648850.1201272681361.00830769539\x001.21724534035\x000.3340778648850.1201272681361.01208376884\x001.19449555874\x000.3340778648850.1201272681361.01245081425\x001.15761303902\x000.3340778648850.1201272681361.01342117786\x001.10877132416\x000.3340778648850.1201272681361.01871907711\x001.05217897892\x000.3340778648850.1201272681361.02995252609\x000.9917052984240.3340778648850.1201272681361.04974508286\x000.9329789280890.3340778648850.1201272681361.07719826698\x000.8787847161290.3340778648850.1201272681361.10944783688\x000.82435977459\x000.3340778648850.1201272681361.14517128468\x000.76398485899\x000.3340778648850.1201272681361.19508767128\x000.7007076144220.3340778648850.1201272681361.19508767128\x000.6478855013850.3340778648850.1201272681361.19508767128\x000.61626470089\x000.3340778648850.1201272681361.19508767128\x000.5984410047530.3340778648850.1201272681361.19508767128\x000.5771917104720.3340778648850.1201272681361.19508767128\x000.54054659605\x000.3340778648850.1201272681361.34165358543\x000.4906352758410.3340778648850.1201272681361.35707950592\x000.4405654966830.3340778648850.1201272681361.36761522293\x000.4032320380210.3340778648850.1201272681361.36996424198\x000.3810096979140.3340778648850.1201272681361.35984361172\x000.3671179711820.3340778648850.1201272681361.33578395844\x000.3577077388760.3340778648850.1201272681361.30753827095\x000.3543401956560.3340778648850.1201272681361.28560960293\x000.3580622076990.3340778648850.1201272681361.27372455597\x000.3651658892630.3340778648850.1201272681361.26664590836\x000.3674783706670.3340778648850.1201272681361.25715875626\x000.3565192818640.3340778648850.1201272681361.24313998222\x000.33224350214\x000.3340778648850.1201272681361.22464776039\x000.3099237382410.3340778648850.1201272681361.19852674007\x000.3069259524350.3340778648850.1201272681361.16474366188\x000.3298341929910.3340778648850.1201272681361.12332451344\x000.3641445636750.3340778648850.1201272681361.07109808922\x000.3924010097980.3340778648850.1201272681361.00697863102\x000.4080687165260.3340778648850.1201272681360.9359276890750.4165991842750.3340778648850.3937717676160.87068349123\x000.4275195002560.3340778648850.4387542009350.8275149464610.4453766942020.4519723355770.5808198452\x00\x000.7981620430950.47148796916\x000.6534371376040.7604530453680.7618701457980.4995088577270.8518646955490.9217421412470.7035985589030.5234822034841.00901162624\x000.9217421412470.6270979046820.5405113697051.00901162624\x000.9217421412470.5550386309620.5491161942481.00901162624\x000.9217421412470.5121902823450.5471427440641.00901162624\x000.9217421412470.5061590075490.5290568470951.00901162624\x000.9217421412470.5215401053430.4919605255131.00901162624\x000.9217421412470.5411514639850.44021576643\x001.00901162624\x000.9217421412470.5579354763030.3876423537731.00901162624\x000.9521865844730.5702794790270.35085657239\x001.00901162624\x001.00126683712\x000.57850331068\x000.3383555710321.05867123604\x001.06772339344\x000.5843458175660.3456982970241.12684702873\x001.15308344364\x000.5913214683530.36521679163\x001.21099328995\x001.15308344364\x000.5998538136480.3877613544461.21099328995\x001.15308344364\x000.6138194203380.4098788499831.21099328995\x00'
tb.