cnumpy.core.multiarray
_reconstruct
p1
(cnumpy
ndarray
p2
(I0
tS'b'
tRp3
(I1
(I174
I4
tcnumpy
dtype
p4
(S'S15'
I0
I1
tRp5
(I3
S'|'
NNNI15
I1
I0
tbI00
S'0.172298520803\x000.05127361044290.142034143209\x000.114548705518\x000.172298520803\x000.05069073289630.14703604579\x00\x000.114548705518\x000.172298520803\x000.05073316767810.154087841511\x000.114548705518\x000.172298520803\x000.05118765681980.164671301842\x000.114548705518\x000.172298520803\x000.05183143913750.17978297174\x00\x000.114548705518\x000.172298520803\x000.05228978767990.198910593987\x000.114548705518\x000.172298520803\x000.05480897426610.22010821104\x00\x000.114548705518\x000.172298520803\x000.05869413167240.240904986858\x000.114548705518\x000.172298520803\x000.06084964424370.259813308716\x000.114548705518\x000.172298520803\x000.06441082060340.277203142643\x000.114548705518\x000.172298520803\x000.06834778189660.285606443882\x000.114548705518\x000.172298520803\x000.07475903630260.257024943829\x000.114548705518\x000.172298520803\x000.08346101641650.196256220341\x000.114548705518\x000.172298520803\x000.08928586542610.158338800073\x000.114548705518\x000.172298520803\x000.08445845544340.180878117681\x000.114548705518\x000.172298520803\x000.08180795609950.193063825369\x000.114548705518\x000.172298520803\x000.07446508854630.196160584688\x000.114548705518\x000.172298520803\x000.06691391021010.192193105817\x000.114548705518\x000.172298520803\x000.06055416539310.182084962726\x000.114548705518\x000.172298520803\x000.05437852069740.168702915311\x000.114548705518\x000.172298520803\x000.04899213090540.153304889798\x000.114548705518\x000.172298520803\x000.04585191234950.136778011918\x000.114548705518\x000.172298520803\x000.04370963200930.12208378315\x00\x000.114548705518\x000.172298520803\x000.03826490789650.111164048314\x000.114548705518\x000.172298520803\x000.029824078083\x000.101669862866\x000.114548705518\x000.172298520803\x000.026069868356\x000.09453247487550.114548705518\x000.172298520803\x000.026069868356\x000.09186261892320.114548705518\x000.172298520803\x000.026069868356\x000.091862231493\x000.114548705518\x000.172298520803\x000.026069868356\x000.09370935708280.114548705518\x000.172298520803\x000.026069868356\x000.09859676659110.114548705518\x000.172298520803\x000.026069868356\x000.104127384722\x000.114548705518\x000.172298520803\x000.03532204404470.100841127336\x000.114548705518\x000.172298520803\x000.041297160089\x000.09293157607320.114548705518\x000.172298520803\x000.04762042313810.08696438372140.114548705518\x000.172298520803\x000.05178553983570.08883049339060.114548705518\x000.172298520803\x000.05340498313310.09001622349020.114548705518\x000.172298520803\x000.05345536023380.09791295230390.114548705518\x000.172298520803\x000.051894530654\x000.108315646648\x000.114548705518\x000.172298520803\x000.05009937286380.117941476405\x000.114548705518\x000.172298520803\x000.05007531121370.131154224277\x000.114548705518\x000.172298520803\x000.05212264880540.129922941327\x000.114548705518\x000.172298520803\x000.05462723970410.122944891453\x000.114548705518\x000.172298520803\x000.05772877484560.114463485777\x000.114548705518\x000.172298520803\x000.06038723886010.09622091799970.114548705518\x000.172298520803\x000.05933760479090.08156064152720.114548705518\x000.172298520803\x000.05213242769240.07645162940030.114548705518\x000.172298520803\x000.05232250317930.064563639462\x000.114548705518\x000.172298520803\x000.051983255893\x000.064040787518\x000.114548705518\x000.172298520803\x000.04994572699070.07015905529260.114548705518\x000.172298520803\x000.04621602967380.07683587819340.114548705518\x000.172298520803\x000.04328350350260.08167942613360.114548705518\x000.172298520803\x000.04309431836010.08184046298270.114548705518\x000.172298520803\x000.04314041882750.08022771030660.114548705518\x000.172298520803\x000.04155460000040.07989774644370.114548705518\x000.172298520803\x000.04064834117890.08032701164480.114548705518\x000.172298520803\x000.04019792750480.08189313113690.114548705518\x000.172298520803\x000.03842635825280.08413504064080.114548705518\x000.172298520803\x000.03656290471550.08759099990130.114548705518\x000.172298520803\x000.03724327683450.09194263070820.114548705518\x000.172298520803\x000.03834538161750.09641540050510.114548705518\x000.172298520803\x000.03920806944370.09888177365060.114548705518\x000.08213891834020.04049169272180.100084170699\x000.09468335658310.08826579153540.04353475570680.09445644170050.106592528522\x000.09409473836420.04854155331850.09101589024070.116352833807\x000.09976314008240.05491314455870.09162713587280.125865221024\x000.102839015424\x000.06369094550610.09105147421360.133992686868\x000.10508351028\x00\x000.07873762398960.09573902189730.141793400049\x000.106733188033\x000.102722980082\x000.105004675686\x000.147901073098\x000.107174299657\x000.128733858466\x000.113250590861\x000.152648895979\x000.115212626755\x000.14656367898\x00\x000.12393347919\x00\x000.155319005251\x000.123139001429\x000.154419884086\x000.130913853645\x000.157117828727\x000.128391578794\x000.158261314034\x000.135015457869\x000.158944368362\x000.130795449018\x000.162969484925\x000.138123601675\x000.160943925381\x000.126701980829\x000.162870556116\x000.13657951355\x00\x000.173784717917\x000.11874127388\x00\x000.157453492284\x000.131077200174\x000.192273214459\x000.121759496629\x000.150432020426\x000.13758765161\x00\x000.192124500871\x000.130338102579\x000.167961299419\x000.149698466063\x000.170650854707\x000.147774413228\x000.175619632006\x000.157536149025\x000.157951623201\x000.171126499772\x000.180793941021\x000.169684037566\x000.146912574768\x000.199774637818\x000.18019041419\x00\x000.187198549509\x000.139011234045\x000.217712789774\x000.176649361849\x000.200656488538\x000.139118209481\x000.228054702282\x000.1736908108\x00\x00\x000.205674126744\x000.140694350004\x000.238387539983\x000.170762106776\x000.206875801086\x000.143928214908\x000.250474065542\x000.167955383658\x000.205679893494\x000.14829261601\x00\x000.258727043867\x000.165819913149\x000.206377059221\x000.157015293837\x000.264198333025\x000.164588585496\x000.208117052913\x000.158651411533\x000.266363739967\x000.164349555969\x000.210258990526\x000.161273166537\x000.264649927616\x000.165490269661\x000.212928459048\x000.166695296764\x000.27605342865\x00\x000.168135866523\x000.21680560708\x00\x000.168858677149\x000.323033303022\x000.169673323631\x000.222707971931\x000.17123760283\x00\x000.385702520609\x000.173947826028\x000.231740474701\x000.175271853805\x000.471661746502\x000.179318830371\x000.244786322117\x000.174743965268\x000.527839541435\x000.20406652987\x00\x000.26196834445\x00\x000.166000068188\x000.541306257248\x000.230632454157\x000.278719991446\x000.167226806283\x000.533001303673\x000.249333843589\x000.290219306946\x000.168353423476\x000.523390114307\x000.260366469622\x000.285811841488\x000.167541906238\x000.508590698242\x000.274496495724\x000.25468274951\x00\x000.162476927042\x000.479624599218\x000.278626829386\x000.214875414968\x000.158395141363\x000.432239919901\x000.269719928503\x000.173649266362\x000.154884770513\x000.374639600515\x000.248329550028\x000.138884618878\x000.149655565619\x000.320571810007\x000.217602029443\x000.113884396851\x000.140410721302\x000.281201958656\x000.191417664289\x000.09715607017280.13100066781\x00\x000.256975322962\x000.174918606877\x000.08467434346680.126862823963\x000.245562046766\x000.165897518396\x000.07995762676\x00\x000.126563861966\x000.241504877806\x000.161206886172\x000.07822399586440.12684045732\x00\x000.240832492709\x000.15848352015\x00\x000.07794559001920.131013706326\x000.241431698203\x000.15666872263\x00\x000.07834290713070.165651321411\x000.241555720568\x000.155392900109\x000.07914364337920.223961859941\x000.224188476801\x000.154637530446\x000.08009594678880.270356476307\x000.191347748041\x000.148792847991\x000.08037756383420.290704697371\x000.172921895981\x000.132334083319\x000.078947737813\x000.298283994198\x000.160786271095\x000.121855184436\x000.07879845798020.299386590719\x000.149435311556\x000.120908781886\x000.08003839850430.297894984484\x000.147542670369\x000.115423604846\x000.085413493216\x000.300341814756\x000.148680225015\x000.10508646816\x00\x000.09686965495350.30356413126\x00\x000.143479436636\x000.08085059374570.118274219334\x000.308235615492\x000.14319999516\x00\x000.05431272834540.141643315554\x000.313626140356\x000.159478634596\x000.03831528127190.163471028209\x000.318253099918\x000.194450721145\x000.02915120311080.187426298857\x000.321246057749\x000.219390541315\x000.02501715905960.200063213706\x000.323751181364\x000.228207617998\x000.02359736897050.200803503394\x000.32684186101\x00\x000.226649224758\x000.02332625351850.193775713444\x000.332472980022\x000.219100624323\x000.02333011850710.186652526259\x000.34106579423\x00\x000.219100624323\x000.02239684388040.181130245328\x000.34106579423\x00\x000.219100624323\x000.02157617360350.175702005625\x000.34106579423\x00\x000.219100624323\x000.02124879322950.169572934508\x000.34106579423\x00\x000.219100624323\x000.02113638259470.18375068903\x00\x000.34106579423\x00\x000.219100624323\x000.021139960736\x000.200664803386\x000.34106579423\x00\x000.219100624323\x000.02129738032820.218092009425\x000.34106579423\x00\x000.219100624323\x000.02358872443440.231907382607\x000.34106579423\x00\x000.219100624323\x000.02610246650870.245086997747\x000.34106579423\x00\x000.170348778367\x000.02812049351630.245816066861\x000.306218445301\x000.218982666731\x000.03118560463190.237539291382\x000.375765353441\x000.25852689147\x00\x000.03571681305770.224683851004\x000.419962257147\x000.277153968811\x000.04263857752080.214243203402\x000.434564173222\x000.277518302202\x000.05384189262990.205800101161\x000.431735247374\x000.272969424725\x000.07019580900670.201897263527\x000.430897295475\x000.270337432623\x000.09173625707630.200791075826\x000.432195425034\x000.269007563591\x000.119996026158\x000.200160115957\x000.434390544891\x000.26714476943\x00\x000.154028117657\x000.198905229568\x000.435661226511\x000.263352423906\x000.177608326077\x000.197685658932\x000.435808628798\x000.257787406445\x000.189739316702\x000.197551578283\x000.43423512578\x00\x000.251959711313\x000.196322068572\x000.198625683784\x000.456336975098\x000.253656804562\x000.200702786446\x000.200019970536\x000.472970843315\x000.30304312706\x00\x000.203503981233\x000.193713381886\x000.482304155827\x000.347352385521\x000.20159548521\x00\x000.172982305288\x000.486737579107\x000.37335011363\x00\x000.188540875912\x000.146006658673\x000.482958555222\x000.376440346241\x000.163049340248\x000.138527154922\x000.476057708263\x000.377948433161\x000.145262509584\x000.136965125799\x000.46908646822\x00\x000.377228587866\x000.182082816958\x000.139318093657\x000.460606753826\x000.383776634932\x000.224433064461\x000.14506778121\x00\x000.456096321344\x000.38603040576\x00\x000.248124197125\x000.148377075791\x000.453491151333\x000.382534533739\x000.245236247778\x000.166024535894\x000.451128065586\x000.374036818743\x000.230417832732\x000.186615362763\x000.446837186813\x000.383563488722\x000.21832023561\x00\x000.201065912843\x000.431688696146\x000.378675043583\x000.199030905962\x000.215708956122\x000.425289899111\x000.374964922667\x000.17666362226\x00\x000.234197288752\x000.422072082758\x000.371788859367\x000.150166139007\x000.230619817972\x000.422176986933\x000.367657482624\x000.123581930995\x000.228756815195\x000.422182321548\x000.360949426889\x000.104409441352\x000.231414660811\x000.412061721087\x000.35072144866\x00\x000.09191557019950.241007834673\x000.393112510443\x000.337214231491\x000.08524064719680.252421349287\x000.366147011518\x000.321619778872\x000.08166900277140.259836345911\x000.358592033386\x000.303066819906\x000.07827717065810.263130903244\x000.360035538673\x000.285521775484\x000.07348874211310.261007517576\x000.356819361448\x000.270491778851\x000.067934140563\x000.257204383612\x000.347676187754\x000.270491778851\x000.06565979123120.250297546387\x000.347676187754\x000.270491778851\x000.06257052719590.246709808707\x000.347676187754\x000.270491778851\x000.06266576796770.250402539968\x000.347676187754\x000.270491778851\x000.06381909549240.25222837925\x00\x000.347676187754\x000.270491778851\x000.05975782498720.250567287207\x000.347676187754\x000.270491778851\x000.05274616926910.241557314992\x000.347676187754\x000.270491778851\x000.05529065802690.21132285893\x00\x000.347676187754\x000.270491778851\x000.06209623813630.171764582396\x000.347676187754\x00'
tb.