cnumpy.core.multiarray
_reconstruct
p1
(cnumpy
ndarray
p2
(I0
tS'b'
tRp3
(I1
(I44
I4
tcnumpy
dtype
p4
(S'S15'
I0
I1
tRp5
(I3
S'|'
NNNI15
I1
I0
tbI00
S'0.243370056152\x000.368095725775\x000.110523931682\x000.178574621677\x000.243370056152\x000.364664971828\x000.134581655264\x000.178574621677\x000.243370056152\x000.364664971828\x000.155106797814\x000.178574621677\x000.243370056152\x000.364664971828\x000.180816590786\x000.178574621677\x000.243370056152\x000.364664971828\x000.213001012802\x000.07278787344690.243370056152\x000.364664971828\x000.217156559229\x000.07278787344690.243370056152\x000.378145962954\x000.22374817729\x00\x000.07278787344690.243370056152\x000.400361299515\x000.276664346457\x000.07278787344690.243370056152\x000.462908476591\x000.390768736601\x000.07278787344690.243370056152\x000.545408368111\x000.456461280584\x000.07278787344690.243370056152\x000.61244648695\x00\x000.48291695118\x00\x000.07278787344690.243370056152\x000.640126347542\x000.48291695118\x00\x000.07278787344690.243370056152\x000.661862552166\x000.48291695118\x00\x000.07278787344690.243370056152\x000.65506285429\x00\x000.482885658741\x000.07278787344690.243370056152\x000.646853625774\x000.49207213521\x00\x000.07278787344690.243370056152\x000.638019025326\x000.518459022045\x000.07278787344690.243370056152\x000.609244167805\x000.540156900883\x000.07278787344690.243370056152\x000.630099833012\x000.543782293797\x000.07278787344690.243370056152\x000.655027210712\x000.543782293797\x000.07278787344690.243370056152\x000.655027210712\x000.543782293797\x000.07278787344690.243370056152\x000.652975320816\x000.543782293797\x000.07278787344690.243370056152\x000.652975320816\x000.543782293797\x000.07278787344690.243370056152\x000.652975320816\x000.543782293797\x000.07278787344690.243370056152\x000.655623435974\x000.543782293797\x000.07278787344690.243370056152\x000.667568027973\x000.555673658848\x000.07278787344690.243370056152\x000.655496835709\x000.544080913067\x000.07278787344690.243370056152\x000.648184835911\x000.565733134747\x000.07278787344690.243370056152\x000.653854370117\x000.587196469307\x000.07278787344690.243370056152\x000.68160712719\x00\x000.587196469307\x000.07278787344690.243370056152\x000.694504380226\x000.60116058588\x00\x000.07278787344690.243370056152\x000.704010426998\x000.635928153992\x000.07278787344690.243370056152\x000.682330131531\x000.675109088421\x000.07278787344690.243370056152\x000.646972715855\x000.719269931316\x000.07278787344690.243370056152\x000.591362476349\x000.707508265972\x000.07278787344690.243370056152\x000.516361415386\x000.734179973602\x000.07278787344690.243370056152\x000.473066061735\x000.767371475697\x000.07278787344690.243370056152\x000.488731831312\x000.801486670971\x000.07278787344690.243370056152\x000.545106291771\x000.823838174343\x000.07278787344690.474362283945\x000.581129491329\x000.852565348148\x000.688856005669\x000.523634135723\x000.583290278912\x000.865572273731\x000.72087675333\x00\x000.523634135723\x000.590316772461\x000.865572273731\x000.732774436474\x000.523634135723\x000.596638202667\x000.862442553043\x000.732973396778\x000.523634135723\x000.599415183067\x000.862442553043\x000.732973396778\x000.523634135723\x000.599415183067\x000.862442553043\x000.732973396778\x00'
tb.