cnumpy.core.multiarray
_reconstruct
p1
(cnumpy
ndarray
p2
(I0
tS'b'
tRp3
(I1
(I26
I4
tcnumpy
dtype
p4
(S'S14'
I0
I1
tRp5
(I3
S'|'
NNNI14
I1
I0
tbI00
S'0.44292140007\x000.6484960317610.3206240534780.3413870632650.44292140007\x000.6520302295680.3141678273680.3413870632650.44292140007\x000.6585055589680.3101854324340.3413870632650.44292140007\x000.66680341959\x000.3097833991050.3413870632650.44292140007\x000.6743517518040.3120130598550.3413870632650.44292140007\x000.6818132400510.3160297274590.3413870632650.44292140007\x000.6878133416180.3195477724080.3413870632650.44292140007\x000.6905189156530.3220455646510.3413870632650.44292140007\x000.6904547214510.3213823735710.3413870632650.44292140007\x000.6858160495760.3193226158620.3413870632650.44292140007\x000.6762784719470.31163212657\x000.3413870632650.44292140007\x000.6655970811840.2996953129770.3413870632650.44292140007\x000.6497167348860.2939722239970.3413870632650.44292140007\x000.6255490779880.3056393861770.3413870632650.44292140007\x000.58911293745\x000.3438990116120.3413870632650.5218964815140.5497286319730.3984129428860.4832211732860.5203489065170.51363670826\x000.44780793786\x000.50679898262\x000.5019665360450.4824762046340.4812636375430.50478053093\x000.4777964651580.4590598046780.5022078752520.4848866462710.4606714546680.44174015522\x000.5161885619160.4536144435410.4573425352570.4299876689910.5337790250780.4278519153590.4612686932090.4232133328910.5539960861210.4120514392850.4690438210960.4233140647410.5712475180630.4069296717640.4802348911760.4287445247170.5854395031930.40840035677\x000.4939755499360.4346301853660.6001514792440.41139253974\x000.5111895799640.4374056458470.6030121445660.41215467453\x00'
tb.