cnumpy.core.multiarray
_reconstruct
p1
(cnumpy
ndarray
p2
(I0
tS'b'
tRp3
(I1
(I216
I4
tcnumpy
dtype
p4
(S'S15'
I0
I1
tRp5
(I3
S'|'
NNNI15
I1
I0
tbI00
S'0.317259371281\x000.134325310588\x000.182908207178\x000.319575428963\x000.317259371281\x000.130839243531\x000.208513915539\x000.319575428963\x000.317259371281\x000.127445593476\x000.224407479167\x000.319575428963\x000.317259371281\x000.129290863872\x000.225285261869\x000.319575428963\x000.317259371281\x000.127398476005\x000.225394949317\x000.319575428963\x000.317259371281\x000.124952055514\x000.226308479905\x000.319575428963\x000.317259371281\x000.123663023114\x000.226157352328\x000.319575428963\x000.317259371281\x000.122085623443\x000.221651569009\x000.319575428963\x000.317259371281\x000.119824618101\x000.214338168502\x000.319575428963\x000.317259371281\x000.117062300444\x000.208755478263\x000.319575428963\x000.317259371281\x000.11470733583\x00\x000.19933488965\x00\x000.319575428963\x000.317259371281\x000.11365775764\x00\x000.190379738808\x000.319575428963\x000.317259371281\x000.116001114249\x000.186322838068\x000.319575428963\x000.317259371281\x000.119051203132\x000.187281295657\x000.319575428963\x000.317259371281\x000.124499440193\x000.192394644022\x000.319575428963\x000.317259371281\x000.131449639797\x000.196960985661\x000.319575428963\x000.317259371281\x000.142427638173\x000.190878152847\x000.319575428963\x000.317259371281\x000.151634454727\x000.179647997022\x000.319575428963\x000.317259371281\x000.156273975968\x000.159427911043\x000.319575428963\x000.317259371281\x000.150335520506\x000.141474604607\x000.319575428963\x000.317259371281\x000.136991232634\x000.133273929358\x000.319575428963\x000.317259371281\x000.125457897782\x000.129273489118\x000.319575428963\x000.317259371281\x000.117515563965\x000.132237926126\x000.319575428963\x000.317259371281\x000.112085603178\x000.143293559551\x000.319575428963\x000.317259371281\x000.10698825866\x00\x000.155606150627\x000.319575428963\x000.317259371281\x000.117842324078\x000.170057758689\x000.319575428963\x000.317259371281\x000.121214807034\x000.181388273835\x000.319575428963\x000.317259371281\x000.116439126432\x000.182325541973\x000.319575428963\x000.317259371281\x000.114050991833\x000.177437260747\x000.319575428963\x000.317259371281\x000.114448234439\x000.169677451253\x000.319575428963\x000.317259371281\x000.116817697883\x000.162438601255\x000.319575428963\x000.317259371281\x000.116778433323\x000.153017789125\x000.319575428963\x000.317259371281\x000.116348646581\x000.148694932461\x000.319575428963\x000.317259371281\x000.115941375494\x000.146209523082\x000.319575428963\x000.317259371281\x000.116754703224\x000.144047796726\x000.319575428963\x000.317259371281\x000.117264091969\x000.140734493732\x000.319575428963\x000.317259371281\x000.124434150755\x000.144293129444\x000.319575428963\x000.317259371281\x000.131280571222\x000.14452290535\x00\x000.319575428963\x000.317259371281\x000.138875424862\x000.144054591656\x000.319575428963\x000.317259371281\x000.147667571902\x000.143647581339\x000.319575428963\x000.317259371281\x000.156624510884\x000.143853232265\x000.319575428963\x000.317259371281\x000.162006556988\x000.145542874932\x000.319575428963\x000.317259371281\x000.153392657638\x000.144575446844\x000.319575428963\x000.317259371281\x000.161980822682\x000.134919077158\x000.319575428963\x000.317259371281\x000.179351374507\x000.133960738778\x000.319575428963\x000.317259371281\x000.192378818989\x000.129365921021\x000.319575428963\x000.317259371281\x000.19951608777\x00\x000.129025965929\x000.319575428963\x000.317259371281\x000.206209510565\x000.133197024465\x000.319575428963\x000.317259371281\x000.218520730734\x000.137673035264\x000.319575428963\x000.317259371281\x000.230722561479\x000.141055002809\x000.319575428963\x000.317259371281\x000.240834444761\x000.138768985868\x000.319575428963\x000.317259371281\x000.252861559391\x000.128345295787\x000.319575428963\x000.317259371281\x000.265657454729\x000.112249091268\x000.319575428963\x000.317259371281\x000.277199149132\x000.106160797179\x000.319575428963\x000.317259371281\x000.287626832724\x000.104114592075\x000.319575428963\x000.317259371281\x000.301286965609\x000.101270988584\x000.319575428963\x000.317259371281\x000.326302707195\x000.101470969617\x000.319575428963\x000.317259371281\x000.357006967068\x000.110534988344\x000.319575428963\x000.317259371281\x000.386457979679\x000.115159377456\x000.319575428963\x000.317259371281\x000.396678835154\x000.120563596487\x000.319575428963\x000.317259371281\x000.378208458424\x000.130033016205\x000.319575428963\x000.317259371281\x000.337254792452\x000.129617542028\x000.319575428963\x000.317259371281\x000.281596839428\x000.128628849983\x000.319575428963\x000.317259371281\x000.229213416576\x000.129077553749\x000.319575428963\x000.317259371281\x000.19169472158\x00\x000.135087013245\x000.319575428963\x000.317259371281\x000.165300443769\x000.142685100436\x000.319575428963\x000.317259371281\x000.149188548326\x000.148618683219\x000.319575428963\x000.317259371281\x000.13817191124\x00\x000.150343030691\x000.319575428963\x000.317259371281\x000.128850087523\x000.149153649807\x000.319575428963\x000.317259371281\x000.119860067964\x000.14721621573\x00\x000.319575428963\x000.317259371281\x000.113301128149\x000.1458581388\x00\x00\x000.319575428963\x000.317259371281\x000.109360992908\x000.142720654607\x000.319575428963\x000.317259371281\x000.107677251101\x000.139529898763\x000.319575428963\x000.317259371281\x000.10728880018\x00\x000.134913131595\x000.319575428963\x000.317259371281\x000.101272143424\x000.127322047949\x000.319575428963\x000.317259371281\x000.08129095286130.118075564504\x000.319575428963\x000.317259371281\x000.05942585691810.106049142778\x000.319575428963\x000.317259371281\x000.04790687188510.103914938867\x000.319575428963\x000.317259371281\x000.04515318199990.104791343212\x000.319575428963\x000.317259371281\x000.044444359839\x000.106784053147\x000.319575428963\x000.317259371281\x000.04861651360990.10632815212\x00\x000.319575428963\x000.317259371281\x000.053866956383\x000.102970354259\x000.319575428963\x000.317259371281\x000.06020710989830.104807198048\x000.319575428963\x000.317259371281\x000.06766845285890.108365930617\x000.319575428963\x000.317259371281\x000.06899185478690.110692255199\x000.319575428963\x000.317259371281\x000.07187880575660.10652308166\x00\x000.319575428963\x000.317259371281\x000.07826387882230.09612977504730.319575428963\x000.317259371281\x000.09222752600910.08790708333250.319575428963\x000.317259371281\x000.100955016911\x000.08297307789330.319575428963\x000.317259371281\x000.109868936241\x000.08130139857530.319575428963\x000.317259371281\x000.129204630852\x000.083153642714\x000.319575428963\x000.317259371281\x000.156036481261\x000.08598070591690.319575428963\x000.317259371281\x000.178996384144\x000.08870064467190.319575428963\x000.317259371281\x000.195269688964\x000.090610049665\x000.319575428963\x000.317259371281\x000.21091362834\x00\x000.09157983213660.319575428963\x000.317259371281\x000.219154462218\x000.087829478085\x000.319575428963\x000.317259371281\x000.219199746847\x000.08810555934910.319575428963\x000.317259371281\x000.216718450189\x000.09040358662610.319575428963\x000.317259371281\x000.217763587832\x000.09657345712180.319575428963\x000.317259371281\x000.209447726607\x000.09867262840270.319575428963\x000.317259371281\x000.193936377764\x000.09626284241680.319575428963\x000.317259371281\x000.170970872045\x000.09132140874860.319575428963\x000.317259371281\x000.146060928702\x000.08991754800080.319575428963\x000.317259371281\x000.12529116869\x00\x000.089862473309\x000.319575428963\x000.317259371281\x000.111137025058\x000.09000590443610.319575428963\x000.317259371281\x000.102964244783\x000.08954394608740.319575428963\x000.317259371281\x000.098917350173\x000.08889984339480.319575428963\x000.317259371281\x000.09299687296150.08889476954940.319575428963\x000.317259371281\x000.089027300477\x000.09068535268310.319575428963\x000.317259371281\x000.084223754704\x000.09997382014990.319575428963\x000.317259371281\x000.082262404263\x000.114454463124\x000.319575428963\x000.317259371281\x000.07575570791960.124207347631\x000.319575428963\x000.317259371281\x000.06996809691190.127662941813\x000.319575428963\x000.317259371281\x000.06676360219720.133293613791\x000.319575428963\x000.317259371281\x000.062528192997\x000.137486696243\x000.319575428963\x000.317259371281\x000.05890299752350.139408096671\x000.319575428963\x000.317259371281\x000.06256102770570.143824249506\x000.319575428963\x000.317259371281\x000.07601195573810.159927874804\x000.319575428963\x000.317259371281\x000.09507450461390.180315345526\x000.319575428963\x000.317259371281\x000.111185342073\x000.187722399831\x000.319575428963\x000.317259371281\x000.121496893466\x000.192364484072\x000.319575428963\x000.317259371281\x000.124636225402\x000.196032419801\x000.319575428963\x000.317259371281\x000.123672962189\x000.202957704663\x000.319575428963\x000.317259371281\x000.121759846807\x000.210815235972\x000.319575428963\x000.317259371281\x000.120565094054\x000.219543009996\x000.319575428963\x000.317259371281\x000.12037871778\x00\x000.221065059304\x000.319575428963\x000.317259371281\x000.118782781065\x000.213632389903\x000.319575428963\x000.317259371281\x000.121704675257\x000.20327681303\x00\x000.319575428963\x000.317259371281\x000.121921941638\x000.192481532693\x000.319575428963\x000.317259371281\x000.126927316189\x000.180753320456\x000.319575428963\x000.317259371281\x000.126974597573\x000.170128926635\x000.319575428963\x000.317259371281\x000.122118785977\x000.164188623428\x000.319575428963\x000.317259371281\x000.120105564594\x000.159910857677\x000.319575428963\x000.317259371281\x000.117709860206\x000.156092911959\x000.319575428963\x000.317259371281\x000.114265866578\x000.144922420382\x000.319575428963\x000.317259371281\x000.112402267754\x000.136157184839\x000.319575428963\x000.317259371281\x000.115271314979\x000.124098144472\x000.319575428963\x000.317259371281\x000.113032110035\x000.11397010088\x00\x000.319575428963\x000.317259371281\x000.109568893909\x000.106002815068\x000.319575428963\x000.317259371281\x000.106705605984\x000.09818963706490.319575428963\x000.317259371281\x000.104521632195\x000.08764877915380.319575428963\x000.317259371281\x000.10317337513\x00\x000.07617430388930.319575428963\x000.317259371281\x000.10238122195\x00\x000.06825496256350.319575428963\x000.317259371281\x000.100716717541\x000.06268499791620.319575428963\x000.317259371281\x000.102251537144\x000.06824119389060.319575428963\x000.317259371281\x000.10085940361\x00\x000.07702759653330.319575428963\x000.317259371281\x000.09059628844260.08433891087770.319575428963\x000.317259371281\x000.089233443141\x000.08888807147740.319575428963\x000.317259371281\x000.09049172699450.09687201678750.319575428963\x000.317259371281\x000.093614667654\x000.122448951006\x000.319575428963\x000.317259371281\x000.09542147815230.142749652267\x000.319575428963\x000.317259371281\x000.100083954632\x000.147981360555\x000.319575428963\x000.317259371281\x000.102358646691\x000.151374340057\x000.319575428963\x000.317259371281\x000.113757461309\x000.156032726169\x000.319575428963\x000.317259371281\x000.127044603229\x000.16300944984\x00\x000.319575428963\x000.317259371281\x000.15083758533\x00\x000.171773925424\x000.319575428963\x000.317259371281\x000.173705741763\x000.180212631822\x000.319575428963\x000.156788215041\x000.19195728004\x00\x000.185675248504\x000.167984783649\x000.156788215041\x000.201306805015\x000.186763435602\x000.167984783649\x000.156788215041\x000.204270750284\x000.184534832835\x000.167984783649\x000.156788215041\x000.207307681441\x000.180969938636\x000.167984783649\x000.156788215041\x000.21209359169\x00\x000.185427427292\x000.167984783649\x000.156788215041\x000.218408241868\x000.193899095058\x000.167984783649\x000.156788215041\x000.223508179188\x000.191892281175\x000.167984783649\x000.156788215041\x000.225629806519\x000.192082092166\x000.167984783649\x000.156788215041\x000.225779235363\x000.193525865674\x000.167984783649\x000.156788215041\x000.22579498589\x00\x000.189847305417\x000.167984783649\x000.156788215041\x000.224561154842\x000.185020327568\x000.167984783649\x000.156788215041\x000.222366556525\x000.178812220693\x000.167984783649\x000.156788215041\x000.210614681244\x000.174548968673\x000.167984783649\x000.156788215041\x000.194000273943\x000.17005828023\x00\x000.167984783649\x000.156788215041\x000.181840702891\x000.166370153427\x000.167984783649\x000.156788215041\x000.173560738564\x000.165126398206\x000.167984783649\x000.117077477276\x000.180649787188\x000.166446596384\x000.173069149256\x000.116044119\x00\x00\x00\x000.179294466972\x000.168843626976\x000.171723455191\x000.112842731178\x000.177483171225\x000.17024025321\x00\x000.171052992344\x000.107912532985\x000.175273165107\x000.169317021966\x000.168115660548\x000.105352945626\x000.179470077157\x000.178947076201\x000.162583172321\x000.112380452454\x000.184130579233\x000.189271092415\x000.162256896496\x000.116656988859\x000.185160547495\x000.187645703554\x000.16760456562\x00\x000.136684015393\x000.177942797542\x000.175822749734\x000.169259428978\x000.136684015393\x000.167526900768\x000.164111405611\x000.169259428978\x000.136684015393\x000.163514226675\x000.1523283571\x00\x00\x000.169259428978\x000.136684015393\x000.155410736799\x000.138518840075\x000.169259428978\x000.136684015393\x000.142115443945\x000.126698389649\x000.169259428978\x000.12966285646\x00\x000.133654564619\x000.119876764715\x000.13414670527\x00\x000.120949119329\x000.130778536201\x000.117101185024\x000.108391858637\x000.107591830194\x000.118898972869\x000.113501593471\x000.09441608935590.101123690605\x000.10990947485\x00\x000.109069012105\x000.090473793447\x000.09622363001110.103101477027\x000.106137089431\x000.08817544579510.09361694753170.09951463341710.105023413897\x000.08646713197230.09290696680550.09860678017140.10439863801\x00\x000.08539263904090.09290696680550.09672549366950.103623121977\x000.08539263904090.09290696680550.09361021965740.102743275464\x000.08539263904090.09290696680550.08880487829450.102849386632\x000.08539263904090.09290696680550.08557178825140.103377409279\x000.08539263904090.09290696680550.082719065249\x000.100350543857\x000.08539263904090.152607724071\x000.08203810453410.09615821391340.128428518772\x000.189960852265\x000.08688040822740.08968430757520.131544932723\x000.189960852265\x000.091645643115\x000.08514760434630.131544932723\x000.189960852265\x000.09924200177190.09148699045180.131544932723\x000.189960852265\x000.108333580196\x000.101112827659\x000.131544932723\x000.189960852265\x000.11311841011\x00\x000.118050448596\x000.131544932723\x000.189960852265\x000.111400134861\x000.135039746761\x000.131544932723\x000.189960852265\x000.107625171542\x000.143121108413\x000.131544932723\x000.189960852265\x000.10651435703\x00\x000.141560763121\x000.131544932723\x000.189960852265\x000.111208036542\x000.140877887607\x000.131544932723\x000.189960852265\x000.119714140892\x000.153080612421\x000.131544932723\x000.189960852265\x000.126417011023\x000.172807097435\x000.131544932723\x000.187460556626\x000.134679883718\x000.20975419879\x00\x000.111006587744\x000.187460556626\x000.158632740378\x000.234879747033\x000.111006587744\x000.187460556626\x000.186900749803\x000.239445731044\x000.111006587744\x000.187460556626\x000.202322438359\x000.228707671165\x000.111006587744\x000.187460556626\x000.197844639421\x000.21464855969\x00\x000.111006587744\x000.187460556626\x000.18043936789\x00\x000.204321920872\x000.111006587744\x000.187460556626\x000.157335728407\x000.207500055432\x000.111006587744\x00'
tb.