cnumpy.core.multiarray
_reconstruct
p1
(cnumpy
ndarray
p2
(I0
tS'b'
tRp3
(I1
(I150
I4
tcnumpy
dtype
p4
(S'S15'
I0
I1
tRp5
(I3
S'|'
NNNI15
I1
I0
tbI00
S'0.680518329144\x000.571019411087\x000.315026462078\x000.332173198462\x000.683170557022\x000.562082529068\x000.309196442366\x000.327870488167\x000.682897150517\x000.528166353703\x000.297511547804\x000.324086070061\x000.680994272232\x000.483437418938\x000.287718623877\x000.332285016775\x000.68211388588\x00\x000.450209528208\x000.288373976946\x000.339499443769\x000.688672721386\x000.431647390127\x000.303934425116\x000.348911434412\x000.699187278748\x000.422004073858\x000.337739348412\x000.358195692301\x000.71062207222\x00\x000.419217288494\x000.38165974617\x00\x000.366108864546\x000.720398366451\x000.419574707747\x000.42074200511\x00\x000.372904986143\x000.723254799843\x000.420155376196\x000.447150945663\x000.374518722296\x000.722751796246\x000.422297954559\x000.460351586342\x000.37288954854\x00\x000.724871277809\x000.421129405499\x000.464312940836\x000.366899728775\x000.730091810226\x000.414413779974\x000.464012622833\x000.35961791873\x00\x000.73731815815\x00\x000.41118067503\x00\x000.462881624699\x000.351710647345\x000.73731815815\x00\x000.421921104193\x000.474821329117\x000.347410917282\x000.73731815815\x00\x000.447718292475\x000.500472187996\x000.347410917282\x000.73731815815\x00\x000.482175052166\x000.502239346504\x000.347410917282\x000.73731815815\x00\x000.510359287262\x000.500250697136\x000.347410917282\x000.73731815815\x00\x000.531392276287\x000.497255414724\x000.347410917282\x000.73731815815\x00\x000.556113123894\x000.489686280489\x000.347410917282\x000.73731815815\x00\x000.58330899477\x00\x000.473816812038\x000.347410917282\x000.73731815815\x00\x000.613169252872\x000.445222496986\x000.347410917282\x000.73731815815\x00\x000.641675114632\x000.399232000113\x000.347410917282\x000.73731815815\x00\x000.665962934494\x000.337427735329\x000.347410917282\x000.73731815815\x00\x000.684522390366\x000.282353907824\x000.347410917282\x000.73731815815\x00\x000.697831749916\x000.256659090519\x000.347410917282\x000.73731815815\x00\x000.706769943237\x000.259553283453\x000.347410917282\x000.73731815815\x00\x000.71425974369\x00\x000.273822128773\x000.347410917282\x000.73731815815\x00\x000.72092717886\x00\x000.284735500813\x000.347410917282\x000.73731815815\x00\x000.727519989014\x000.286933422089\x000.347410917282\x000.73731815815\x00\x000.733009874821\x000.28147995472\x00\x000.347410917282\x000.73731815815\x00\x000.73616373539\x00\x000.272072970867\x000.347410917282\x000.73731815815\x00\x000.737159311771\x000.263948529959\x000.347410917282\x000.73731815815\x00\x000.735964000225\x000.26281401515\x00\x000.347410917282\x000.73731815815\x00\x000.730626404285\x000.273679256439\x000.347410917282\x000.191222861409\x000.715448319912\x000.295855760574\x000.347410917282\x000.161726117134\x000.694974660873\x000.323100626469\x000.103749677539\x000.141905680299\x000.67330801487\x00\x000.348799228668\x000.110543198884\x000.134574517608\x000.645944654942\x000.371338158846\x000.120093457401\x000.138226494193\x000.606354594231\x000.390519976616\x000.131028190255\x000.14676746726\x00\x000.545868813992\x000.407648235559\x000.140078052878\x000.153822094202\x000.455659836531\x000.422057896852\x000.145778402686\x000.155782848597\x000.347588598728\x000.426994353533\x000.147201031446\x000.153114244342\x000.249691218138\x000.428597122431\x000.144748091698\x000.14892219007\x00\x000.192810505629\x000.434194326401\x000.14030456543\x00\x000.157635241747\x000.176830530167\x000.444038391113\x000.14417976141\x00\x000.157635241747\x000.179773628712\x000.454520642757\x000.14417976141\x00\x000.149365648627\x000.185919061303\x000.452757865191\x000.14417976141\x00\x000.142592743039\x000.190345227718\x000.439867436886\x000.149683669209\x000.141751170158\x000.198382779956\x000.419174343348\x000.154149129987\x000.1485324651\x00\x00\x000.21589127183\x00\x000.391709774733\x000.158717408776\x000.166307851672\x000.24026106298\x00\x000.359786868095\x000.166189491749\x000.194329231977\x000.271678477526\x000.324573457241\x000.174168154597\x000.221162319183\x000.298011153936\x000.289347410202\x000.179215237498\x000.233578935266\x000.312989890575\x000.258019268513\x000.178711786866\x000.226601287723\x000.320519983768\x000.235649317503\x000.170923307538\x000.209967136383\x000.321532249451\x000.229414016008\x000.158290326595\x000.209967136383\x000.307969748974\x000.243572115898\x000.158290326595\x000.209967136383\x000.295872211456\x000.270013153553\x000.158290326595\x000.209967136383\x000.289318680763\x000.294368416071\x000.158290326595\x000.209967136383\x000.283804059029\x000.307934582233\x000.158290326595\x000.209967136383\x000.276738971472\x000.314818114042\x000.158290326595\x000.209967136383\x000.2705976367\x00\x00\x000.317042589188\x000.158290326595\x000.209967136383\x000.267849564552\x000.320485085249\x000.158290326595\x000.209967136383\x000.267138034105\x000.333360701799\x000.158290326595\x000.209967136383\x000.266636490822\x000.354764908552\x000.158290326595\x000.209967136383\x000.263658285141\x000.374683618546\x000.158290326595\x000.209967136383\x000.258462935686\x000.388861864805\x000.158290326595\x000.209967136383\x000.253361523151\x000.396709769964\x000.158290326595\x000.209967136383\x000.249170690775\x000.398276805878\x000.158290326595\x000.209967136383\x000.246795073152\x000.400113046169\x000.158290326595\x000.209967136383\x000.247885540128\x000.400034099817\x000.158290326595\x000.209967136383\x000.248788356781\x000.395497024059\x000.158290326595\x000.209967136383\x000.248810380697\x000.384527295828\x000.158290326595\x000.209967136383\x000.251340389252\x000.36830508709\x00\x000.158290326595\x000.209967136383\x000.257092863321\x000.352147877216\x000.158290326595\x000.209967136383\x000.260627776384\x000.343117296696\x000.158290326595\x000.209967136383\x000.263637512922\x000.340669244528\x000.158290326595\x000.209967136383\x000.263971865177\x000.331704348326\x000.158290326595\x000.10646430403\x00\x000.262443512678\x000.309018075466\x000.138532608747\x000.09998711198570.254784941673\x000.280076861382\x000.118617244065\x000.09608848392960.240028455853\x000.246777489781\x000.112099692225\x000.092775516212\x000.215011939406\x000.222069993615\x000.116070516407\x000.09004956483840.189842104912\x000.2082683146\x00\x00\x000.122007422149\x000.08814098685980.174171611667\x000.205384671688\x000.126281455159\x000.08648455142970.172976031899\x000.208123907447\x000.128667637706\x000.08523550629620.183435186744\x000.209466725588\x000.130218282342\x000.08552993834020.198175638914\x000.205913960934\x000.132410228252\x000.08785272389650.213965475559\x000.199431687593\x000.134255707264\x000.09109432250260.229786992073\x000.192468807101\x000.135086655617\x000.09541977941990.247769191861\x000.187904328108\x000.135183796287\x000.120105683804\x000.264286994934\x000.188380911946\x000.141514152288\x000.121690131724\x000.280991882086\x000.195316493511\x000.141073688865\x000.126994326711\x000.308267056942\x000.214059740305\x000.144195064902\x000.131991863251\x000.359191089869\x000.25040179491\x00\x000.149372026324\x000.13710232079\x00\x000.432854086161\x000.300725162029\x000.155372351408\x000.144673958421\x000.505376458168\x000.359274744987\x000.162842124701\x000.1531124264\x00\x00\x000.55757266283\x00\x000.410673558712\x000.172477960587\x000.162641093135\x000.588889479637\x000.443218737841\x000.180090546608\x000.175133019686\x000.599876046181\x000.457883745432\x000.183895587921\x000.190417647362\x000.600086927414\x000.464853078127\x000.188540428877\x000.207859277725\x000.596525132656\x000.471683442593\x000.195260301232\x000.229020878673\x000.584045946598\x000.480718433857\x000.200158461928\x000.351465344429\x000.560109853745\x000.479011744261\x000.193662196398\x000.465417027473\x000.535804450512\x000.475121259689\x000.207689166069\x000.536887764931\x000.513935506344\x000.472265094519\x000.269687980413\x000.536887764931\x000.497742533684\x000.468038469553\x000.269687980413\x000.536887764931\x000.489714473486\x000.459900796413\x000.269687980413\x000.536887764931\x000.476628571749\x000.439303040504\x000.269687980413\x000.536887764931\x000.468412041664\x000.391198992729\x000.269687980413\x000.536887764931\x000.464784502983\x000.329390078783\x000.269687980413\x000.536887764931\x000.473722279072\x000.26834025979\x00\x000.269687980413\x000.536887764931\x000.491918683052\x000.215121373534\x000.269687980413\x000.536887764931\x000.517177760601\x000.177691996098\x000.269687980413\x000.536887764931\x000.538574397564\x000.158758610487\x000.269687980413\x000.536887764931\x000.55345082283\x00\x000.15584936738\x00\x000.269687980413\x000.536887764931\x000.562933444977\x000.161293178797\x000.269687980413\x000.536887764931\x000.569347798824\x000.168987959623\x000.269687980413\x000.536887764931\x000.575338482857\x000.176192268729\x000.269687980413\x000.536887764931\x000.581928908825\x000.18163408339\x00\x000.269687980413\x000.536887764931\x000.588192522526\x000.186367169023\x000.269687980413\x000.536887764931\x000.594213664532\x000.190289720893\x000.269687980413\x000.536887764931\x000.600641727448\x000.19411213696\x00\x000.269687980413\x000.536887764931\x000.606942474842\x000.200518369675\x000.269687980413\x000.536887764931\x000.616938889027\x000.212157800794\x000.269687980413\x000.536887764931\x000.625065863132\x000.231360957026\x000.269687980413\x000.536887764931\x000.623893022537\x000.260189592838\x000.269687980413\x000.536887764931\x000.611690223217\x000.29296708107\x00\x000.269687980413\x000.536887764931\x000.597221791744\x000.323354274035\x000.269687980413\x000.246355235577\x000.586217701435\x000.338607013226\x000.269687980413\x000.230094328523\x000.579081833363\x000.340137183666\x000.162858873606\x000.221510827541\x000.572873592377\x000.337831288576\x000.152342900634\x000.218963652849\x000.570627748966\x000.336275368929\x000.144377663732\x000.224581822753\x000.566148877144\x000.353824883699\x000.137861073017\x000.237448588014\x000.555772900581\x000.392152130604\x000.138418138027\x000.248838484287\x000.546923696995\x000.435084044933\x000.145444154739\x000.2572003901\x00\x00\x000.543039619923\x000.465148389339\x000.155575543642\x000.263448685408\x000.544407486916\x000.481013655663\x000.163913026452\x000.266669154167\x000.547815263271\x000.487537533045\x000.167679101229\x000.268540471792\x000.550491034985\x000.489578962326\x000.167220562696\x000.270090073347\x000.550121724606\x000.490032434464\x000.161795675755\x000.264177620411\x000.546986043453\x000.489903777838\x000.150710150599\x000.273396015167\x000.541022241116\x000.489020615816\x000.140281885862\x000.274501234293\x000.534021258354\x000.486246794462\x000.134861528873\x000.272059619427\x000.52344751358\x00\x000.48128592968\x00\x000.131422489882\x000.271684169769\x000.507688105106\x000.474043369293\x000.128649011254\x000.258672714233\x000.491312652826\x000.464676111937\x000.127455428243\x000.265171587467\x000.470228761435\x000.450282245874\x000.130415529013\x000.268665403128\x000.457528501749\x000.424957543612\x000.133769124746\x000.266276270151\x000.445253044367\x000.390269756317\x000.135157704353\x00'
tb.