cnumpy.core.multiarray
_reconstruct
p1
(cnumpy
ndarray
p2
(I0
tS'b'
tRp3
(I1
(I14
I4
tcnumpy
dtype
p4
(S'S14'
I0
I1
tRp5
(I3
S'|'
NNNI14
I1
I0
tbI00
S'0.4368931949140.6021505594250.8311688303950.70454543829\x000.4174757301810.6739130616190.8701298832890.6022727489470.3921568691730.6956521868710.8961039185520.4772727191450.3663366436960.7065217494960.9078947305680.3636363744740.3564356565480.7065217494960.9210526347160.2840909063820.3465346395970.7065217494960.9078947305680.2272727340460.3465346395970.6956521868710.9078947305680.1818181872370.3465346395970.6813187003140.9078947305680.1590909063820.3564356565480.6593406796460.9342105388640.2045454531910.3700000047680.6483516693120.9736841917040.3218390941620.3899999856950.6555555462841.0\x00\x00\x00\x00\x00\x00\x00\x00\x00\x00\x000.4482758641240.4099999964240.6444444656371.0\x00\x00\x00\x00\x00\x00\x00\x00\x00\x00\x000.5517241358760.4199999868870.6067415475851.0\x00\x00\x00\x00\x00\x00\x00\x00\x00\x00\x000.6091954112050.4242424368860.5280898809430.9480519294740.643678188324'
tb.