cnumpy.core.multiarray
_reconstruct
p1
(cnumpy
ndarray
p2
(I0
tS'b'
tRp3
(I1
(I14
I4
tcnumpy
dtype
p4
(S'S15'
I0
I1
tRp5
(I3
S'|'
NNNI15
I1
I0
tbI00
S'0.06296467036010.05442963168030.133240655065\x000.083343423903\x000.06664931029080.05133121833210.125045850873\x000.08715398609640.07070884108540.05018846690650.121625214815\x000.09154613316060.07469726353880.05021204799410.121598184109\x000.09573964774610.07806760072710.05053606256840.121711328626\x000.100032679737\x000.080449230969\x000.05074271559720.118612371385\x000.105252720416\x000.08169218152760.05106740072370.113530650735\x000.111396767199\x000.08185425400730.05163256078960.105720408261\x000.115092799067\x000.08116906136270.05258591845630.09526801854370.116589009762\x000.07999279350040.05353807657960.08271928131580.117732234299\x000.07875326275830.05414774641390.07103979587550.119586229324\x000.07771265506740.0546467565\x00\x00\x000.06239453330640.121393844485\x000.07686162739990.05567298457030.05738103017210.123291268945\x000.07623405009510.05803538113830.05650960281490.12671969831\x00\x00'
tb.