cnumpy.core.multiarray
_reconstruct
p1
(cnumpy
ndarray
p2
(I0
tS'b'
tRp3
(I1
(I50
I4
tcnumpy
dtype
p4
(S'S15'
I0
I1
tRp5
(I3
S'|'
NNNI15
I1
I0
tbI00
S'0.147022619843\x000.08830299973490.208875373006\x000.26454359293\x00\x000.1470656991\x00\x00\x000.06761166453360.177668854594\x000.266709476709\x000.154366567731\x000.05337443947790.160037785769\x000.269384652376\x000.168098658323\x000.04308248683810.149815782905\x000.277025222778\x000.187772080302\x000.03520150855180.142288684845\x000.284177064896\x000.210353046656\x000.02933786250650.13435998559\x00\x000.280525624752\x000.230138227344\x000.02501092851160.126055896282\x000.275495409966\x000.230138227344\x000.02204364724460.117997534573\x000.275495409966\x000.230138227344\x000.02008469216530.11034680903\x00\x000.275495409966\x000.230138227344\x000.01870894432070.105377055705\x000.275495409966\x000.230138227344\x000.01772908121350.10394692421\x00\x000.275495409966\x000.230138227344\x000.01720285788180.104755446315\x000.275495409966\x000.230138227344\x000.01733959652480.107375442982\x000.275495409966\x000.230138227344\x000.01832369528710.112940765917\x000.275495409966\x000.230138227344\x000.02009405195710.122814781964\x000.275495409966\x000.230138227344\x000.02264054492120.13697707653\x00\x000.275495409966\x000.230138227344\x000.02592974714930.153376311064\x000.275495409966\x000.230138227344\x000.03006226569410.167915254831\x000.275495409966\x000.230138227344\x000.03501716628670.176199570298\x000.275495409966\x000.230138227344\x000.04065283015370.178240001202\x000.275495409966\x000.230138227344\x000.04678731039170.178062707186\x000.275495409966\x000.230138227344\x000.053649649024\x000.178855881095\x000.275495409966\x000.230138227344\x000.06142583861950.182358592749\x000.275495409966\x000.230138227344\x000.07029338926080.187857910991\x000.275495409966\x000.230138227344\x000.07988768070940.196265518665\x000.275495409966\x000.230138227344\x000.08863750845190.208591029048\x000.275495409966\x000.230138227344\x000.09490744024520.225440815091\x000.275495409966\x000.230138227344\x000.09822405129670.242496207356\x000.275495409966\x000.230138227344\x000.09937598556280.257972300053\x000.275495409966\x000.230138227344\x000.098742082715\x000.270143866539\x000.275495409966\x000.230138227344\x000.09345245361330.275951445103\x000.275495409966\x000.230138227344\x000.08156828582290.272699654102\x000.275495409966\x000.230138227344\x000.06691037118430.267547935247\x000.275495409966\x000.230138227344\x000.05479841306810.264002352953\x000.275495409966\x000.230138227344\x000.04670704528690.263372391462\x000.275495409966\x000.230138227344\x000.04150806739930.2669711411\x00\x00\x000.275495409966\x000.230138227344\x000.03804384544490.270016252995\x000.275495409966\x000.230138227344\x000.03558300435540.268747270107\x000.275495409966\x000.230138227344\x000.03391548246150.261452913284\x000.275495409966\x000.230138227344\x000.03332242742180.249896198511\x000.275495409966\x000.230138227344\x000.03336253762250.236065343022\x000.275495409966\x000.230138227344\x000.03362727165220.224103793502\x000.275495409966\x000.230138227344\x000.03362018987540.21362259984\x00\x000.275495409966\x000.230138227344\x000.03310932219030.205691114068\x000.275495409966\x000.230138227344\x000.03253384679560.19964055717\x00\x000.275495409966\x000.122785434127\x000.03289518877860.197382122278\x000.158874511719\x000.101222135127\x000.03529629111290.197726234794\x000.146392002702\x000.08721712976690.04050960764290.198075160384\x000.136467903852\x000.08146473765370.04866890236740.197217509151\x000.128738999367\x000.08034978806970.06012677773830.194856792688\x000.121786206961\x00'
tb.