cnumpy.core.multiarray
_reconstruct
p1
(cnumpy
ndarray
p2
(I0
tS'b'
tRp3
(I1
(I3322
I4
tcnumpy
dtype
p4
(S'S13'
I0
I1
tRp5
(I3
S'|'
NNNI13
I1
I0
tbI00
S'888.289367676814.265258789853.744812012889.934387207891.579345703817.555236816857.034729004860.324707031891.579345703822.49017334\x00843.874938965853.744812012889.934387207822.49017334\x00843.874938965875.129516602886.64440918\x00825.780151367850.454833984868.549621582880.064453125820.845214844848.809875488868.549621582881.709472656817.555236816848.809875488881.709472656880.064453125822.49017334\x00848.809875488865.259643555883.354431152819.200195312848.809875488875.129516602883.354431152815.91027832\x00843.874938965855.389770508881.709472656817.555236816840.584960938857.034729004880.064453125815.91027832\x00834.005004883860.324707031884.999450684817.555236816838.940002441868.549621582884.999450684817.555236816848.809875488871.839599609888.289367676817.555236816852.09979248\x00853.744812012883.354431152815.91027832\x00853.744812012868.549621582881.709472656817.555236816850.454833984871.839599609878.419494629819.200195312840.584960938870.194580078878.419494629814.265258789838.940002441870.194580078878.419494629812.620300293840.584960938873.484558105868.549621582810.975280762837.29498291\x00875.129516602873.484558105812.620300293850.454833984863.614685059873.484558105815.91027832\x00847.164855957865.259643555871.839599609809.330322266843.874938965863.614685059868.549621582807.68536377\x00842.229919434865.259643555870.194580078810.975280762843.874938965873.484558105868.549621582810.975280762845.519897461868.549621582866.904663086812.620300293837.29498291\x00860.324707031871.839599609814.265258789847.164855957860.324707031873.484558105815.91027832\x00845.519897461853.744812012871.839599609819.200195312850.454833984838.940002441873.484558105820.845214844850.454833984847.164855957868.549621582814.265258789840.584960938848.809875488863.614685059810.975280762840.584960938842.229919434865.259643555812.620300293843.874938965860.324707031866.904663086814.265258789847.164855957847.164855957865.259643555814.265258789850.454833984848.809875488866.904663086815.91027832\x00848.809875488861.969726562871.839599609817.555236816843.874938965852.09979248\x00865.259643555817.555236816840.584960938855.389770508861.969726562820.845214844847.164855957868.549621582853.744812012817.555236816843.874938965850.454833984850.454833984815.91027832\x00848.809875488848.809875488850.454833984809.330322266845.519897461850.454833984852.09979248\x00812.620300293843.874938965832.360046387853.744812012817.555236816850.454833984843.874938965857.034729004817.555236816848.809875488843.874938965853.744812012815.91027832\x00847.164855957825.780151367848.809875488814.265258789842.229919434834.005004883847.164855957815.91027832\x00845.519897461838.940002441848.809875488814.265258789848.809875488842.229919434848.809875488809.330322266845.519897461842.229919434845.519897461820.845214844852.09979248\x00832.360046387835.650024414820.845214844852.09979248\x00837.29498291\x00830.715087891824.135131836848.809875488837.29498291\x00842.229919434825.780151367852.09979248\x00842.229919434840.584960938819.200195312852.09979248\x00822.49017334\x00838.940002441824.135131836855.389770508819.200195312840.584960938824.135131836858.679748535827.425109863838.940002441824.135131836853.744812012835.650024414830.715087891817.555236816852.09979248\x00835.650024414830.715087891819.200195312853.744812012825.780151367825.780151367824.135131836857.034729004820.845214844812.620300293820.845214844850.454833984804.395385742809.330322266820.845214844842.229919434794.525512695802.750427246824.135131836845.519897461786.300598145792.880554199819.200195312848.809875488789.590576172787.945556641824.135131836848.809875488776.430725098771.495788574820.845214844842.229919434773.14074707\x00761.625915527817.555236816834.005004883774.785766602763.270874023815.91027832\x00840.584960938773.14074707\x00758.3359375\x00\x00819.200195312838.940002441773.14074707\x00763.270874023824.135131836837.29498291\x00779.720703125753.401000977822.49017334\x00837.29498291\x00755.045959473756.690979004824.135131836842.229919434751.75604248\x00766.560852051825.780151367842.229919434759.980895996758.3359375\x00\x00824.135131836845.519897461764.91583252\x00761.625915527819.200195312842.229919434763.270874023771.495788574824.135131836842.229919434773.14074707\x00774.785766602822.49017334\x00845.519897461774.785766602787.945556641825.780151367843.874938965779.720703125799.460449219822.49017334\x00834.005004883801.105407715801.105407715814.265258789829.070068359804.395385742806.040344238810.975280762838.940002441794.525512695819.200195312814.265258789840.584960938809.330322266817.555236816812.620300293830.715087891810.975280762819.200195312810.975280762830.715087891812.620300293829.070068359806.040344238832.360046387838.940002441834.005004883809.330322266832.360046387847.164855957840.584960938815.91027832\x00837.29498291\x00855.389770508852.09979248\x00815.91027832\x00835.650024414847.164855957855.389770508815.91027832\x00838.940002441845.519897461852.09979248\x00815.91027832\x00845.519897461853.744812012857.034729004807.68536377\x00837.29498291\x00838.940002441860.324707031807.68536377\x00827.425109863863.614685059861.969726562807.68536377\x00829.070068359860.324707031866.904663086806.040344238820.845214844847.164855957871.839599609812.620300293830.715087891848.809875488870.194580078810.975280762840.584960938848.809875488871.839599609812.620300293829.070068359855.389770508873.484558105812.620300293830.715087891873.484558105871.839599609810.975280762830.715087891881.709472656868.549621582807.68536377\x00830.715087891861.969726562868.549621582807.68536377\x00832.360046387870.194580078866.904663086807.68536377\x00837.29498291\x00868.549621582865.259643555807.68536377\x00840.584960938853.744812012863.614685059810.975280762832.360046387858.679748535866.904663086809.330322266834.005004883863.614685059866.904663086809.330322266835.650024414875.129516602873.484558105817.555236816825.780151367883.354431152866.904663086820.845214844834.005004883860.324707031863.614685059814.265258789848.809875488865.259643555866.904663086810.975280762838.940002441866.904663086865.259643555809.330322266840.584960938857.034729004868.549621582807.68536377\x00842.229919434860.324707031870.194580078806.040344238842.229919434861.969726562870.194580078809.330322266830.715087891865.259643555870.194580078812.620300293824.135131836870.194580078863.614685059809.330322266835.650024414868.549621582857.034729004812.620300293834.005004883865.259643555853.744812012801.105407715837.29498291\x00865.259643555857.034729004801.105407715838.940002441858.679748535866.904663086809.330322266830.715087891866.904663086863.614685059812.620300293825.780151367865.259643555863.614685059812.620300293835.650024414858.679748535870.194580078809.330322266845.519897461857.034729004873.484558105809.330322266838.940002441855.389770508875.129516602809.330322266835.650024414868.549621582875.129516602814.265258789835.650024414857.034729004868.549621582807.68536377\x00837.29498291\x00863.614685059870.194580078806.040344238838.940002441863.614685059870.194580078809.330322266840.584960938860.324707031860.324707031807.68536377\x00827.425109863866.904663086860.324707031814.265258789825.780151367863.614685059853.744812012814.265258789835.650024414863.614685059853.744812012810.975280762837.29498291\x00863.614685059855.389770508809.330322266825.780151367866.904663086855.389770508809.330322266815.91027832\x00855.389770508857.034729004807.68536377\x00835.650024414860.324707031858.679748535806.040344238843.874938965861.969726562861.969726562809.330322266842.229919434865.259643555860.324707031817.555236816838.940002441865.259643555860.324707031814.265258789830.715087891860.324707031861.969726562815.91027832\x00838.940002441857.034729004860.324707031814.265258789843.874938965860.324707031855.389770508807.68536377\x00838.940002441861.969726562858.679748535817.555236816827.425109863855.389770508861.969726562815.91027832\x00834.005004883870.194580078858.679748535820.845214844835.650024414853.744812012866.904663086827.425109863840.584960938858.679748535863.614685059822.49017334\x00832.360046387866.904663086860.324707031822.49017334\x00830.715087891863.614685059860.324707031817.555236816840.584960938857.034729004853.744812012814.265258789847.164855957852.09979248\x00850.454833984814.265258789842.229919434855.389770508857.034729004820.845214844834.005004883866.904663086857.034729004827.425109863842.229919434858.679748535848.809875488825.780151367842.229919434850.454833984848.809875488825.780151367835.650024414843.874938965858.679748535820.845214844837.29498291\x00855.389770508858.679748535817.555236816842.229919434873.484558105865.259643555817.555236816847.164855957857.034729004861.969726562815.91027832\x00853.744812012857.034729004855.389770508814.265258789840.584960938863.614685059857.034729004824.135131836835.650024414868.549621582855.389770508824.135131836838.940002441875.129516602845.519897461815.91027832\x00843.874938965865.259643555842.229919434814.265258789838.940002441855.389770508845.519897461817.555236816835.650024414845.519897461847.164855957824.135131836837.29498291\x00850.454833984847.164855957822.49017334\x00840.584960938840.584960938848.809875488820.845214844842.229919434845.519897461850.454833984820.845214844838.940002441857.034729004843.874938965820.845214844834.005004883855.389770508842.229919434819.200195312834.005004883840.584960938838.940002441820.845214844835.650024414838.940002441830.715087891824.135131836834.005004883830.715087891829.070068359819.200195312837.29498291\x00825.780151367820.845214844822.49017334\x00832.360046387837.29498291\x00814.265258789824.135131836834.005004883820.845214844807.68536377\x00825.780151367837.29498291\x00822.49017334\x00797.815490723832.360046387832.360046387802.750427246779.720703125830.715087891834.005004883789.590576172766.560852051830.715087891834.005004883783.010620117759.980895996832.360046387830.715087891759.980895996753.401000977835.650024414832.360046387751.75604248\x00743.53112793\x00832.360046387832.360046387745.176086426732.016235352834.005004883825.780151367725.436340332725.436340332838.940002441820.845214844720.501403809713.921447754830.715087891820.845214844728.726318359713.921447754830.715087891830.715087891707.341552734713.921447754830.715087891830.715087891707.341552734708.98651123\x00827.425109863852.09979248\x00712.276489258710.631530762830.715087891848.809875488722.146362305713.921447754829.070068359834.005004883732.016235352725.436340332824.135131836834.005004883759.980895996733.661254883822.49017334\x00825.780151367745.176086426740.241149902825.780151367825.780151367756.690979004743.53112793\x00822.49017334\x00843.874938965746.821105957750.111022949820.845214844857.034729004746.821105957758.3359375\x00\x00820.845214844845.519897461759.980895996778.075683594815.91027832\x00848.809875488771.495788574784.655639648812.620300293855.389770508787.945556641794.525512695812.620300293855.389770508807.68536377\x00810.975280762815.91027832\x00850.454833984807.68536377\x00814.265258789812.620300293847.164855957810.975280762815.91027832\x00809.330322266830.715087891838.940002441817.555236816806.040344238825.780151367829.070068359829.070068359804.395385742850.454833984837.29498291\x00830.715087891804.395385742853.744812012837.29498291\x00840.584960938802.750427246847.164855957837.29498291\x00850.454833984797.815490723840.584960938852.09979248\x00855.389770508799.460449219825.780151367865.259643555863.614685059801.105407715824.135131836861.969726562870.194580078799.460449219835.650024414852.09979248\x00871.839599609802.750427246837.29498291\x00861.969726562871.839599609797.815490723837.29498291\x00880.064453125878.419494629801.105407715850.454833984865.259643555883.354431152802.750427246847.164855957875.129516602883.354431152799.460449219850.454833984880.064453125886.64440918\x00806.040344238843.874938965875.129516602886.64440918\x00807.68536377\x00838.940002441884.999450684881.709472656804.395385742848.809875488883.354431152884.999450684802.750427246835.650024414901.44921875\x00888.289367676806.040344238832.360046387891.579345703886.64440918\x00809.330322266835.650024414884.999450684889.934387207804.395385742835.650024414876.774536133881.709472656799.460449219848.809875488868.549621582884.999450684807.68536377\x00853.744812012888.289367676883.354431152812.620300293842.229919434899.804260254880.064453125810.975280762838.940002441889.934387207886.64440918\x00810.975280762834.005004883876.774536133880.064453125804.395385742840.584960938876.774536133884.999450684809.330322266850.454833984876.774536133889.934387207810.975280762850.454833984880.064453125888.289367676804.395385742842.229919434886.64440918\x00886.64440918\x00804.395385742840.584960938888.289367676875.129516602806.040344238845.519897461876.774536133878.419494629806.040344238837.29498291\x00876.774536133875.129516602810.975280762829.070068359884.999450684878.419494629810.975280762834.005004883878.419494629866.904663086810.975280762847.164855957891.579345703861.969726562806.040344238850.454833984880.064453125857.034729004807.68536377\x00845.519897461865.259643555861.969726562807.68536377\x00837.29498291\x00865.259643555857.034729004809.330322266838.940002441845.519897461845.519897461812.620300293842.229919434858.679748535835.650024414812.620300293845.519897461855.389770508820.845214844814.265258789842.229919434848.809875488812.620300293820.845214844840.584960938835.650024414797.815490723822.49017334\x00837.29498291\x00810.975280762781.365661621822.49017334\x00834.005004883791.235534668771.495788574822.49017334\x00837.29498291\x00786.300598145761.625915527824.135131836837.29498291\x00778.075683594753.401000977830.715087891830.715087891773.14074707\x00751.75604248\x00834.005004883830.715087891758.3359375\x00\x00733.661254883834.005004883835.650024414758.3359375\x00\x00725.436340332830.715087891840.584960938730.371276855740.241149902834.005004883843.874938965743.53112793\x00738.596191406834.005004883827.425109863759.980895996745.176086426832.360046387840.584960938758.3359375\x00\x00753.401000977829.070068359863.614685059768.205810547763.270874023824.135131836855.389770508768.205810547771.495788574825.780151367860.324707031761.625915527784.655639648827.425109863847.164855957781.365661621783.010620117824.135131836835.650024414799.460449219789.590576172822.49017334\x00850.454833984809.330322266796.170471191810.975280762860.324707031799.460449219810.975280762807.68536377\x00866.904663086817.555236816822.49017334\x00810.975280762873.484558105830.715087891827.425109863809.330322266860.324707031835.650024414853.744812012809.330322266835.650024414875.129516602863.614685059812.620300293832.360046387865.259643555861.969726562815.91027832\x00860.324707031855.389770508875.129516602812.620300293857.034729004878.419494629871.839599609817.555236816852.09979248\x00878.419494629876.774536133817.555236816843.874938965881.709472656880.064453125809.330322266848.809875488871.839599609881.709472656812.620300293853.744812012883.354431152889.934387207815.91027832\x00857.034729004883.354431152893.224304199812.620300293857.034729004893.224304199893.224304199812.620300293838.940002441904.739196777884.999450684812.620300293850.454833984889.934387207893.224304199812.620300293857.034729004901.44921875\x00889.934387207814.265258789847.164855957908.029174805888.289367676824.135131836822.49017334\x00896.514282227883.354431152817.555236816834.005004883889.934387207881.709472656810.975280762870.194580078888.289367676886.64440918\x00812.620300293870.194580078888.289367676889.934387207819.200195312871.839599609893.224304199888.289367676819.200195312850.454833984893.224304199886.64440918\x00817.555236816827.425109863903.094238281888.289367676817.555236816852.09979248\x00891.579345703884.999450684817.555236816858.679748535881.709472656883.354431152817.555236816843.874938965889.934387207876.774536133815.91027832\x00840.584960938881.709472656880.064453125815.91027832\x00842.229919434909.674133301880.064453125812.620300293835.650024414912.964111328881.709472656822.49017334\x00832.360046387904.739196777880.064453125819.200195312852.09979248\x00891.579345703881.709472656815.91027832\x00852.09979248\x00870.194580078884.999450684817.555236816838.940002441871.839599609883.354431152817.555236816829.070068359886.64440918\x00886.64440918\x00819.200195312832.360046387876.774536133878.419494629807.68536377\x00848.809875488871.839599609873.484558105817.555236816853.744812012868.549621582873.484558105820.845214844845.519897461865.259643555873.484558105824.135131836834.005004883870.194580078876.774536133830.715087891835.650024414865.259643555870.194580078822.49017334\x00835.650024414863.614685059865.259643555820.845214844838.940002441865.259643555865.259643555820.845214844843.874938965868.549621582850.454833984817.555236816845.519897461866.904663086840.584960938819.200195312843.874938965840.584960938830.715087891824.135131836838.940002441829.070068359822.49017334\x00825.780151367842.229919434835.650024414802.750427246822.49017334\x00837.29498291\x00809.330322266787.945556641810.975280762842.229919434807.68536377\x00791.235534668822.49017334\x00840.584960938806.040344238779.720703125838.940002441830.715087891766.560852051755.045959473835.650024414842.229919434753.401000977730.371276855834.005004883835.650024414736.951171875725.436340332834.005004883824.135131836750.111022949720.501403809835.650024414815.91027832\x00745.176086426723.791320801838.940002441819.200195312713.921447754722.146362305837.29498291\x00832.360046387710.631530762713.921447754820.845214844847.164855957707.341552734732.016235352830.715087891840.584960938732.016235352748.466064453843.874938965819.200195312756.690979004753.401000977829.070068359815.91027832\x00743.53112793\x00751.75604248\x00829.070068359820.845214844738.596191406756.690979004819.200195312837.29498291\x00736.951171875771.495788574822.49017334\x00852.09979248\x00761.625915527781.365661621830.715087891834.005004883771.495788574806.040344238820.845214844837.29498291\x00786.300598145820.845214844825.780151367822.49017334\x00797.815490723825.780151367834.005004883809.330322266820.845214844820.845214844829.070068359822.49017334\x00825.780151367825.780151367827.425109863825.780151367838.940002441838.940002441824.135131836809.330322266842.229919434845.519897461824.135131836810.975280762838.940002441852.09979248\x00822.49017334\x00842.229919434855.389770508852.09979248\x00817.555236816834.005004883847.164855957857.034729004812.620300293830.715087891855.389770508860.324707031815.91027832\x00817.555236816865.259643555863.614685059819.200195312807.68536377\x00875.129516602868.549621582817.555236816822.49017334\x00881.709472656868.549621582812.620300293834.005004883861.969726562873.484558105812.620300293825.780151367857.034729004878.419494629812.620300293824.135131836868.549621582878.419494629812.620300293829.070068359888.289367676878.419494629809.330322266820.845214844881.709472656880.064453125809.330322266825.780151367873.484558105884.999450684809.330322266835.650024414886.64440918\x00880.064453125806.040344238837.29498291\x00863.614685059888.289367676807.68536377\x00835.650024414883.354431152896.514282227812.620300293825.780151367884.999450684891.579345703809.330322266830.715087891891.579345703884.999450684804.395385742838.940002441906.384155273881.709472656806.040344238834.005004883883.354431152883.354431152812.620300293829.070068359871.839599609881.709472656810.975280762834.005004883875.129516602884.999450684809.330322266843.874938965880.064453125888.289367676810.975280762838.940002441886.64440918\x00889.934387207810.975280762834.005004883875.129516602888.289367676810.975280762842.229919434884.999450684881.709472656815.91027832\x00840.584960938901.44921875\x00876.774536133809.330322266840.584960938891.579345703875.129516602810.975280762843.874938965889.934387207876.774536133812.620300293838.940002441875.129516602875.129516602814.265258789840.584960938868.549621582871.839599609815.91027832\x00842.229919434876.774536133865.259643555817.555236816834.005004883863.614685059866.904663086819.200195312834.005004883853.744812012858.679748535822.49017334\x00843.874938965865.259643555850.454833984824.135131836845.519897461861.969726562843.874938965820.845214844843.874938965850.454833984825.780151367820.845214844837.29498291\x00835.650024414820.845214844824.135131836847.164855957825.780151367812.620300293829.070068359837.29498291\x00825.780151367806.040344238848.809875488830.715087891819.200195312768.205810547842.229919434838.940002441789.590576172755.045959473842.229919434838.940002441763.270874023738.596191406847.164855957838.940002441751.75604248\x00708.98651123\x00843.874938965835.650024414720.501403809712.276489258850.454833984824.135131836708.98651123\x00694.18170166\x00852.09979248\x00820.845214844702.406616211687.601806641848.809875488830.715087891685.956787109687.601806641845.519897461830.715087891684.311828613684.311828613847.164855957819.200195312674.441955566677.731872559840.584960938819.200195312662.927062988681.021850586843.874938965819.200195312672.796936035689.246765137848.809875488820.845214844689.246765137687.601806641845.519897461822.49017334\x00702.406616211699.116638184848.809875488819.200195312690.891723633700.76159668\x00845.519897461817.555236816699.116638184692.536743164842.229919434829.070068359697.471679688695.826660156840.584960938834.005004883694.18170166\x00695.826660156840.584960938830.715087891690.891723633705.696594238838.940002441832.360046387697.471679688710.631530762834.005004883830.715087891687.601806641712.276489258830.715087891829.070068359689.246765137702.406616211825.780151367829.070068359707.341552734710.631530762822.49017334\x00832.360046387713.921447754722.146362305822.49017334\x00835.650024414727.081298828717.211425781819.200195312835.650024414725.436340332715.566467285824.135131836832.360046387717.211425781722.146362305820.845214844842.229919434732.016235352712.276489258819.200195312842.229919434720.501403809725.436340332817.555236816843.874938965725.436340332730.371276855814.265258789843.874938965722.146362305730.371276855817.555236816842.229919434722.146362305735.306213379815.91027832\x00845.519897461740.241149902736.951171875815.91027832\x00837.29498291\x00733.661254883745.176086426819.200195312832.360046387738.596191406740.241149902817.555236816837.29498291\x00756.690979004743.53112793\x00817.555236816843.874938965756.690979004736.951171875810.975280762848.809875488753.401000977751.75604248\x00815.91027832\x00835.650024414758.3359375\x00\x00759.980895996812.620300293830.715087891753.401000977761.625915527812.620300293838.940002441768.205810547768.205810547815.91027832\x00845.519897461776.430725098766.560852051815.91027832\x00840.584960938773.14074707\x00773.14074707\x00812.620300293843.874938965773.14074707\x00771.495788574814.265258789840.584960938766.560852051771.495788574815.91027832\x00834.005004883783.010620117766.560852051815.91027832\x00837.29498291\x00779.720703125769.850830078815.91027832\x00837.29498291\x00779.720703125778.075683594819.200195312835.650024414779.720703125773.14074707\x00814.265258789840.584960938766.560852051783.010620117814.265258789847.164855957784.655639648783.010620117812.620300293842.229919434799.460449219789.590576172810.975280762847.164855957802.750427246794.525512695817.555236816843.874938965801.105407715796.170471191822.49017334\x00842.229919434781.365661621792.880554199820.845214844847.164855957797.815490723787.945556641817.555236816845.519897461799.460449219792.880554199820.845214844838.940002441809.330322266789.590576172820.845214844838.940002441809.330322266791.235534668814.265258789837.29498291\x00806.040344238791.235534668814.265258789838.940002441832.360046387792.880554199810.975280762845.519897461812.620300293801.105407715807.68536377\x00845.519897461807.68536377\x00802.750427246809.330322266853.744812012801.105407715799.460449219810.975280762847.164855957786.300598145804.395385742812.620300293847.164855957807.68536377\x00791.235534668807.68536377\x00843.874938965797.815490723799.460449219806.040344238847.164855957799.460449219807.68536377\x00810.975280762847.164855957809.330322266810.975280762814.265258789843.874938965807.68536377\x00810.975280762810.975280762853.744812012810.975280762802.750427246807.68536377\x00845.519897461807.68536377\x00802.750427246809.330322266848.809875488812.620300293802.750427246810.975280762847.164855957820.845214844814.265258789815.91027832\x00845.519897461827.425109863807.68536377\x00814.265258789850.454833984819.200195312804.395385742809.330322266847.164855957810.975280762815.91027832\x00815.91027832\x00847.164855957832.360046387814.265258789810.975280762845.519897461817.555236816817.555236816807.68536377\x00845.519897461820.845214844810.975280762806.040344238843.874938965825.780151367815.91027832\x00810.975280762845.519897461817.555236816809.330322266809.330322266848.809875488825.780151367807.68536377\x00806.040344238845.519897461830.715087891812.620300293809.330322266838.940002441824.135131836804.395385742807.68536377\x00842.229919434815.91027832\x00814.265258789814.265258789843.874938965827.425109863829.070068359815.91027832\x00845.519897461824.135131836819.200195312812.620300293853.744812012829.070068359815.91027832\x00812.620300293843.874938965827.425109863822.49017334\x00809.330322266850.454833984825.780151367807.68536377\x00807.68536377\x00852.09979248\x00817.555236816810.975280762804.395385742857.034729004812.620300293810.975280762801.105407715848.809875488825.780151367817.555236816804.395385742843.874938965827.425109863822.49017334\x00809.330322266847.164855957834.005004883825.780151367806.040344238848.809875488843.874938965822.49017334\x00804.395385742850.454833984830.715087891817.555236816804.395385742843.874938965830.715087891825.780151367799.460449219843.874938965832.360046387825.780151367807.68536377\x00842.229919434832.360046387827.425109863812.620300293852.09979248\x00848.809875488827.425109863804.395385742845.519897461845.519897461829.070068359810.975280762843.874938965837.29498291\x00824.135131836807.68536377\x00847.164855957830.715087891829.070068359810.975280762852.09979248\x00822.49017334\x00840.584960938819.200195312847.164855957829.070068359842.229919434814.265258789843.874938965827.425109863838.940002441809.330322266845.519897461834.005004883843.874938965812.620300293842.229919434837.29498291\x00845.519897461812.620300293845.519897461834.005004883847.164855957810.975280762840.584960938848.809875488852.09979248\x00812.620300293832.360046387850.454833984838.940002441807.68536377\x00840.584960938848.809875488834.005004883806.040344238848.809875488850.454833984845.519897461809.330322266848.809875488845.519897461840.584960938809.330322266845.519897461855.389770508838.940002441806.040344238840.584960938855.389770508850.454833984809.330322266842.229919434857.034729004848.809875488804.395385742842.229919434860.324707031850.454833984810.975280762845.519897461857.034729004860.324707031825.780151367842.229919434865.259643555870.194580078822.49017334\x00837.29498291\x00873.484558105873.484558105820.845214844829.070068359875.129516602876.774536133822.49017334\x00824.135131836889.934387207883.354431152819.200195312832.360046387888.289367676903.094238281820.845214844830.715087891901.44921875\x00912.964111328830.715087891822.49017334\x00896.514282227922.833984375829.070068359827.425109863911.319091797924.478942871830.715087891812.620300293921.188964844919.544006348832.360046387830.715087891908.029174805931.058898926829.070068359845.519897461921.188964844926.123962402827.425109863835.650024414922.833984375940.928771973837.29498291\x00837.29498291\x00924.478942871945.863708496837.29498291\x00830.715087891947.508666992950.79864502\x00829.070068359812.620300293947.508666992962.313476562827.425109863804.395385742945.863708496959.02355957\x00824.135131836827.425109863955.733581543973.828369141820.845214844832.360046387954.088623047973.828369141830.715087891830.715087891954.088623047975.473327637835.650024414829.070068359965.60345459\x00973.828369141832.360046387820.845214844973.828369141963.958496094827.425109863814.265258789962.313476562973.828369141824.135131836824.135131836968.893432617975.473327637820.845214844820.845214844970.538391113982.053283691822.49017334\x00815.91027832\x00963.958496094985.343200684824.135131836815.91027832\x00967.248413086985.343200684820.845214844810.975280762965.60345459\x00980.40826416\x00820.845214844817.555236816960.668518066982.053283691820.845214844824.135131836980.40826416\x00983.698242188820.845214844835.650024414977.118347168978.763305664824.135131836825.780151367972.183410645972.183410645822.49017334\x00814.265258789968.893432617968.893432617822.49017334\x00820.845214844975.473327637960.668518066820.845214844832.360046387955.733581543960.668518066815.91027832\x00843.874938965960.668518066962.313476562822.49017334\x00843.874938965947.508666992962.313476562822.49017334\x00837.29498291\x00932.703857422955.733581543820.845214844834.005004883949.153686523955.733581543817.555236816825.780151367942.573730469947.508666992817.555236816838.940002441950.79864502\x00940.928771973815.91027832\x00838.940002441952.443603516947.508666992822.49017334\x00834.005004883940.928771973940.928771973819.200195312837.29498291\x00937.638793945935.993835449815.91027832\x00832.360046387939.283752441935.993835449817.555236816834.005004883939.283752441935.993835449817.555236816829.070068359940.928771973931.058898926820.845214844838.940002441935.993835449927.768920898819.200195312847.164855957931.058898926926.123962402817.555236816840.584960938926.123962402921.188964844819.200195312838.940002441924.478942871927.768920898817.555236816829.070068359922.833984375924.478942871819.200195312825.780151367924.478942871924.478942871822.49017334\x00835.650024414922.833984375916.25402832\x00822.49017334\x00845.519897461921.188964844921.188964844822.49017334\x00835.650024414919.544006348919.544006348824.135131836824.135131836926.123962402908.029174805820.845214844835.650024414917.899047852908.029174805824.135131836835.650024414919.544006348906.384155273824.135131836838.940002441921.188964844903.094238281817.555236816843.874938965901.44921875\x00903.094238281819.200195312829.070068359906.384155273896.514282227817.555236816824.135131836909.674133301896.514282227814.265258789827.425109863908.029174805896.514282227817.555236816838.940002441904.739196777886.64440918\x00817.555236816829.070068359894.86932373\x00881.709472656815.91027832\x00832.360046387886.64440918\x00883.354431152819.200195312835.650024414883.354431152883.354431152814.265258789837.29498291\x00908.029174805888.289367676810.975280762835.650024414889.934387207886.64440918\x00809.330322266838.940002441889.934387207881.709472656809.330322266837.29498291\x00888.289367676884.999450684812.620300293843.874938965896.514282227878.419494629817.555236816840.584960938894.86932373\x00881.709472656814.265258789840.584960938873.484558105881.709472656817.555236816835.650024414881.709472656871.839599609822.49017334\x00845.519897461875.129516602873.484558105817.555236816852.09979248\x00884.999450684871.839599609812.620300293853.744812012889.934387207871.839599609814.265258789847.164855957873.484558105875.129516602815.91027832\x00842.229919434868.549621582871.839599609822.49017334\x00837.29498291\x00881.709472656865.259643555820.845214844842.229919434880.064453125868.549621582819.200195312847.164855957871.839599609863.614685059815.91027832\x00843.874938965868.549621582858.679748535814.265258789842.229919434868.549621582861.969726562819.200195312838.940002441870.194580078861.969726562824.135131836838.940002441875.129516602868.549621582824.135131836837.29498291\x00868.549621582858.679748535817.555236816843.874938965866.904663086848.809875488819.200195312840.584960938861.969726562848.809875488817.555236816842.229919434843.874938965845.519897461819.200195312842.229919434852.09979248\x00850.454833984819.200195312842.229919434848.809875488848.809875488814.265258789842.229919434858.679748535857.034729004819.200195312842.229919434865.259643555857.034729004822.49017334\x00847.164855957863.614685059850.454833984820.845214844840.584960938857.034729004847.164855957819.200195312842.229919434847.164855957842.229919434820.845214844840.584960938845.519897461829.070068359820.845214844840.584960938845.519897461830.715087891819.200195312835.650024414842.229919434820.845214844817.555236816842.229919434837.29498291\x00810.975280762827.425109863837.29498291\x00835.650024414801.105407715829.070068359835.650024414807.68536377\x00778.075683594827.425109863835.650024414786.300598145769.850830078832.360046387827.425109863773.14074707\x00758.3359375\x00\x00835.650024414834.005004883756.690979004745.176086426840.584960938832.360046387758.3359375\x00\x00728.726318359837.29498291\x00830.715087891746.821105957722.146362305843.874938965820.845214844713.921447754705.696594238845.519897461820.845214844713.921447754708.98651123\x00842.229919434824.135131836705.696594238704.051574707840.584960938824.135131836710.631530762700.76159668\x00838.940002441829.070068359695.826660156708.98651123\x00838.940002441825.780151367697.471679688715.566467285840.584960938824.135131836717.211425781720.501403809842.229919434819.200195312720.501403809732.016235352834.005004883820.845214844736.951171875750.111022949842.229919434825.780151367743.53112793\x00758.3359375\x00\x00837.29498291\x00829.070068359763.270874023769.850830078835.650024414835.650024414771.495788574784.655639648834.005004883837.29498291\x00787.945556641802.750427246830.715087891835.650024414806.040344238810.975280762824.135131836840.584960938809.330322266815.91027832\x00815.91027832\x00848.809875488817.555236816817.555236816814.265258789847.164855957819.200195312814.265258789815.91027832\x00850.454833984814.265258789832.360046387815.91027832\x00842.229919434832.360046387842.229919434819.200195312838.940002441855.389770508850.454833984817.555236816843.874938965861.969726562858.679748535817.555236816835.650024414881.709472656866.904663086820.845214844838.940002441880.064453125873.484558105817.555236816838.940002441852.09979248\x00875.129516602817.555236816843.874938965866.904663086875.129516602810.975280762845.519897461876.774536133880.064453125810.975280762847.164855957884.999450684878.419494629810.975280762835.650024414883.354431152880.064453125812.620300293838.940002441861.969726562880.064453125810.975280762843.874938965866.904663086876.774536133809.330322266840.584960938896.514282227880.064453125809.330322266838.940002441899.804260254881.709472656807.68536377\x00835.650024414889.934387207880.064453125807.68536377\x00834.005004883884.999450684883.354431152807.68536377\x00825.780151367884.999450684880.064453125801.105407715832.360046387884.999450684883.354431152801.105407715834.005004883893.224304199880.064453125794.525512695842.229919434894.86932373\x00868.549621582796.170471191852.09979248\x00880.064453125875.129516602804.395385742847.164855957891.579345703876.774536133807.68536377\x00847.164855957893.224304199876.774536133810.975280762840.584960938898.159240723886.64440918\x00814.265258789838.940002441893.224304199884.999450684809.330322266834.005004883884.999450684883.354431152810.975280762830.715087891876.774536133883.354431152810.975280762834.005004883883.354431152880.064453125809.330322266838.940002441884.999450684876.774536133814.265258789847.164855957878.419494629886.64440918\x00815.91027832\x00842.229919434886.64440918\x00881.709472656815.91027832\x00843.874938965886.64440918\x00876.774536133814.265258789840.584960938888.289367676876.774536133814.265258789835.650024414891.579345703868.549621582815.91027832\x00838.940002441884.999450684873.484558105814.265258789842.229919434880.064453125870.194580078812.620300293845.519897461866.904663086870.194580078814.265258789843.874938965860.324707031868.549621582812.620300293838.940002441875.129516602870.194580078812.620300293838.940002441881.709472656870.194580078812.620300293842.229919434881.709472656868.549621582815.91027832\x00840.584960938878.419494629875.129516602822.49017334\x00835.650024414878.419494629866.904663086815.91027832\x00830.715087891878.419494629865.259643555814.265258789835.650024414880.064453125861.969726562812.620300293845.519897461876.774536133863.614685059812.620300293847.164855957865.259643555871.839599609814.265258789843.874938965863.614685059873.484558105809.330322266842.229919434868.549621582875.129516602810.975280762834.005004883870.194580078876.774536133812.620300293825.780151367876.774536133873.484558105815.91027832\x00837.29498291\x00868.549621582871.839599609817.555236816847.164855957870.194580078858.679748535806.040344238843.874938965865.259643555855.389770508809.330322266843.874938965870.194580078845.519897461812.620300293837.29498291\x00860.324707031847.164855957806.040344238829.070068359852.09979248\x00858.679748535810.975280762830.715087891842.229919434868.549621582817.555236816830.715087891853.744812012850.454833984809.330322266837.29498291\x00847.164855957835.650024414809.330322266834.005004883840.584960938845.519897461804.395385742838.940002441861.969726562825.780151367799.460449219845.519897461847.164855957835.650024414801.105407715842.229919434860.324707031829.070068359801.105407715855.389770508855.389770508815.91027832\x00797.815490723852.09979248\x00852.09979248\x00832.360046387794.525512695848.809875488848.809875488848.809875488797.815490723840.584960938847.164855957845.519897461794.525512695847.164855957857.034729004843.874938965801.105407715853.744812012866.904663086852.09979248\x00807.68536377\x00850.454833984870.194580078852.09979248\x00807.68536377\x00845.519897461875.129516602860.324707031810.975280762843.874938965860.324707031857.034729004809.330322266838.940002441861.969726562843.874938965807.68536377\x00834.005004883861.969726562850.454833984809.330322266848.809875488870.194580078847.164855957810.975280762848.809875488868.549621582853.744812012807.68536377\x00847.164855957863.614685059855.389770508812.620300293847.164855957860.324707031840.584960938809.330322266848.809875488861.969726562848.809875488799.460449219847.164855957853.744812012848.809875488806.040344238852.09979248\x00848.809875488848.809875488809.330322266855.389770508853.744812012857.034729004819.200195312843.874938965857.034729004853.744812012820.845214844845.519897461870.194580078850.454833984814.265258789838.940002441871.839599609848.809875488810.975280762837.29498291\x00870.194580078848.809875488812.620300293848.809875488868.549621582843.874938965814.265258789853.744812012875.129516602848.809875488810.975280762852.09979248\x00880.064453125843.874938965814.265258789843.874938965858.679748535847.164855957815.91027832\x00845.519897461857.034729004850.454833984812.620300293848.809875488860.324707031850.454833984812.620300293840.584960938848.809875488848.809875488815.91027832\x00838.940002441868.549621582845.519897461814.265258789832.360046387863.614685059845.519897461819.200195312840.584960938847.164855957840.584960938815.91027832\x00850.454833984853.744812012840.584960938815.91027832\x00845.519897461855.389770508838.940002441815.91027832\x00842.229919434852.09979248\x00829.070068359812.620300293845.519897461850.454833984835.650024414812.620300293847.164855957852.09979248\x00838.940002441817.555236816847.164855957861.969726562840.584960938814.265258789843.874938965861.969726562843.874938965819.200195312840.584960938865.259643555834.005004883817.555236816835.650024414857.034729004840.584960938814.265258789837.29498291\x00853.744812012835.650024414815.91027832\x00838.940002441878.419494629845.519897461814.265258789840.584960938840.584960938845.519897461812.620300293840.584960938847.164855957837.29498291\x00810.975280762843.874938965848.809875488843.874938965814.265258789848.809875488835.650024414845.519897461812.620300293842.229919434868.549621582840.584960938812.620300293837.29498291\x00852.09979248\x00840.584960938812.620300293835.650024414868.549621582837.29498291\x00814.265258789834.005004883850.454833984842.229919434814.265258789835.650024414855.389770508840.584960938812.620300293834.005004883857.034729004840.584960938807.68536377\x00842.229919434847.164855957838.940002441806.040344238840.584960938850.454833984838.940002441807.68536377\x00832.360046387843.874938965847.164855957815.91027832\x00830.715087891837.29498291\x00840.584960938810.975280762822.49017334\x00840.584960938835.650024414809.330322266829.070068359837.29498291\x00832.360046387806.040344238829.070068359830.715087891835.650024414807.68536377\x00829.070068359857.034729004837.29498291\x00814.265258789835.650024414852.09979248\x00837.29498291\x00815.91027832\x00834.005004883845.519897461834.005004883815.91027832\x00830.715087891853.744812012837.29498291\x00812.620300293825.780151367838.940002441837.29498291\x00809.330322266829.070068359847.164855957834.005004883809.330322266840.584960938837.29498291\x00837.29498291\x00810.975280762835.650024414837.29498291\x00842.229919434810.975280762834.005004883845.519897461838.940002441814.265258789838.940002441863.614685059837.29498291\x00819.200195312840.584960938853.744812012838.940002441815.91027832\x00842.229919434842.229919434832.360046387814.265258789837.29498291\x00840.584960938838.940002441814.265258789840.584960938842.229919434838.940002441815.91027832\x00838.940002441855.389770508840.584960938815.91027832\x00835.650024414852.09979248\x00842.229919434814.265258789830.715087891848.809875488837.29498291\x00815.91027832\x00824.135131836847.164855957840.584960938817.555236816835.650024414837.29498291\x00834.005004883819.200195312837.29498291\x00834.005004883834.005004883812.620300293835.650024414834.005004883838.940002441807.68536377\x00842.229919434829.070068359840.584960938817.555236816840.584960938840.584960938843.874938965822.49017334\x00843.874938965843.874938965837.29498291\x00817.555236816838.940002441847.164855957829.070068359814.265258789840.584960938835.650024414832.360046387815.91027832\x00845.519897461842.229919434834.005004883817.555236816838.940002441837.29498291\x00840.584960938817.555236816843.874938965845.519897461837.29498291\x00815.91027832\x00838.940002441857.034729004835.650024414814.265258789829.070068359840.584960938835.650024414812.620300293830.715087891843.874938965834.005004883815.91027832\x00842.229919434843.874938965843.874938965817.555236816840.584960938840.584960938834.005004883820.845214844837.29498291\x00847.164855957834.005004883822.49017334\x00837.29498291\x00845.519897461838.940002441819.200195312840.584960938848.809875488832.360046387815.91027832\x00848.809875488842.229919434838.940002441814.265258789842.229919434845.519897461834.005004883817.555236816838.940002441850.454833984830.715087891817.555236816837.29498291\x00825.780151367830.715087891817.555236816842.229919434837.29498291\x00835.650024414817.555236816843.874938965838.940002441837.29498291\x00812.620300293834.005004883850.454833984834.005004883810.975280762827.425109863850.454833984835.650024414814.265258789838.940002441848.809875488838.940002441810.975280762840.584960938834.005004883838.940002441809.330322266834.005004883825.780151367838.940002441812.620300293840.584960938840.584960938832.360046387815.91027832\x00842.229919434852.09979248\x00835.650024414817.555236816842.229919434847.164855957832.360046387819.200195312842.229919434847.164855957835.650024414810.975280762832.360046387860.324707031840.584960938815.91027832\x00842.229919434840.584960938840.584960938820.845214844835.650024414853.744812012847.164855957815.91027832\x00832.360046387840.584960938830.715087891809.330322266838.940002441834.005004883824.135131836809.330322266838.940002441840.584960938835.650024414814.265258789840.584960938843.874938965835.650024414815.91027832\x00834.005004883843.874938965843.874938965815.91027832\x00835.650024414840.584960938837.29498291\x00810.975280762840.584960938857.034729004835.650024414812.620300293840.584960938850.454833984832.360046387817.555236816838.940002441843.874938965835.650024414819.200195312835.650024414835.650024414834.005004883819.200195312834.005004883842.229919434834.005004883815.91027832\x00832.360046387848.809875488834.005004883819.200195312832.360046387842.229919434832.360046387815.91027832\x00842.229919434848.809875488835.650024414824.135131836847.164855957840.584960938834.005004883817.555236816850.454833984845.519897461840.584960938817.555236816847.164855957843.874938965840.584960938824.135131836842.229919434834.005004883838.940002441819.200195312834.005004883840.584960938842.229919434819.200195312837.29498291\x00848.809875488840.584960938817.555236816838.940002441835.650024414838.940002441814.265258789843.874938965825.780151367834.005004883812.620300293848.809875488832.360046387835.650024414819.200195312852.09979248\x00835.650024414840.584960938819.200195312843.874938965840.584960938837.29498291\x00819.200195312843.874938965848.809875488840.584960938822.49017334\x00847.164855957853.744812012838.940002441815.91027832\x00835.650024414852.09979248\x00840.584960938814.265258789832.360046387850.454833984848.809875488815.91027832\x00837.29498291\x00843.874938965858.679748535825.780151367847.164855957858.679748535847.164855957819.200195312861.969726562858.679748535834.005004883814.265258789863.614685059837.29498291\x00845.519897461819.200195312860.324707031848.809875488843.874938965819.200195312850.454833984840.584960938843.874938965824.135131836848.809875488835.650024414847.164855957817.555236816850.454833984853.744812012843.874938965815.91027832\x00848.809875488835.650024414848.809875488817.555236816843.874938965853.744812012857.034729004820.845214844847.164855957861.969726562855.389770508820.845214844852.09979248\x00857.034729004848.809875488815.91027832\x00850.454833984861.969726562852.09979248\x00819.200195312848.809875488860.324707031848.809875488822.49017334\x00852.09979248\x00876.774536133842.229919434817.555236816848.809875488852.09979248\x00852.09979248\x00819.200195312855.389770508850.454833984850.454833984817.555236816848.809875488845.519897461853.744812012820.845214844845.519897461857.034729004853.744812012820.845214844850.454833984861.969726562847.164855957817.555236816850.454833984855.389770508847.164855957809.330322266850.454833984861.969726562847.164855957810.975280762850.454833984845.519897461847.164855957819.200195312848.809875488842.229919434842.229919434819.200195312848.809875488852.09979248\x00845.519897461817.555236816842.229919434855.389770508838.940002441815.91027832\x00842.229919434857.034729004842.229919434814.265258789845.519897461857.034729004843.874938965819.200195312847.164855957843.874938965838.940002441815.91027832\x00852.09979248\x00832.360046387843.874938965817.555236816850.454833984847.164855957838.940002441819.200195312850.454833984845.519897461848.809875488819.200195312850.454833984845.519897461853.744812012817.555236816848.809875488845.519897461847.164855957817.555236816843.874938965852.09979248\x00842.229919434814.265258789843.874938965840.584960938834.005004883814.265258789835.650024414840.584960938832.360046387820.845214844830.715087891840.584960938837.29498291\x00819.200195312850.454833984843.874938965842.229919434820.845214844847.164855957858.679748535843.874938965819.200195312855.389770508848.809875488843.874938965817.555236816845.519897461845.519897461840.584960938817.555236816832.360046387843.874938965838.940002441815.91027832\x00842.229919434855.389770508834.005004883814.265258789845.519897461853.744812012835.650024414809.330322266843.874938965843.874938965835.650024414809.330322266838.940002441830.715087891830.715087891815.91027832\x00838.940002441835.650024414830.715087891819.200195312842.229919434837.29498291\x00830.715087891812.620300293845.519897461847.164855957830.715087891815.91027832\x00842.229919434855.389770508827.425109863810.975280762838.940002441840.584960938834.005004883810.975280762840.584960938845.519897461835.650024414817.555236816835.650024414843.874938965838.940002441814.265258789830.715087891837.29498291\x00842.229919434815.91027832\x00838.940002441829.070068359843.874938965817.555236816842.229919434840.584960938837.29498291\x00817.555236816838.940002441850.454833984845.519897461820.845214844835.650024414855.389770508842.229919434819.200195312829.070068359845.519897461842.229919434814.265258789834.005004883842.229919434842.229919434819.200195312838.940002441840.584960938837.29498291\x00819.200195312834.005004883845.519897461843.874938965814.265258789834.005004883857.034729004843.874938965817.555236816837.29498291\x00842.229919434845.519897461820.845214844843.874938965850.454833984837.29498291\x00810.975280762847.164855957847.164855957835.650024414807.68536377\x00838.940002441855.389770508837.29498291\x00810.975280762838.940002441837.29498291\x00842.229919434815.91027832\x00838.940002441830.715087891842.229919434820.845214844842.229919434848.809875488837.29498291\x00820.845214844840.584960938848.809875488838.940002441815.91027832\x00843.874938965850.454833984842.229919434817.555236816843.874938965840.584960938842.229919434824.135131836837.29498291\x00832.360046387840.584960938834.005004883835.650024414840.584960938835.650024414832.360046387835.650024414847.164855957842.229919434837.29498291\x00838.940002441842.229919434838.940002441837.29498291\x00840.584960938837.29498291\x00837.29498291\x00835.650024414845.519897461838.940002441840.584960938842.229919434842.229919434840.584960938837.29498291\x00838.940002441847.164855957848.809875488840.584960938838.940002441847.164855957838.940002441837.29498291\x00848.809875488834.005004883845.519897461837.29498291\x00845.519897461825.780151367840.584960938838.940002441845.519897461829.070068359843.874938965842.229919434843.874938965840.584960938838.940002441838.940002441838.940002441843.874938965827.425109863832.360046387840.584960938837.29498291\x00848.809875488832.360046387838.940002441840.584960938838.940002441834.005004883827.425109863842.229919434829.070068359837.29498291\x00832.360046387848.809875488840.584960938830.715087891837.29498291\x00842.229919434843.874938965827.425109863834.005004883838.940002441827.425109863835.650024414837.29498291\x00842.229919434837.29498291\x00838.940002441837.29498291\x00838.940002441843.874938965832.360046387834.005004883837.29498291\x00832.360046387838.940002441825.780151367843.874938965858.679748535832.360046387829.070068359850.454833984850.454833984834.005004883832.360046387845.519897461825.780151367838.940002441835.650024414835.650024414838.940002441830.715087891840.584960938835.650024414843.874938965827.425109863834.005004883842.229919434845.519897461829.070068359832.360046387843.874938965840.584960938824.135131836830.715087891840.584960938843.874938965819.200195312827.425109863838.940002441842.229919434822.49017334\x00832.360046387840.584960938835.650024414829.070068359834.005004883835.650024414837.29498291\x00835.650024414837.29498291\x00838.940002441837.29498291\x00840.584960938837.29498291\x00837.29498291\x00838.940002441837.29498291\x00830.715087891840.584960938840.584960938837.29498291\x00830.715087891845.519897461843.874938965834.005004883825.780151367845.519897461832.360046387829.070068359824.135131836840.584960938850.454833984835.650024414825.780151367843.874938965853.744812012835.650024414819.200195312843.874938965850.454833984838.940002441824.135131836843.874938965842.229919434834.005004883825.780151367835.650024414840.584960938835.650024414827.425109863825.780151367834.005004883835.650024414830.715087891832.360046387843.874938965837.29498291\x00827.425109863847.164855957847.164855957829.070068359824.135131836850.454833984858.679748535829.070068359827.425109863855.389770508852.09979248\x00838.940002441827.425109863840.584960938850.454833984838.940002441825.780151367832.360046387842.229919434842.229919434822.49017334\x00840.584960938843.874938965832.360046387820.845214844848.809875488835.650024414829.070068359824.135131836847.164855957834.005004883834.005004883829.070068359845.519897461840.584960938837.29498291\x00827.425109863842.229919434845.519897461837.29498291\x00827.425109863837.29498291\x00855.389770508834.005004883834.005004883842.229919434847.164855957838.940002441829.070068359843.874938965842.229919434838.940002441830.715087891843.874938965837.29498291\x00834.005004883829.070068359847.164855957842.229919434832.360046387829.070068359847.164855957835.650024414830.715087891832.360046387852.09979248\x00824.135131836834.005004883832.360046387845.519897461830.715087891840.584960938829.070068359843.874938965845.519897461840.584960938825.780151367840.584960938829.070068359842.229919434830.715087891837.29498291\x00838.940002441840.584960938835.650024414834.005004883845.519897461837.29498291\x00829.070068359843.874938965848.809875488829.070068359822.49017334\x00853.744812012858.679748535838.940002441825.780151367848.809875488853.744812012834.005004883829.070068359840.584960938837.29498291\x00838.940002441834.005004883827.425109863835.650024414837.29498291\x00829.070068359837.29498291\x00832.360046387834.005004883827.425109863852.09979248\x00845.519897461835.650024414824.135131836845.519897461845.519897461840.584960938824.135131836842.229919434848.809875488843.874938965829.070068359840.584960938847.164855957832.360046387822.49017334\x00838.940002441837.29498291\x00842.229919434825.780151367845.519897461837.29498291\x00842.229919434825.780151367842.229919434847.164855957837.29498291\x00822.49017334\x00838.940002441837.29498291\x00847.164855957817.555236816843.874938965834.005004883837.29498291\x00815.91027832\x00845.519897461843.874938965842.229919434817.555236816845.519897461858.679748535843.874938965819.200195312845.519897461855.389770508845.519897461822.49017334\x00840.584960938861.969726562843.874938965822.49017334\x00842.229919434850.454833984837.29498291\x00820.845214844847.164855957842.229919434843.874938965825.780151367850.454833984845.519897461845.519897461814.265258789853.744812012838.940002441850.454833984817.555236816852.09979248\x00848.809875488848.809875488824.135131836843.874938965848.809875488848.809875488824.135131836843.874938965860.324707031845.519897461824.135131836835.650024414860.324707031840.584960938812.620300293838.940002441843.874938965842.229919434814.265258789842.229919434845.519897461837.29498291\x00817.555236816840.584960938840.584960938838.940002441819.200195312840.584960938832.360046387842.229919434820.845214844843.874938965843.874938965837.29498291\x00824.135131836843.874938965834.005004883837.29498291\x00815.91027832\x00840.584960938847.164855957834.005004883819.200195312838.940002441842.229919434835.650024414819.200195312838.940002441843.874938965838.940002441817.555236816845.519897461840.584960938850.454833984822.49017334\x00850.454833984850.454833984843.874938965817.555236816848.809875488847.164855957832.360046387814.265258789843.874938965832.360046387827.425109863815.91027832\x00838.940002441850.454833984822.49017334\x00817.555236816837.29498291\x00842.229919434829.070068359820.845214844838.940002441842.229919434832.360046387819.200195312837.29498291\x00847.164855957830.715087891815.91027832\x00842.229919434848.809875488834.005004883814.265258789842.229919434861.969726562840.584960938814.265258789842.229919434860.324707031835.650024414820.845214844837.29498291\x00852.09979248\x00832.360046387825.780151367835.650024414837.29498291\x00832.360046387820.845214844829.070068359829.070068359829.070068359812.620300293834.005004883847.164855957838.940002441812.620300293840.584960938838.940002441835.650024414819.200195312842.229919434835.650024414835.650024414822.49017334\x00838.940002441838.940002441840.584960938819.200195312837.29498291\x00834.005004883842.229919434815.91027832\x00842.229919434848.809875488847.164855957822.49017334\x00843.874938965845.519897461842.229919434825.780151367842.229919434847.164855957840.584960938822.49017334\x00840.584960938858.679748535834.005004883815.91027832\x00830.715087891843.874938965838.940002441809.330322266847.164855957840.584960938838.940002441822.49017334\x00852.09979248\x00842.229919434840.584960938825.780151367852.09979248\x00842.229919434835.650024414822.49017334\x00845.519897461848.809875488838.940002441822.49017334\x00840.584960938852.09979248\x00837.29498291\x00819.200195312847.164855957852.09979248\x00834.005004883815.91027832\x00847.164855957850.454833984830.715087891814.265258789847.164855957850.454833984835.650024414812.620300293837.29498291\x00853.744812012829.070068359814.265258789837.29498291\x00830.715087891829.070068359820.845214844840.584960938840.584960938834.005004883819.200195312838.940002441848.809875488835.650024414822.49017334\x00838.940002441835.650024414835.650024414825.780151367840.584960938832.360046387840.584960938825.780151367845.519897461829.070068359834.005004883820.845214844840.584960938834.005004883834.005004883812.620300293835.650024414840.584960938840.584960938812.620300293837.29498291\x00843.874938965838.940002441819.200195312840.584960938845.519897461837.29498291\x00815.91027832\x00842.229919434845.519897461834.005004883819.200195312840.584960938850.454833984837.29498291\x00819.200195312842.229919434850.454833984840.584960938820.845214844835.650024414838.940002441834.005004883819.200195312835.650024414847.164855957837.29498291\x00819.200195312832.360046387845.519897461843.874938965825.780151367837.29498291\x00837.29498291\x00840.584960938820.845214844840.584960938842.229919434845.519897461822.49017334\x00837.29498291\x00834.005004883838.940002441819.200195312834.005004883830.715087891835.650024414812.620300293842.229919434838.940002441850.454833984812.620300293845.519897461848.809875488848.809875488825.780151367837.29498291\x00850.454833984838.940002441825.780151367834.005004883838.940002441835.650024414825.780151367830.715087891832.360046387829.070068359824.135131836830.715087891822.49017334\x00835.650024414819.200195312837.29498291\x00840.584960938832.360046387824.135131836837.29498291\x00843.874938965824.135131836824.135131836835.650024414850.454833984820.845214844824.135131836834.005004883848.809875488825.780151367827.425109863830.715087891825.780151367825.780151367827.425109863832.360046387810.975280762815.91027832\x00827.425109863837.29498291\x00809.330322266799.460449219824.135131836842.229919434786.300598145792.880554199827.425109863834.005004883791.235534668784.655639648827.425109863838.940002441784.655639648773.14074707\x00830.715087891842.229919434753.401000977768.205810547837.29498291\x00834.005004883753.401000977751.75604248\x00834.005004883840.584960938750.111022949727.081298828837.29498291\x00845.519897461733.661254883707.341552734834.005004883842.229919434713.921447754690.891723633832.360046387845.519897461700.76159668\x00671.151977539834.005004883840.584960938682.666870117669.507019043835.650024414840.584960938685.956787109659.637145996829.070068359847.164855957662.927062988656.347167969829.070068359842.229919434666.217041016664.57208252\x00837.29498291\x00834.005004883649.767211914659.637145996834.005004883835.650024414653.057189941659.637145996825.780151367842.229919434667.861999512657.992126465825.780151367837.29498291\x00664.57208252\x00662.927062988825.780151367835.650024414672.796936035672.796936035825.780151367847.164855957681.021850586679.37689209\x00827.425109863845.519897461682.666870117695.826660156829.070068359845.519897461704.051574707700.76159668\x00832.360046387837.29498291\x00700.76159668\x00705.696594238832.360046387840.584960938712.276489258712.276489258825.780151367842.229919434722.146362305718.856384277817.555236816842.229919434707.341552734727.081298828817.555236816843.874938965733.661254883732.016235352814.265258789842.229919434736.951171875735.306213379814.265258789842.229919434758.3359375\x00\x00751.75604248\x00814.265258789845.519897461768.205810547766.560852051814.265258789843.874938965779.720703125769.850830078819.200195312842.229919434778.075683594769.850830078809.330322266842.229919434774.785766602792.880554199812.620300293842.229919434796.170471191804.395385742810.975280762842.229919434791.235534668807.68536377\x00809.330322266845.519897461806.040344238819.200195312815.91027832\x00843.874938965827.425109863814.265258789814.265258789835.650024414852.09979248\x00820.845214844812.620300293845.519897461847.164855957827.425109863807.68536377\x00845.519897461847.164855957834.005004883806.040344238843.874938965843.874938965847.164855957806.040344238835.650024414858.679748535858.679748535807.68536377\x00834.005004883875.129516602860.324707031809.330322266842.229919434871.839599609863.614685059807.68536377\x00853.744812012875.129516602868.549621582807.68536377\x00847.164855957871.839599609870.194580078810.975280762843.874938965888.289367676871.839599609812.620300293843.874938965886.64440918\x00875.129516602807.68536377\x00842.229919434878.419494629881.709472656809.330322266850.454833984876.774536133896.514282227810.975280762837.29498291\x00888.289367676891.579345703802.750427246835.650024414891.579345703889.934387207810.975280762845.519897461891.579345703894.86932373\x00817.555236816850.454833984898.159240723891.579345703809.330322266843.874938965903.094238281893.224304199817.555236816837.29498291\x00904.739196777898.159240723815.91027832\x00838.940002441908.029174805898.159240723814.265258789845.519897461906.384155273899.804260254814.265258789850.454833984906.384155273901.44921875\x00810.975280762847.164855957904.739196777896.514282227806.040344238832.360046387901.44921875\x00903.094238281810.975280762835.650024414921.188964844903.094238281810.975280762842.229919434906.384155273903.094238281810.975280762840.584960938908.029174805899.804260254809.330322266840.584960938921.188964844903.094238281809.330322266845.519897461914.609069824904.739196777806.040344238840.584960938908.029174805908.029174805804.395385742840.584960938916.25402832\x00898.159240723807.68536377\x00842.229919434901.44921875\x00899.804260254807.68536377\x00834.005004883894.86932373\x00901.44921875\x00810.975280762829.070068359911.319091797891.579345703814.265258789835.650024414901.44921875\x00894.86932373\x00812.620300293847.164855957909.674133301896.514282227815.91027832\x00848.809875488906.384155273899.804260254809.330322266852.09979248\x00904.739196777896.514282227806.040344238845.519897461896.514282227893.224304199814.265258789838.940002441893.224304199889.934387207817.555236816835.650024414901.44921875\x00888.289367676824.135131836835.650024414898.159240723889.934387207820.845214844843.874938965908.029174805884.999450684817.555236816852.09979248\x00903.094238281889.934387207815.91027832\x00852.09979248\x00901.44921875\x00888.289367676817.555236816845.519897461901.44921875\x00876.774536133814.265258789832.360046387876.774536133881.709472656810.975280762834.005004883889.934387207878.419494629810.975280762834.005004883889.934387207873.484558105814.265258789840.584960938881.709472656875.129516602817.555236816847.164855957888.289367676871.839599609817.555236816848.809875488880.064453125868.549621582817.555236816858.679748535880.064453125866.904663086815.91027832\x00848.809875488883.354431152868.549621582820.845214844840.584960938881.709472656868.549621582815.91027832\x00837.29498291\x00886.64440918\x00871.839599609815.91027832\x00840.584960938884.999450684868.549621582819.200195312834.005004883888.289367676873.484558105820.845214844835.650024414878.419494629863.614685059820.845214844837.29498291\x00870.194580078861.969726562812.620300293832.360046387870.194580078863.614685059809.330322266838.940002441857.034729004863.614685059819.200195312847.164855957876.774536133853.744812012822.49017334\x00837.29498291\x00878.419494629860.324707031820.845214844825.780151367880.064453125860.324707031820.845214844824.135131836881.709472656858.679748535817.555236816832.360046387850.454833984865.259643555817.555236816845.519897461860.324707031853.744812012829.070068359842.229919434855.389770508850.454833984825.780151367837.29498291\x00871.839599609853.744812012825.780151367824.135131836884.999450684855.389770508827.425109863827.425109863870.194580078852.09979248\x00817.555236816838.940002441863.614685059852.09979248\x00819.200195312840.584960938876.774536133853.744812012820.845214844837.29498291\x00881.709472656857.034729004820.845214844842.229919434871.839599609852.09979248\x00820.845214844842.229919434868.549621582855.389770508822.49017334\x00835.650024414868.549621582855.389770508822.49017334\x00829.070068359866.904663086858.679748535822.49017334\x00835.650024414860.324707031855.389770508824.135131836845.519897461876.774536133855.389770508819.200195312842.229919434871.839599609858.679748535822.49017334\x00843.874938965866.904663086850.454833984815.91027832\x00837.29498291\x00863.614685059848.809875488810.975280762838.940002441860.324707031843.874938965815.91027832\x00842.229919434863.614685059848.809875488815.91027832\x00837.29498291\x00865.259643555852.09979248\x00814.265258789835.650024414863.614685059852.09979248\x00819.200195312840.584960938857.034729004853.744812012819.200195312843.874938965860.324707031847.164855957815.91027832\x00842.229919434863.614685059843.874938965810.975280762832.360046387863.614685059840.584960938809.330322266834.005004883855.389770508840.584960938804.395385742838.940002441855.389770508838.940002441807.68536377\x00837.29498291\x00857.034729004838.940002441807.68536377\x00838.940002441852.09979248\x00840.584960938812.620300293842.229919434853.744812012835.650024414815.91027832\x00847.164855957840.584960938837.29498291\x00817.555236816845.519897461847.164855957838.940002441817.555236816837.29498291\x00852.09979248\x00834.005004883812.620300293837.29498291\x00860.324707031843.874938965814.265258789842.229919434858.679748535842.229919434812.620300293837.29498291\x00848.809875488842.229919434815.91027832\x00845.519897461842.229919434842.229919434817.555236816842.229919434840.584960938835.650024414814.265258789840.584960938842.229919434842.229919434812.620300293842.229919434847.164855957838.940002441809.330322266837.29498291\x00848.809875488829.070068359810.975280762840.584960938840.584960938834.005004883814.265258789838.940002441842.229919434837.29498291\x00814.265258789845.519897461842.229919434840.584960938807.68536377\x00845.519897461848.809875488835.650024414802.750427246842.229919434853.744812012832.360046387807.68536377\x00842.229919434852.09979248\x00834.005004883815.91027832\x00837.29498291\x00845.519897461835.650024414815.91027832\x00837.29498291\x00861.969726562845.519897461817.555236816837.29498291\x00853.744812012830.715087891812.620300293842.229919434829.070068359834.005004883812.620300293840.584960938837.29498291\x00837.29498291\x00812.620300293829.070068359834.005004883838.940002441814.265258789825.780151367840.584960938840.584960938819.200195312835.650024414838.940002441832.360046387817.555236816842.229919434829.070068359835.650024414820.845214844847.164855957843.874938965835.650024414820.845214844842.229919434832.360046387834.005004883822.49017334\x00842.229919434843.874938965835.650024414822.49017334\x00834.005004883850.454833984830.715087891817.555236816837.29498291\x00832.360046387834.005004883812.620300293834.005004883848.809875488834.005004883814.265258789840.584960938845.519897461838.940002441817.555236816847.164855957832.360046387834.005004883817.555236816842.229919434838.940002441830.715087891812.620300293842.229919434834.005004883837.29498291\x00817.555236816835.650024414842.229919434834.005004883817.555236816834.005004883837.29498291\x00834.005004883815.91027832\x00842.229919434838.940002441838.940002441817.555236816837.29498291\x00838.940002441840.584960938820.845214844845.519897461842.229919434843.874938965827.425109863848.809875488843.874938965838.940002441822.49017334\x00845.519897461845.519897461832.360046387817.555236816847.164855957843.874938965832.360046387815.91027832\x00845.519897461834.005004883834.005004883819.200195312845.519897461825.780151367834.005004883824.135131836848.809875488834.005004883837.29498291\x00824.135131836847.164855957842.229919434825.780151367817.555236816847.164855957847.164855957824.135131836817.555236816842.229919434845.519897461820.845214844815.91027832\x00842.229919434827.425109863815.91027832\x00817.555236816843.874938965830.715087891812.620300293819.200195312837.29498291\x00830.715087891815.91027832\x00824.135131836850.454833984827.425109863806.040344238822.49017334\x00847.164855957812.620300293799.460449219822.49017334\x00848.809875488817.555236816801.105407715830.715087891852.09979248\x00799.460449219783.010620117829.070068359845.519897461786.300598145768.205810547829.070068359842.229919434766.560852051756.690979004832.360046387848.809875488763.270874023741.886108398829.070068359845.519897461769.850830078727.081298828837.29498291\x00842.229919434750.111022949725.436340332837.29498291\x00843.874938965740.241149902717.211425781827.425109863847.164855957727.081298828699.116638184825.780151367853.744812012713.921447754692.536743164829.070068359852.09979248\x00708.98651123\x00684.311828613829.070068359847.164855957702.406616211672.796936035822.49017334\x00848.809875488695.826660156687.601806641825.780151367845.519897461717.211425781692.536743164825.780151367847.164855957713.921447754690.891723633824.135131836852.09979248\x00708.98651123\x00699.116638184817.555236816853.744812012725.436340332713.921447754809.330322266855.389770508738.596191406722.146362305815.91027832\x00857.034729004761.625915527732.016235352817.555236816850.454833984746.821105957748.466064453815.91027832\x00848.809875488751.75604248\x00753.401000977809.330322266848.809875488761.625915527764.91583252\x00807.68536377\x00850.454833984766.560852051784.655639648812.620300293847.164855957791.235534668794.525512695812.620300293845.519897461802.750427246797.815490723812.620300293850.454833984804.395385742807.68536377\x00815.91027832\x00837.29498291\x00829.070068359802.750427246807.68536377\x00835.650024414835.650024414810.975280762809.330322266835.650024414834.005004883819.200195312812.620300293840.584960938842.229919434822.49017334\x00810.975280762842.229919434843.874938965835.650024414810.975280762838.940002441847.164855957835.650024414807.68536377\x00838.940002441853.744812012848.809875488809.330322266838.940002441868.549621582855.389770508809.330322266840.584960938868.549621582850.454833984807.68536377\x00835.650024414858.679748535857.034729004810.975280762834.005004883850.454833984858.679748535812.620300293825.780151367860.324707031860.324707031812.620300293835.650024414880.064453125861.969726562804.395385742842.229919434876.774536133865.259643555801.105407715837.29498291\x00886.64440918\x00870.194580078809.330322266838.940002441886.64440918\x00865.259643555810.975280762838.940002441881.709472656866.904663086814.265258789830.715087891898.159240723866.904663086806.040344238835.650024414891.579345703866.904663086804.395385742837.29498291\x00878.419494629876.774536133807.68536377\x00835.650024414888.289367676876.774536133809.330322266837.29498291\x00889.934387207875.129516602809.330322266834.005004883893.224304199875.129516602810.975280762829.070068359894.86932373\x00873.484558105815.91027832\x00832.360046387884.999450684871.839599609812.620300293842.229919434884.999450684866.904663086810.975280762832.360046387886.64440918\x00870.194580078819.200195312834.005004883888.289367676865.259643555815.91027832\x00835.650024414889.934387207857.034729004809.330322266830.715087891883.354431152853.744812012812.620300293834.005004883891.579345703845.519897461814.265258789837.29498291\x00886.64440918\x00847.164855957815.91027832\x00840.584960938884.999450684845.519897461817.555236816835.650024414893.224304199842.229919434817.555236816830.715087891894.86932373\x00840.584960938810.975280762837.29498291\x00881.709472656837.29498291\x00814.265258789837.29498291\x00878.419494629842.229919434817.555236816834.005004883891.579345703845.519897461819.200195312838.940002441888.289367676838.940002441829.070068359837.29498291\x00868.549621582832.360046387827.425109863842.229919434878.419494629832.360046387830.715087891845.519897461873.484558105832.360046387829.070068359838.940002441889.934387207842.229919434830.715087891838.940002441898.159240723850.454833984830.715087891840.584960938884.999450684845.519897461819.200195312835.650024414878.419494629852.09979248\x00824.135131836840.584960938889.934387207848.809875488822.49017334\x00840.584960938884.999450684847.164855957825.780151367838.940002441865.259643555855.389770508827.425109863835.650024414875.129516602853.744812012822.49017334\x00829.070068359875.129516602853.744812012822.49017334\x00837.29498291\x00881.709472656852.09979248\x00822.49017334\x00842.229919434884.999450684847.164855957819.200195312843.874938965873.484558105852.09979248\x00810.975280762842.229919434858.679748535855.389770508820.845214844850.454833984861.969726562848.809875488825.780151367843.874938965866.904663086855.389770508822.49017334\x00832.360046387865.259643555855.389770508824.135131836830.715087891868.549621582853.744812012820.845214844835.650024414873.484558105853.744812012819.200195312837.29498291\x00863.614685059860.324707031824.135131836845.519897461875.129516602861.969726562820.845214844845.519897461863.614685059855.389770508815.91027832\x00838.940002441847.164855957857.034729004822.49017334\x00842.229919434868.549621582848.809875488829.070068359832.360046387868.549621582848.809875488825.780151367832.360046387861.969726562852.09979248\x00822.49017334\x00845.519897461860.324707031838.940002441824.135131836835.650024414861.969726562848.809875488827.425109863835.650024414852.09979248\x00852.09979248\x00829.070068359837.29498291\x00865.259643555855.389770508830.715087891834.005004883857.034729004852.09979248\x00822.49017334\x00830.715087891838.940002441850.454833984815.91027832\x00830.715087891848.809875488853.744812012824.135131836834.005004883845.519897461848.809875488825.780151367845.519897461845.519897461855.389770508829.070068359845.519897461847.164855957850.454833984825.780151367837.29498291\x00845.519897461853.744812012827.425109863832.360046387860.324707031848.809875488825.780151367829.070068359858.679748535847.164855957820.845214844834.005004883858.679748535850.454833984820.845214844834.005004883847.164855957853.744812012817.555236816840.584960938842.229919434857.034729004815.91027832\x00842.229919434861.969726562857.034729004825.780151367834.005004883857.034729004853.744812012822.49017334\x00830.715087891866.904663086857.034729004820.845214844835.650024414860.324707031843.874938965820.845214844824.135131836843.874938965842.229919434819.200195312829.070068359857.034729004843.874938965819.200195312842.229919434832.360046387837.29498291\x00817.555236816832.360046387838.940002441847.164855957814.265258789845.519897461842.229919434847.164855957812.620300293840.584960938842.229919434853.744812012819.200195312832.360046387855.389770508847.164855957819.200195312850.454833984860.324707031835.650024414819.200195312840.584960938852.09979248\x00829.070068359822.49017334\x00835.650024414850.454833984820.845214844814.265258789832.360046387825.780151367830.715087891814.265258789843.874938965850.454833984824.135131836807.68536377\x00847.164855957840.584960938819.200195312810.975280762845.519897461848.809875488822.49017334\x00812.620300293838.940002441853.744812012824.135131836812.620300293832.360046387834.005004883827.425109863809.330322266845.519897461853.744812012827.425109863807.68536377\x00845.519897461838.940002441830.715087891814.265258789835.650024414837.29498291\x00830.715087891817.555236816835.650024414848.809875488829.070068359815.91027832\x00842.229919434840.584960938834.005004883815.91027832\x00842.229919434855.389770508834.005004883809.330322266842.229919434840.584960938834.005004883812.620300293834.005004883840.584960938832.360046387812.620300293827.425109863842.229919434834.005004883807.68536377\x00832.360046387835.650024414840.584960938810.975280762835.650024414842.229919434842.229919434807.68536377\x00843.874938965842.229919434842.229919434797.815490723842.229919434848.809875488832.360046387807.68536377\x00842.229919434840.584960938825.780151367810.975280762838.940002441847.164855957825.780151367809.330322266832.360046387852.09979248\x00830.715087891815.91027832\x00838.940002441848.809875488832.360046387814.265258789847.164855957848.809875488827.425109863812.620300293838.940002441848.809875488830.715087891814.265258789840.584960938855.389770508827.425109863812.620300293837.29498291\x00852.09979248\x00824.135131836810.975280762835.650024414860.324707031825.780151367812.620300293837.29498291\x00848.809875488829.070068359812.620300293838.940002441845.519897461825.780151367809.330322266832.360046387852.09979248\x00835.650024414814.265258789827.425109863842.229919434834.005004883815.91027832\x00827.425109863843.874938965832.360046387819.200195312829.070068359837.29498291\x00837.29498291\x00817.555236816843.874938965842.229919434829.070068359815.91027832\x00845.519897461847.164855957829.070068359817.555236816838.940002441858.679748535835.650024414817.555236816838.940002441847.164855957834.005004883814.265258789825.780151367858.679748535829.070068359814.265258789822.49017334\x00843.874938965830.715087891809.330322266822.49017334\x00848.809875488829.070068359812.620300293834.005004883852.09979248\x00827.425109863814.265258789843.874938965847.164855957825.780151367815.91027832\x00848.809875488852.09979248\x00827.425109863815.91027832\x00847.164855957857.034729004830.715087891814.265258789838.940002441857.034729004829.070068359814.265258789838.940002441830.715087891834.005004883810.975280762840.584960938842.229919434830.715087891817.555236816829.070068359840.584960938825.780151367820.845214844830.715087891838.940002441822.49017334\x00817.555236816843.874938965853.744812012822.49017334\x00820.845214844840.584960938837.29498291\x00824.135131836820.845214844842.229919434834.005004883820.845214844812.620300293838.940002441848.809875488819.200195312810.975280762842.229919434830.715087891820.845214844817.555236816830.715087891840.584960938820.845214844815.91027832\x00830.715087891843.874938965824.135131836814.265258789842.229919434834.005004883830.715087891817.555236816837.29498291\x00837.29498291\x00820.845214844819.200195312847.164855957834.005004883832.360046387819.200195312845.519897461843.874938965834.005004883814.265258789842.229919434840.584960938819.200195312817.555236816850.454833984832.360046387824.135131836819.200195312847.164855957838.940002441819.200195312822.49017334\x00843.874938965842.229919434812.620300293819.200195312848.809875488838.940002441817.555236816810.975280762850.454833984855.389770508810.975280762809.330322266853.744812012834.005004883802.750427246812.620300293848.809875488827.425109863809.330322266809.330322266842.229919434840.584960938801.105407715806.040344238843.874938965824.135131836807.68536377\x00807.68536377\x00842.229919434840.584960938799.460449219809.330322266834.005004883840.584960938801.105407715814.265258789832.360046387829.070068359807.68536377\x00809.330322266847.164855957842.229919434807.68536377\x00806.040344238850.454833984847.164855957822.49017334\x00809.330322266847.164855957847.164855957819.200195312814.265258789845.519897461850.454833984812.620300293812.620300293845.519897461832.360046387814.265258789814.265258789837.29498291\x00820.845214844809.330322266817.555236816835.650024414824.135131836806.040344238810.975280762838.940002441829.070068359814.265258789814.265258789842.229919434842.229919434812.620300293810.975280762848.809875488860.324707031807.68536377\x00814.265258789843.874938965857.034729004812.620300293815.91027832\x00838.940002441848.809875488815.91027832\x00817.555236816837.29498291\x00842.229919434815.91027832\x00814.265258789840.584960938830.715087891819.200195312817.555236816829.070068359835.650024414819.200195312822.49017334\x00820.845214844850.454833984817.555236816822.49017334\x00827.425109863848.809875488812.620300293819.200195312842.229919434845.519897461810.975280762812.620300293852.09979248\x00845.519897461809.330322266814.265258789852.09979248\x00847.164855957806.040344238817.555236816843.874938965857.034729004810.975280762817.555236816837.29498291\x00858.679748535810.975280762814.265258789829.070068359847.164855957817.555236816815.91027832\x00830.715087891834.005004883815.91027832\x00817.555236816840.584960938832.360046387812.620300293815.91027832\x00837.29498291\x00834.005004883810.975280762819.200195312840.584960938838.940002441807.68536377\x00820.845214844837.29498291\x00848.809875488815.91027832\x00822.49017334\x00840.584960938853.744812012815.91027832\x00824.135131836837.29498291\x00852.09979248\x00820.845214844815.91027832\x00838.940002441845.519897461820.845214844812.620300293832.360046387852.09979248\x00830.715087891822.49017334\x00834.005004883845.519897461822.49017334\x00820.845214844852.09979248\x00832.360046387815.91027832\x00822.49017334\x00848.809875488845.519897461820.845214844819.200195312843.874938965840.584960938815.91027832\x00819.200195312832.360046387842.229919434817.555236816824.135131836834.005004883847.164855957819.200195312822.49017334\x00840.584960938852.09979248\x00815.91027832\x00820.845214844834.005004883835.650024414819.200195312815.91027832\x00842.229919434840.584960938824.135131836819.200195312834.005004883840.584960938827.425109863820.845214844830.715087891829.070068359824.135131836824.135131836842.229919434845.519897461812.620300293819.200195312835.650024414845.519897461812.620300293817.555236816837.29498291\x00840.584960938802.750427246815.91027832\x00838.940002441847.164855957806.040344238815.91027832\x00837.29498291\x00857.034729004806.040344238819.200195312840.584960938861.969726562801.105407715824.135131836838.940002441868.549621582799.460449219822.49017334\x00840.584960938871.839599609810.975280762822.49017334\x00837.29498291\x00861.969726562802.750427246820.845214844837.29498291\x00848.809875488802.750427246819.200195312837.29498291\x00837.29498291\x00804.395385742825.780151367842.229919434843.874938965804.395385742822.49017334\x00850.454833984834.005004883804.395385742824.135131836850.454833984852.09979248\x00806.040344238817.555236816848.809875488853.744812012807.68536377\x00820.845214844842.229919434860.324707031809.330322266822.49017334\x00834.005004883875.129516602810.975280762814.265258789837.29498291\x00845.519897461802.750427246814.265258789845.519897461830.715087891802.750427246820.845214844847.164855957827.425109863802.750427246810.975280762843.874938965825.780151367804.395385742814.265258789847.164855957845.519897461804.395385742817.555236816837.29498291\x00845.519897461802.750427246814.265258789842.229919434847.164855957807.68536377\x00819.200195312852.09979248\x00848.809875488809.330322266819.200195312847.164855957843.874938965801.105407715812.620300293842.229919434842.229919434792.880554199814.265258789838.940002441824.135131836797.815490723815.91027832\x00842.229919434840.584960938796.170471191815.91027832\x00848.809875488850.454833984801.105407715806.040344238845.519897461852.09979248\x00802.750427246814.265258789837.29498291\x00852.09979248\x00796.170471191815.91027832\x00835.650024414850.454833984807.68536377\x00809.330322266842.229919434857.034729004796.170471191820.845214844843.874938965838.940002441799.460449219820.845214844838.940002441842.229919434797.815490723820.845214844834.005004883842.229919434794.525512695820.845214844840.584960938838.940002441796.170471191819.200195312850.454833984843.874938965796.170471191814.265258789845.519897461825.780151367787.945556641814.265258789847.164855957814.265258789792.880554199812.620300293848.809875488837.29498291\x00792.880554199809.330322266843.874938965842.229919434791.235534668812.620300293838.940002441840.584960938794.525512695819.200195312837.29498291\x00837.29498291\x00792.880554199815.91027832\x00843.874938965845.519897461801.105407715815.91027832\x00853.744812012845.519897461796.170471191810.975280762848.809875488829.070068359801.105407715809.330322266845.519897461834.005004883809.330322266817.555236816843.874938965832.360046387807.68536377\x00814.265258789834.005004883853.744812012809.330322266817.555236816835.650024414866.904663086801.105407715819.200195312835.650024414840.584960938801.105407715812.620300293843.874938965834.005004883794.525512695814.265258789852.09979248\x00834.005004883806.040344238817.555236816847.164855957829.070068359802.750427246819.200195312830.715087891843.874938965804.395385742820.845214844829.070068359837.29498291\x00815.91027832\x00822.49017334\x00843.874938965845.519897461812.620300293820.845214844845.519897461855.389770508824.135131836820.845214844840.584960938853.744812012822.49017334\x00824.135131836843.874938965843.874938965819.200195312824.135131836845.519897461850.454833984822.49017334\x00824.135131836842.229919434850.454833984819.200195312820.845214844837.29498291\x00848.809875488819.200195312825.780151367829.070068359853.744812012827.425109863824.135131836837.29498291\x00852.09979248\x00824.135131836814.265258789847.164855957861.969726562819.200195312820.845214844843.874938965848.809875488822.49017334\x00822.49017334\x00845.519897461845.519897461825.780151367825.780151367842.229919434842.229919434825.780151367829.070068359835.650024414840.584960938829.070068359824.135131836827.425109863837.29498291\x00832.360046387817.555236816830.715087891842.229919434830.715087891815.91027832\x00842.229919434842.229919434830.715087891824.135131836843.874938965848.809875488822.49017334\x00820.845214844832.360046387843.874938965825.780151367822.49017334\x00822.49017334\x00827.425109863830.715087891820.845214844829.070068359843.874938965832.360046387819.200195312837.29498291\x00842.229919434832.360046387820.845214844835.650024414852.09979248\x00827.425109863822.49017334\x00834.005004883848.809875488832.360046387825.780151367837.29498291\x00842.229919434832.360046387820.845214844845.519897461853.744812012820.845214844817.555236816834.005004883845.519897461822.49017334\x00819.200195312824.135131836857.034729004825.780151367812.620300293830.715087891855.389770508807.68536377\x00807.68536377\x00837.29498291\x00840.584960938815.91027832\x00807.68536377\x00843.874938965842.229919434815.91027832\x00809.330322266845.519897461835.650024414810.975280762809.330322266843.874938965840.584960938810.975280762812.620300293847.164855957853.744812012809.330322266806.040344238847.164855957834.005004883804.395385742807.68536377\x00842.229919434847.164855957792.880554199809.330322266848.809875488838.940002441810.975280762806.040344238853.744812012845.519897461806.040344238812.620300293850.454833984848.809875488812.620300293806.040344238850.454833984838.940002441827.425109863809.330322266848.809875488853.744812012820.845214844812.620300293842.229919434850.454833984819.200195312810.975280762847.164855957842.229919434814.265258789812.620300293852.09979248\x00838.940002441815.91027832\x00810.975280762837.29498291\x00837.29498291\x00812.620300293812.620300293842.229919434840.584960938812.620300293806.040344238843.874938965845.519897461817.555236816804.395385742843.874938965842.229919434819.200195312814.265258789857.034729004842.229919434809.330322266810.975280762857.034729004855.389770508809.330322266809.330322266838.940002441853.744812012815.91027832\x00810.975280762838.940002441845.519897461804.395385742810.975280762847.164855957840.584960938807.68536377\x00817.555236816842.229919434825.780151367810.975280762820.845214844845.519897461842.229919434812.620300293820.845214844850.454833984840.584960938810.975280762812.620300293843.874938965835.650024414807.68536377\x00810.975280762842.229919434838.940002441810.975280762814.265258789842.229919434838.940002441810.975280762810.975280762835.650024414842.229919434809.330322266815.91027832\x00832.360046387853.744812012802.750427246815.91027832\x00832.360046387845.519897461806.040344238817.555236816834.005004883847.164855957810.975280762827.425109863847.164855957853.744812012812.620300293829.070068359847.164855957843.874938965812.620300293830.715087891848.809875488832.360046387812.620300293825.780151367840.584960938837.29498291\x00809.330322266824.135131836835.650024414843.874938965814.265258789822.49017334\x00845.519897461850.454833984809.330322266824.135131836842.229919434858.679748535807.68536377\x00825.780151367845.519897461842.229919434806.040344238824.135131836847.164855957819.200195312815.91027832\x00825.780151367843.874938965843.874938965815.91027832\x00827.425109863845.519897461835.650024414814.265258789825.780151367845.519897461845.519897461810.975280762822.49017334\x00840.584960938852.09979248\x00806.040344238825.780151367838.940002441853.744812012806.040344238820.845214844842.229919434852.09979248\x00802.750427246820.845214844857.034729004838.940002441809.330322266827.425109863857.034729004852.09979248\x00804.395385742825.780151367857.034729004838.940002441812.620300293832.360046387850.454833984840.584960938814.265258789832.360046387843.874938965843.874938965804.395385742824.135131836845.519897461837.29498291\x00799.460449219820.845214844852.09979248\x00847.164855957802.750427246822.49017334\x00850.454833984852.09979248\x00802.750427246819.200195312848.809875488860.324707031804.395385742822.49017334\x00852.09979248\x00840.584960938807.68536377\x00822.49017334\x00852.09979248\x00835.650024414807.68536377\x00820.845214844850.454833984835.650024414809.330322266824.135131836858.679748535840.584960938804.395385742829.070068359858.679748535843.874938965799.460449219827.425109863855.389770508845.519897461796.170471191825.780151367857.034729004834.005004883787.945556641815.91027832\x00855.389770508827.425109863769.850830078809.330322266860.324707031827.425109863773.14074707\x00810.975280762865.259643555838.940002441768.205810547822.49017334\x00866.904663086819.200195312741.886108398822.49017334\x00853.744812012783.010620117732.016235352817.555236816858.679748535773.14074707\x00725.436340332822.49017334\x00861.969726562759.980895996712.276489258819.200195312868.549621582741.886108398713.921447754824.135131836860.324707031735.306213379699.116638184824.135131836847.164855957725.436340332681.021850586824.135131836847.164855957713.921447754676.086914062827.425109863845.519897461700.76159668\x00671.151977539830.715087891843.874938965705.696594238667.861999512832.360046387837.29498291\x00690.891723633669.507019043832.360046387832.360046387684.311828613681.021850586832.360046387832.360046387695.826660156681.021850586835.650024414834.005004883694.18170166\x00689.246765137842.229919434827.425109863694.18170166\x00705.696594238840.584960938822.49017334\x00717.211425781710.631530762845.519897461815.91027832\x00733.661254883717.211425781840.584960938814.265258789733.661254883725.436340332843.874938965817.555236816735.306213379736.951171875835.650024414819.200195312753.401000977756.690979004832.360046387820.845214844769.850830078768.205810547832.360046387817.555236816787.945556641779.720703125830.715087891820.845214844807.68536377\x00786.300598145838.940002441824.135131836791.235534668797.815490723835.650024414820.845214844806.040344238802.750427246840.584960938814.265258789810.975280762809.330322266834.005004883814.265258789834.005004883824.135131836832.360046387822.49017334\x00855.389770508835.650024414835.650024414819.200195312837.29498291\x00842.229919434832.360046387815.91027832\x00858.679748535848.809875488837.29498291\x00817.555236816875.129516602850.454833984837.29498291\x00814.265258789886.64440918\x00845.519897461834.005004883810.975280762883.354431152857.034729004835.650024414814.265258789875.129516602858.679748535832.360046387812.620300293870.194580078860.324707031829.070068359815.91027832\x00883.354431152861.969726562829.070068359812.620300293883.354431152863.614685059825.780151367815.91027832\x00888.289367676866.904663086822.49017334\x00814.265258789883.354431152876.774536133822.49017334\x00814.265258789888.289367676870.194580078822.49017334\x00817.555236816903.094238281866.904663086822.49017334\x00817.555236816891.579345703865.259643555822.49017334\x00824.135131836886.64440918\x00868.549621582819.200195312820.845214844888.289367676878.419494629824.135131836817.555236816886.64440918\x00875.129516602820.845214844817.555236816873.484558105868.549621582822.49017334\x00829.070068359889.934387207871.839599609820.845214844830.715087891886.64440918\x00866.904663086815.91027832\x00829.070068359883.354431152865.259643555814.265258789829.070068359904.739196777863.614685059815.91027832\x00827.425109863889.934387207860.324707031815.91027832\x00827.425109863881.709472656861.969726562814.265258789827.425109863884.999450684858.679748535814.265258789824.135131836871.839599609857.034729004812.620300293824.135131836886.64440918\x00853.744812012814.265258789830.715087891886.64440918\x00852.09979248\x00810.975280762830.715087891886.64440918\x00865.259643555810.975280762834.005004883875.129516602863.614685059806.040344238837.29498291\x00893.224304199866.904663086812.620300293837.29498291\x00888.289367676863.614685059822.49017334\x00830.715087891870.194580078852.09979248\x00819.200195312827.425109863860.324707031870.194580078824.135131836829.070068359861.969726562876.774536133820.845214844824.135131836884.999450684889.934387207824.135131836824.135131836893.224304199893.224304199827.425109863824.135131836908.029174805888.289367676819.200195312830.715087891909.674133301893.224304199819.200195312832.360046387911.319091797894.86932373\x00817.555236816830.715087891906.384155273891.579345703817.555236816824.135131836888.289367676894.86932373\x00819.200195312827.425109863896.514282227891.579345703812.620300293837.29498291\x00906.384155273891.579345703815.91027832\x00838.940002441881.709472656886.64440918\x00820.845214844835.650024414880.064453125881.709472656820.845214844832.360046387878.419494629881.709472656822.49017334\x00834.005004883888.289367676876.774536133812.620300293830.715087891888.289367676876.774536133817.555236816832.360046387889.934387207870.194580078825.780151367830.715087891884.999450684868.549621582827.425109863840.584960938884.999450684870.194580078829.070068359847.164855957876.774536133868.549621582829.070068359838.940002441866.904663086870.194580078820.845214844838.940002441878.419494629870.194580078822.49017334\x00837.29498291\x00875.129516602871.839599609824.135131836834.005004883873.484558105875.129516602819.200195312832.360046387868.549621582873.484558105819.200195312834.005004883870.194580078870.194580078817.555236816834.005004883875.129516602866.904663086817.555236816840.584960938878.419494629860.324707031820.845214844848.809875488876.774536133855.389770508822.49017334\x00843.874938965870.194580078855.389770508817.555236816840.584960938855.389770508855.389770508814.265258789829.070068359855.389770508855.389770508815.91027832\x00827.425109863858.679748535853.744812012820.845214844834.005004883866.904663086843.874938965820.845214844832.360046387861.969726562840.584960938812.620300293827.425109863848.809875488840.584960938815.91027832\x00824.135131836855.389770508837.29498291\x00819.200195312827.425109863857.034729004832.360046387820.845214844838.940002441855.389770508832.360046387815.91027832\x00840.584960938855.389770508830.715087891812.620300293832.360046387853.744812012825.780151367815.91027832\x00832.360046387845.519897461829.070068359817.555236816834.005004883850.454833984822.49017334\x00824.135131836830.715087891845.519897461827.425109863819.200195312834.005004883857.034729004824.135131836819.200195312830.715087891866.904663086827.425109863819.200195312834.005004883850.454833984824.135131836817.555236816832.360046387853.744812012825.780151367814.265258789834.005004883855.389770508827.425109863814.265258789842.229919434855.389770508824.135131836814.265258789842.229919434868.549621582817.555236816815.91027832\x00838.940002441868.549621582814.265258789819.200195312835.650024414878.419494629817.555236816817.555236816830.715087891876.774536133812.620300293815.91027832\x00838.940002441852.09979248\x00814.265258789815.91027832\x00847.164855957842.229919434814.265258789812.620300293843.874938965835.650024414809.330322266814.265258789838.940002441852.09979248\x00819.200195312812.620300293840.584960938855.389770508817.555236816814.265258789838.940002441860.324707031827.425109863819.200195312830.715087891860.324707031825.780151367815.91027832\x00834.005004883857.034729004812.620300293809.330322266838.940002441850.454833984807.68536377\x00810.975280762838.940002441843.874938965806.040344238810.975280762838.940002441853.744812012815.91027832\x00810.975280762842.229919434852.09979248\x00822.49017334\x00812.620300293837.29498291\x00865.259643555827.425109863810.975280762843.874938965853.744812012825.780151367814.265258789843.874938965850.454833984827.425109863812.620300293840.584960938857.034729004825.780151367815.91027832\x00837.29498291\x00852.09979248\x00830.715087891815.91027832\x00837.29498291\x00853.744812012834.005004883812.620300293838.940002441857.034729004829.070068359812.620300293834.005004883850.454833984835.650024414814.265258789834.005004883858.679748535830.715087891812.620300293835.650024414853.744812012835.650024414814.265258789832.360046387852.09979248\x00843.874938965819.200195312838.940002441865.259643555835.650024414812.620300293842.229919434847.164855957838.940002441810.975280762838.940002441847.164855957842.229919434809.330322266840.584960938845.519897461847.164855957807.68536377\x00838.940002441842.229919434857.034729004815.91027832\x00835.650024414855.389770508852.09979248\x00812.620300293848.809875488850.454833984842.229919434809.330322266850.454833984840.584960938840.584960938812.620300293853.744812012850.454833984840.584960938812.620300293845.519897461850.454833984840.584960938812.620300293834.005004883848.809875488842.229919434810.975280762834.005004883847.164855957845.519897461809.330322266842.229919434834.005004883847.164855957814.265258789852.09979248\x00853.744812012848.809875488814.265258789847.164855957847.164855957852.09979248\x00814.265258789832.360046387845.519897461850.454833984812.620300293829.070068359850.454833984865.259643555815.91027832\x00842.229919434838.940002441868.549621582815.91027832\x00843.874938965842.229919434855.389770508812.620300293848.809875488842.229919434850.454833984812.620300293847.164855957827.425109863845.519897461809.330322266843.874938965827.425109863855.389770508810.975280762847.164855957835.650024414861.969726562812.620300293845.519897461850.454833984860.324707031815.91027832\x00837.29498291\x00855.389770508857.034729004820.845214844838.940002441857.034729004863.614685059820.845214844835.650024414853.744812012865.259643555820.845214844848.809875488855.389770508860.324707031815.91027832\x00847.164855957858.679748535858.679748535817.555236816845.519897461857.034729004860.324707031817.555236816848.809875488845.519897461860.324707031817.555236816842.229919434837.29498291\x00857.034729004815.91027832\x00838.940002441838.940002441858.679748535819.200195312845.519897461838.940002441860.324707031827.425109863845.519897461845.519897461858.679748535827.425109863835.650024414843.874938965855.389770508832.360046387838.940002441834.005004883850.454833984827.425109863840.584960938842.229919434845.519897461820.845214844840.584960938832.360046387853.744812012820.845214844843.874938965825.780151367845.519897461820.845214844834.005004883838.940002441843.874938965819.200195312834.005004883843.874938965847.164855957819.200195312838.940002441847.164855957845.519897461822.49017334\x00842.229919434847.164855957845.519897461815.91027832\x00843.874938965842.229919434848.809875488817.555236816837.29498291\x00835.650024414850.454833984824.135131836838.940002441834.005004883847.164855957822.49017334\x00830.715087891840.584960938852.09979248\x00820.845214844825.780151367822.49017334\x00853.744812012815.91027832\x00834.005004883835.650024414835.650024414812.620300293838.940002441840.584960938827.425109863814.265258789842.229919434814.265258789829.070068359817.555236816842.229919434825.780151367812.620300293810.975280762840.584960938817.555236816807.68536377\x00812.620300293840.584960938804.395385742804.395385742815.91027832\x00843.874938965804.395385742791.235534668812.620300293837.29498291\x00789.590576172789.590576172812.620300293832.360046387786.300598145789.590576172812.620300293840.584960938787.945556641783.010620117812.620300293847.164855957786.300598145768.205810547806.040344238845.519897461781.365661621778.075683594804.395385742838.940002441783.010620117786.300598145804.395385742840.584960938783.010620117778.075683594810.975280762838.940002441783.010620117787.945556641809.330322266832.360046387789.590576172786.300598145802.750427246843.874938965797.815490723789.590576172804.395385742837.29498291\x00796.170471191802.750427246806.040344238829.070068359802.750427246810.975280762807.68536377\x00835.650024414806.040344238810.975280762809.330322266837.29498291\x00810.975280762819.200195312806.040344238838.940002441827.425109863825.780151367807.68536377\x00837.29498291\x00819.200195312832.360046387807.68536377\x00835.650024414820.845214844832.360046387810.975280762837.29498291\x00819.200195312832.360046387810.975280762845.519897461829.070068359832.360046387809.330322266847.164855957834.005004883832.360046387809.330322266834.005004883819.200195312834.005004883810.975280762832.360046387837.29498291\x00832.360046387806.040344238830.715087891830.715087891843.874938965810.975280762829.070068359852.09979248\x00847.164855957812.620300293830.715087891861.969726562847.164855957812.620300293835.650024414850.454833984838.940002441814.265258789842.229919434843.874938965840.584960938815.91027832\x00842.229919434845.519897461843.874938965815.91027832\x00838.940002441855.389770508847.164855957810.975280762825.780151367852.09979248\x00852.09979248\x00812.620300293817.555236816848.809875488850.454833984814.265258789825.780151367835.650024414853.744812012809.330322266832.360046387827.425109863847.164855957809.330322266842.229919434838.940002441843.874938965812.620300293848.809875488847.164855957843.874938965812.620300293842.229919434852.09979248\x00843.874938965812.620300293835.650024414855.389770508848.809875488809.330322266834.005004883861.969726562847.164855957815.91027832\x00827.425109863857.034729004848.809875488820.845214844832.360046387843.874938965847.164855957815.91027832\x00845.519897461832.360046387852.09979248\x00815.91027832\x00835.650024414835.650024414865.259643555814.265258789824.135131836855.389770508840.584960938809.330322266838.940002441843.874938965830.715087891815.91027832\x00843.874938965838.940002441840.584960938814.265258789835.650024414832.360046387832.360046387810.975280762842.229919434824.135131836834.005004883815.91027832\x00838.940002441835.650024414822.49017334\x00810.975280762837.29498291\x00807.68536377\x00825.780151367809.330322266843.874938965806.040344238814.265258789802.750427246850.454833984809.330322266824.135131836801.105407715845.519897461812.620300293825.780151367810.975280762853.744812012825.780151367817.555236816807.68536377\x00855.389770508814.265258789815.91027832\x00806.040344238840.584960938820.845214844814.265258789809.330322266840.584960938829.070068359819.200195312804.395385742840.584960938817.555236816824.135131836806.040344238842.229919434834.005004883834.005004883810.975280762842.229919434840.584960938834.005004883809.330322266852.09979248\x00840.584960938825.780151367807.68536377\x00858.679748535842.229919434832.360046387809.330322266852.09979248\x00835.650024414840.584960938810.975280762843.874938965848.809875488838.940002441814.265258789838.940002441852.09979248\x00838.940002441820.845214844847.164855957842.229919434838.940002441815.91027832\x00838.940002441845.519897461843.874938965815.91027832\x00847.164855957843.874938965843.874938965809.330322266847.164855957838.940002441852.09979248\x00815.91027832\x00842.229919434863.614685059855.389770508824.135131836837.29498291\x00861.969726562855.389770508817.555236816842.229919434852.09979248\x00850.454833984817.555236816832.360046387863.614685059852.09979248\x00819.200195312829.070068359838.940002441860.324707031820.845214844852.09979248\x00843.874938965855.389770508825.780151367845.519897461853.744812012853.744812012820.845214844850.454833984852.09979248\x00855.389770508814.265258789848.809875488852.09979248\x00852.09979248\x00819.200195312838.940002441857.034729004850.454833984820.845214844834.005004883860.324707031847.164855957820.845214844840.584960938863.614685059853.744812012822.49017334\x00835.650024414868.549621582853.744812012812.620300293834.005004883861.969726562850.454833984812.620300293847.164855957852.09979248\x00848.809875488817.555236816842.229919434848.809875488848.809875488819.200195312834.005004883842.229919434845.519897461820.845214844835.650024414838.940002441847.164855957815.91027832\x00842.229919434850.454833984850.454833984814.265258789847.164855957860.324707031845.519897461810.975280762843.874938965868.549621582848.809875488810.975280762837.29498291\x00863.614685059855.389770508819.200195312838.940002441861.969726562852.09979248\x00810.975280762842.229919434855.389770508853.744812012810.975280762843.874938965852.09979248\x00858.679748535815.91027832\x00824.135131836868.549621582845.519897461812.620300293829.070068359845.519897461848.809875488820.845214844850.454833984847.164855957850.454833984822.49017334\x00847.164855957843.874938965852.09979248\x00815.91027832\x00845.519897461850.454833984855.389770508819.200195312835.650024414855.389770508852.09979248\x00819.200195312834.005004883843.874938965852.09979248\x00819.200195312838.940002441858.679748535848.809875488817.555236816838.940002441850.454833984842.229919434806.040344238837.29498291\x00848.809875488843.874938965814.265258789835.650024414850.454833984845.519897461819.200195312837.29498291\x00835.650024414845.519897461819.200195312834.005004883834.005004883863.614685059827.425109863827.425109863857.034729004853.744812012815.91027832\x00832.360046387843.874938965838.940002441809.330322266838.940002441825.780151367835.650024414815.91027832\x00829.070068359827.425109863825.780151367810.975280762827.425109863824.135131836834.005004883809.330322266847.164855957829.070068359830.715087891806.040344238847.164855957838.940002441830.715087891799.460449219853.744812012835.650024414834.005004883799.460449219848.809875488825.780151367834.005004883804.395385742834.005004883835.650024414837.29498291\x00807.68536377\x00837.29498291\x00847.164855957832.360046387809.330322266835.650024414845.519897461830.715087891806.040344238830.715087891852.09979248\x00834.005004883802.750427246830.715087891852.09979248\x00830.715087891802.750427246838.940002441842.229919434824.135131836802.750427246848.809875488845.519897461820.845214844810.975280762847.164855957848.809875488820.845214844814.265258789847.164855957829.070068359825.780151367814.265258789835.650024414837.29498291\x00822.49017334\x00814.265258789834.005004883852.09979248\x00830.715087891809.330322266840.584960938843.874938965822.49017334\x00809.330322266817.555236816838.940002441824.135131836806.040344238835.650024414842.229919434827.425109863812.620300293843.874938965842.229919434827.425109863817.555236816842.229919434847.164855957832.360046387819.200195312847.164855957863.614685059824.135131836820.845214844832.360046387842.229919434825.780151367817.555236816838.940002441840.584960938827.425109863817.555236816840.584960938845.519897461822.49017334\x00814.265258789847.164855957822.49017334\x00825.780151367814.265258789850.454833984830.715087891827.425109863815.91027832\x00843.874938965830.715087891825.780151367812.620300293835.650024414843.874938965834.005004883815.91027832\x00829.070068359842.229919434834.005004883815.91027832\x00832.360046387830.715087891829.070068359814.265258789837.29498291\x00837.29498291\x00829.070068359812.620300293842.229919434840.584960938830.715087891810.975280762842.229919434835.650024414827.425109863814.265258789834.005004883838.940002441838.940002441814.265258789835.650024414835.650024414835.650024414812.620300293837.29498291\x00827.425109863829.070068359819.200195312837.29498291\x00847.164855957832.360046387815.91027832\x00834.005004883845.519897461834.005004883820.845214844832.360046387842.229919434832.360046387820.845214844830.715087891835.650024414835.650024414814.265258789840.584960938834.005004883834.005004883819.200195312850.454833984852.09979248\x00838.940002441819.200195312845.519897461855.389770508842.229919434822.49017334\x00838.940002441843.874938965843.874938965819.200195312834.005004883829.070068359843.874938965822.49017334\x00830.715087891834.005004883847.164855957822.49017334\x00837.29498291\x00840.584960938842.229919434815.91027832\x00838.940002441850.454833984845.519897461815.91027832\x00827.425109863840.584960938852.09979248\x00814.265258789835.650024414843.874938965835.650024414817.555236816835.650024414857.034729004830.715087891822.49017334\x00838.940002441832.360046387829.070068359827.425109863852.09979248\x00838.940002441819.200195312824.135131836850.454833984829.070068359819.200195312820.845214844847.164855957817.555236816819.200195312820.845214844845.519897461829.070068359807.68536377\x00822.49017334\x00845.519897461804.395385742799.460449219827.425109863843.874938965792.880554199783.010620117822.49017334\x00847.164855957779.720703125753.401000977825.780151367850.454833984759.980895996733.661254883825.780151367857.034729004745.176086426722.146362305827.425109863855.389770508722.146362305715.566467285830.715087891848.809875488722.146362305692.536743164830.715087891842.229919434689.246765137676.086914062827.425109863842.229919434690.891723633669.507019043824.135131836835.650024414684.311828613666.217041016822.49017334\x00829.070068359682.666870117684.311828613820.845214844832.360046387694.18170166\x00692.536743164824.135131836853.744812012690.891723633689.246765137822.49017334\x00855.389770508700.76159668\x00712.276489258819.200195312853.744812012718.856384277718.856384277815.91027832\x00843.874938965705.696594238733.661254883809.330322266829.070068359730.371276855743.53112793\x00812.620300293832.360046387751.75604248\x00758.3359375\x00\x00810.975280762832.360046387764.91583252\x00771.495788574810.975280762837.29498291\x00776.430725098787.945556641802.750427246843.874938965781.365661621804.395385742797.815490723845.519897461783.010620117810.975280762802.750427246842.229919434807.68536377\x00829.070068359804.395385742835.650024414825.780151367843.874938965809.330322266829.070068359830.715087891848.809875488810.975280762840.584960938832.360046387852.09979248\x00806.040344238834.005004883855.389770508858.679748535809.330322266835.650024414870.194580078855.389770508804.395385742843.874938965870.194580078866.904663086804.395385742832.360046387894.86932373\x00880.064453125802.750427246824.135131836876.774536133883.354431152802.750427246827.425109863881.709472656886.64440918\x00802.750427246840.584960938893.224304199881.709472656802.750427246830.715087891861.969726562881.709472656807.68536377\x00822.49017334\x00863.614685059884.999450684806.040344238832.360046387876.774536133886.64440918\x00809.330322266827.425109863880.064453125883.354431152799.460449219830.715087891896.514282227888.289367676801.105407715830.715087891884.999450684891.579345703806.040344238822.49017334\x00873.484558105896.514282227804.395385742824.135131836891.579345703888.289367676810.975280762830.715087891870.194580078891.579345703810.975280762832.360046387884.999450684893.224304199812.620300293837.29498291\x00881.709472656886.64440918\x00806.040344238838.940002441878.419494629884.999450684806.040344238848.809875488888.289367676876.774536133809.330322266837.29498291\x00878.419494629876.774536133804.395385742832.360046387876.774536133878.419494629804.395385742834.005004883881.709472656871.839599609802.750427246827.425109863881.709472656878.419494629802.750427246834.005004883876.774536133871.839599609807.68536377\x00827.425109863866.904663086868.549621582802.750427246832.360046387865.259643555871.839599609801.105407715837.29498291\x00865.259643555866.904663086806.040344238830.715087891876.774536133866.904663086809.330322266838.940002441868.549621582863.614685059807.68536377\x00847.164855957868.549621582863.614685059807.68536377\x00838.940002441852.09979248\x00873.484558105814.265258789834.005004883855.389770508891.579345703820.845214844827.425109863880.064453125878.419494629820.845214844834.005004883881.709472656865.259643555817.555236816838.940002441855.389770508866.904663086815.91027832\x00837.29498291\x00860.324707031868.549621582819.200195312840.584960938861.969726562878.419494629817.555236816842.229919434861.969726562873.484558105810.975280762847.164855957880.064453125875.129516602815.91027832\x00853.744812012883.354431152868.549621582809.330322266850.454833984852.09979248\x00870.194580078810.975280762843.874938965855.389770508857.034729004806.040344238850.454833984873.484558105863.614685059807.68536377\x00847.164855957865.259643555878.419494629814.265258789843.874938965898.159240723875.129516602814.265258789843.874938965899.804260254868.549621582812.620300293834.005004883871.839599609866.904663086809.330322266837.29498291\x00880.064453125870.194580078807.68536377\x00850.454833984884.999450684873.484558105802.750427246853.744812012868.549621582873.484558105807.68536377\x00852.09979248\x00863.614685059857.034729004809.330322266852.09979248\x00865.259643555860.324707031809.330322266843.874938965865.259643555866.904663086814.265258789843.874938965873.484558105857.034729004812.620300293850.454833984870.194580078861.969726562810.975280762838.940002441866.904663086861.969726562812.620300293835.650024414865.259643555865.259643555814.265258789842.229919434865.259643555863.614685059814.265258789840.584960938860.324707031863.614685059819.200195312847.164855957866.904663086866.904663086814.265258789837.29498291\x00853.744812012863.614685059806.040344238845.519897461852.09979248\x00865.259643555814.265258789845.519897461865.259643555863.614685059815.91027832\x00842.229919434873.484558105853.744812012810.975280762843.874938965878.419494629855.389770508806.040344238840.584960938866.904663086853.744812012806.040344238832.360046387850.454833984848.809875488807.68536377\x00829.070068359863.614685059852.09979248\x00812.620300293835.650024414870.194580078858.679748535815.91027832\x00843.874938965861.969726562848.809875488812.620300293847.164855957866.904663086855.389770508812.620300293845.519897461857.034729004858.679748535812.620300293847.164855957858.679748535852.09979248\x00809.330322266842.229919434861.969726562852.09979248\x00814.265258789835.650024414840.584960938853.744812012815.91027832\x00835.650024414847.164855957853.744812012819.200195312837.29498291\x00848.809875488853.744812012822.49017334\x00840.584960938847.164855957860.324707031822.49017334\x00850.454833984870.194580078855.389770508825.780151367853.744812012865.259643555850.454833984822.49017334\x00845.519897461868.549621582871.839599609809.330322266848.809875488889.934387207863.614685059820.845214844840.584960938878.419494629853.744812012824.135131836838.940002441857.034729004866.904663086819.200195312842.229919434858.679748535866.904663086824.135131836835.650024414853.744812012865.259643555812.620300293827.425109863865.259643555870.194580078819.200195312824.135131836861.969726562870.194580078830.715087891822.49017334\x00855.389770508868.549621582830.715087891822.49017334\x00847.164855957870.194580078829.070068359827.425109863857.034729004870.194580078830.715087891819.200195312863.614685059866.904663086830.715087891819.200195312848.809875488876.774536133830.715087891822.49017334\x00848.809875488866.904663086827.425109863817.555236816858.679748535868.549621582827.425109863817.555236816870.194580078870.194580078825.780151367817.555236816853.744812012870.194580078822.49017334\x00814.265258789863.614685059881.709472656820.845214844817.555236816858.679748535871.839599609817.555236816820.845214844853.744812012868.549621582817.555236816824.135131836855.389770508868.549621582815.91027832\x00825.780151367845.519897461865.259643555812.620300293827.425109863843.874938965860.324707031815.91027832\x00824.135131836857.034729004861.969726562817.555236816825.780151367850.454833984858.679748535820.845214844822.49017334\x00853.744812012861.969726562820.845214844815.91027832\x00857.034729004861.969726562820.845214844822.49017334\x00858.679748535860.324707031815.91027832\x00830.715087891855.389770508857.034729004815.91027832\x00834.005004883848.809875488855.389770508817.555236816834.005004883857.034729004852.09979248\x00814.265258789832.360046387850.454833984850.454833984815.91027832\x00832.360046387847.164855957863.614685059817.555236816829.070068359847.164855957857.034729004815.91027832\x00834.005004883861.969726562860.324707031820.845214844825.780151367863.614685059857.034729004822.49017334\x00822.49017334\x00857.034729004840.584960938819.200195312829.070068359855.389770508840.584960938817.555236816829.070068359853.744812012845.519897461812.620300293835.650024414858.679748535850.454833984820.845214844835.650024414847.164855957852.09979248\x00820.845214844835.650024414843.874938965853.744812012819.200195312835.650024414847.164855957850.454833984820.845214844837.29498291\x00852.09979248\x00845.519897461822.49017334\x00840.584960938845.519897461848.809875488819.200195312837.29498291\x00855.389770508855.389770508812.620300293837.29498291\x00868.549621582865.259643555820.845214844829.070068359884.999450684853.744812012825.780151367827.425109863858.679748535852.09979248\x00827.425109863830.715087891838.940002441847.164855957832.360046387832.360046387847.164855957843.874938965825.780151367832.360046387830.715087891853.744812012827.425109863827.425109863837.29498291\x00850.454833984829.070068359819.200195312832.360046387860.324707031827.425109863820.845214844838.940002441858.679748535825.780151367820.845214844847.164855957855.389770508825.780151367817.555236816840.584960938855.389770508829.070068359819.200195312832.360046387852.09979248\x00827.425109863824.135131836830.715087891857.034729004822.49017334\x00822.49017334\x00847.164855957853.744812012822.49017334\x00822.49017334\x00843.874938965842.229919434822.49017334\x00824.135131836837.29498291\x00847.164855957822.49017334\x00822.49017334\x00825.780151367847.164855957820.845214844829.070068359829.070068359845.519897461824.135131836832.360046387834.005004883838.940002441824.135131836824.135131836842.229919434837.29498291\x00820.845214844827.425109863838.940002441840.584960938819.200195312824.135131836825.780151367838.940002441819.200195312830.715087891817.555236816845.519897461822.49017334\x00834.005004883812.620300293832.360046387827.425109863830.715087891814.265258789834.005004883832.360046387822.49017334\x00812.620300293857.034729004842.229919434824.135131836837.29498291\x00832.360046387832.360046387843.874938965834.005004883804.395385742825.780151367843.874938965804.395385742807.68536377\x00822.49017334\x00850.454833984801.105407715787.945556641819.200195312853.744812012804.395385742787.945556641817.555236816850.454833984784.655639648784.655639648820.845214844858.679748535784.655639648758.3359375\x00\x00817.555236816858.679748535771.495788574756.690979004819.200195312857.034729004756.690979004759.980895996822.49017334\x00852.09979248\x00764.91583252\x00758.3359375\x00\x00820.845214844855.389770508769.850830078738.596191406814.265258789861.969726562751.75604248\x00730.371276855810.975280762857.034729004746.821105957738.596191406814.265258789857.034729004758.3359375\x00\x00735.306213379814.265258789857.034729004751.75604248\x00735.306213379814.265258789863.614685059769.850830078748.466064453814.265258789860.324707031779.720703125766.560852051810.975280762852.09979248\x00787.945556641771.495788574812.620300293848.809875488784.655639648778.075683594814.265258789857.034729004797.815490723789.590576172817.555236816863.614685059807.68536377\x00783.010620117812.620300293858.679748535806.040344238794.525512695810.975280762840.584960938815.91027832\x00804.395385742807.68536377\x00840.584960938815.91027832\x00812.620300293810.975280762845.519897461829.070068359825.780151367807.68536377\x00843.874938965830.715087891829.070068359809.330322266840.584960938829.070068359825.780151367809.330322266829.070068359814.265258789829.070068359810.975280762843.874938965825.780151367840.584960938809.330322266853.744812012834.005004883847.164855957809.330322266848.809875488843.874938965850.454833984814.265258789848.809875488857.034729004835.650024414810.975280762840.584960938840.584960938837.29498291\x00809.330322266835.650024414845.519897461842.229919434807.68536377\x00840.584960938835.650024414837.29498291\x00806.040344238838.940002441853.744812012840.584960938812.620300293837.29498291\x00845.519897461845.519897461819.200195312843.874938965843.874938965843.874938965815.91027832\x00847.164855957830.715087891830.715087891814.265258789845.519897461832.360046387815.91027832\x00812.620300293850.454833984834.005004883815.91027832\x00807.68536377\x00852.09979248\x00829.070068359824.135131836830.715087891838.940002441819.200195312799.460449219830.715087891838.940002441792.880554199776.430725098835.650024414835.650024414776.430725098763.270874023843.874938965830.715087891764.91583252\x00751.75604248\x00843.874938965827.425109863741.886108398751.75604248\x00850.454833984822.49017334\x00725.436340332750.111022949855.389770508819.200195312713.921447754740.241149902852.09979248\x00814.265258789713.921447754741.886108398848.809875488807.68536377\x00713.921447754750.111022949852.09979248\x00804.395385742723.791320801750.111022949855.389770508802.750427246732.016235352751.75604248\x00855.389770508806.040344238740.241149902764.91583252\x00852.09979248\x00809.330322266741.886108398787.945556641848.809875488802.750427246758.3359375\x00\x00791.235534668848.809875488797.815490723759.980895996802.750427246852.09979248\x00806.040344238779.720703125815.91027832\x00853.744812012807.68536377\x00789.590576172815.91027832\x00850.454833984807.68536377\x00796.170471191820.845214844840.584960938810.975280762809.330322266840.584960938830.715087891814.265258789825.780151367843.874938965830.715087891824.135131836840.584960938857.034729004834.005004883825.780151367848.809875488865.259643555834.005004883827.425109863843.874938965873.484558105830.715087891827.425109863852.09979248\x00891.579345703827.425109863820.845214844866.904663086884.999450684820.845214844817.555236816873.484558105898.159240723824.135131836824.135131836875.129516602901.44921875\x00829.070068359830.715087891878.419494629903.094238281822.49017334\x00832.360046387870.194580078904.739196777820.845214844838.940002441878.419494629899.804260254817.555236816834.005004883876.774536133904.739196777817.555236816832.360046387876.774536133901.44921875\x00812.620300293832.360046387891.579345703904.739196777807.68536377\x00835.650024414891.579345703896.514282227810.975280762838.940002441904.739196777888.289367676809.330322266840.584960938908.029174805888.289367676812.620300293835.650024414906.384155273891.579345703814.265258789827.425109863896.514282227893.224304199809.330322266834.005004883904.739196777896.514282227806.040344238842.229919434899.804260254898.159240723802.750427246845.519897461884.999450684898.159240723804.395385742838.940002441901.44921875\x00898.159240723806.040344238835.650024414876.774536133883.354431152802.750427246835.650024414868.549621582878.419494629807.68536377\x00838.940002441881.709472656883.354431152809.330322266829.070068359889.934387207883.354431152807.68536377\x00825.780151367889.934387207889.934387207807.68536377\x00842.229919434896.514282227883.354431152806.040344238842.229919434893.224304199881.709472656799.460449219837.29498291\x00880.064453125883.354431152801.105407715838.940002441893.224304199878.419494629809.330322266838.940002441888.289367676875.129516602806.040344238840.584960938898.159240723881.709472656810.975280762838.940002441881.709472656883.354431152809.330322266825.780151367889.934387207884.999450684799.460449219824.135131836891.579345703878.419494629799.460449219837.29498291\x00880.064453125878.419494629806.040344238842.229919434881.709472656876.774536133804.395385742829.070068359852.09979248\x00886.64440918\x00810.975280762822.49017334\x00873.484558105891.579345703810.975280762832.360046387883.354431152863.614685059801.105407715845.519897461876.774536133865.259643555809.330322266843.874938965861.969726562855.389770508802.750427246845.519897461852.09979248\x00845.519897461801.105407715835.650024414847.164855957838.940002441806.040344238825.780151367861.969726562827.425109863804.395385742840.584960938853.744812012822.49017334\x00802.750427246845.519897461822.49017334\x00819.200195312801.105407715843.874938965819.200195312817.555236816799.460449219847.164855957832.360046387802.750427246794.525512695832.360046387847.164855957812.620300293789.590576172832.360046387848.809875488825.780151367792.880554199845.519897461848.809875488824.135131836794.525512695837.29498291\x00847.164855957822.49017334\x00789.590576172835.650024414843.874938965820.845214844801.105407715845.519897461848.809875488832.360046387802.750427246845.519897461847.164855957834.005004883801.105407715853.744812012845.519897461837.29498291\x00807.68536377\x00848.809875488843.874938965837.29498291\x00804.395385742837.29498291\x00852.09979248\x00847.164855957806.040344238832.360046387847.164855957848.809875488802.750427246829.070068359850.454833984842.229919434799.460449219834.005004883852.09979248\x00845.519897461801.105407715834.005004883858.679748535845.519897461802.750427246848.809875488857.034729004852.09979248\x00815.91027832\x00847.164855957858.679748535852.09979248\x00814.265258789840.584960938863.614685059848.809875488809.330322266840.584960938850.454833984850.454833984809.330322266837.29498291\x00852.09979248\x00853.744812012810.975280762829.070068359858.679748535853.744812012815.91027832\x00837.29498291\x00852.09979248\x00860.324707031809.330322266848.809875488868.549621582850.454833984807.68536377\x00850.454833984857.034729004857.034729004814.265258789850.454833984853.744812012852.09979248\x00807.68536377\x00838.940002441855.389770508847.164855957810.975280762842.229919434861.969726562848.809875488814.265258789835.650024414857.034729004850.454833984814.265258789837.29498291\x00848.809875488845.519897461817.555236816840.584960938853.744812012845.519897461810.975280762830.715087891847.164855957847.164855957807.68536377\x00830.715087891857.034729004842.229919434804.395385742832.360046387843.874938965847.164855957809.330322266837.29498291\x00838.940002441847.164855957814.265258789838.940002441850.454833984840.584960938807.68536377\x00834.005004883858.679748535845.519897461814.265258789820.845214844861.969726562845.519897461814.265258789827.425109863857.034729004842.229919434814.265258789842.229919434858.679748535845.519897461814.265258789838.940002441857.034729004845.519897461815.91027832\x00838.940002441868.549621582850.454833984809.330322266834.005004883853.744812012840.584960938804.395385742830.715087891838.940002441837.29498291\x00807.68536377\x00830.715087891857.034729004840.584960938810.975280762829.070068359860.324707031842.229919434812.620300293824.135131836843.874938965838.940002441814.265258789837.29498291\x00843.874938965843.874938965815.91027832\x00845.519897461848.809875488838.940002441815.91027832\x00842.229919434840.584960938834.005004883814.265258789838.940002441847.164855957845.519897461812.620300293837.29498291\x00840.584960938845.519897461804.395385742835.650024414848.809875488852.09979248\x00809.330322266837.29498291\x00858.679748535860.324707031815.91027832\x00835.650024414868.549621582852.09979248\x00807.68536377\x00829.070068359863.614685059838.940002441807.68536377\x00840.584960938860.324707031838.940002441809.330322266847.164855957850.454833984845.519897461807.68536377\x00837.29498291\x00850.454833984847.164855957810.975280762842.229919434842.229919434842.229919434810.975280762837.29498291\x00845.519897461850.454833984814.265258789838.940002441858.679748535858.679748535824.135131836842.229919434858.679748535855.389770508817.555236816843.874938965868.549621582837.29498291\x00814.265258789840.584960938842.229919434830.715087891814.265258789840.584960938850.454833984822.49017334\x00810.975280762842.229919434845.519897461832.360046387815.91027832\x00842.229919434838.940002441822.49017334\x00810.975280762857.034729004847.164855957817.555236816809.330322266853.744812012850.454833984829.070068359810.975280762845.519897461847.164855957835.650024414814.265258789835.650024414842.229919434830.715087891812.620300293843.874938965852.09979248\x00829.070068359806.040344238855.389770508847.164855957827.425109863797.815490723838.940002441830.715087891830.715087891801.105407715830.715087891847.164855957830.715087891812.620300293835.650024414842.229919434829.070068359810.975280762840.584960938842.229919434832.360046387812.620300293848.809875488848.809875488835.650024414809.330322266848.809875488853.744812012827.425109863809.330322266842.229919434845.519897461834.005004883815.91027832\x00840.584960938845.519897461830.715087891815.91027832\x00838.940002441843.874938965843.874938965809.330322266834.005004883830.715087891837.29498291\x00807.68536377\x00834.005004883829.070068359829.070068359814.265258789847.164855957843.874938965840.584960938814.265258789843.874938965845.519897461832.360046387809.330322266838.940002441830.715087891830.715087891807.68536377\x00843.874938965847.164855957838.940002441817.555236816840.584960938842.229919434843.874938965819.200195312835.650024414852.09979248\x00840.584960938812.620300293845.519897461852.09979248\x00837.29498291\x00806.040344238847.164855957832.360046387834.005004883799.460449219847.164855957829.070068359842.229919434812.620300293843.874938965837.29498291\x00838.940002441814.265258789835.650024414855.389770508842.229919434815.91027832\x00843.874938965843.874938965840.584960938809.330322266843.874938965845.519897461835.650024414806.040344238852.09979248\x00837.29498291\x00840.584960938812.620300293853.744812012842.229919434837.29498291\x00812.620300293845.519897461835.650024414838.940002441804.395385742845.519897461843.874938965837.29498291\x00812.620300293843.874938965845.519897461837.29498291\x00810.975280762834.005004883834.005004883838.940002441815.91027832\x00832.360046387834.005004883840.584960938817.555236816834.005004883842.229919434843.874938965812.620300293845.519897461837.29498291\x00838.940002441814.265258789848.809875488838.940002441838.940002441810.975280762855.389770508843.874938965837.29498291\x00810.975280762852.09979248\x00838.940002441838.940002441806.040344238843.874938965855.389770508837.29498291\x00809.330322266845.519897461853.744812012827.425109863809.330322266847.164855957848.809875488838.940002441812.620300293843.874938965843.874938965830.715087891810.975280762834.005004883840.584960938835.650024414804.395385742832.360046387840.584960938843.874938965814.265258789840.584960938835.650024414842.229919434809.330322266837.29498291\x00837.29498291\x00847.164855957812.620300293835.650024414853.744812012840.584960938814.265258789838.940002441837.29498291\x00842.229919434817.555236816829.070068359843.874938965832.360046387819.200195312834.005004883845.519897461832.360046387820.845214844840.584960938827.425109863837.29498291\x00817.555236816834.005004883842.229919434835.650024414814.265258789840.584960938838.940002441850.454833984815.91027832\x00848.809875488832.360046387837.29498291\x00810.975280762845.519897461842.229919434834.005004883809.330322266840.584960938835.650024414835.650024414812.620300293835.650024414840.584960938830.715087891814.265258789829.070068359857.034729004835.650024414817.555236816834.005004883850.454833984829.070068359812.620300293838.940002441834.005004883834.005004883809.330322266842.229919434830.715087891832.360046387812.620300293840.584960938825.780151367835.650024414814.265258789840.584960938827.425109863835.650024414814.265258789838.940002441832.360046387832.360046387817.555236816832.360046387838.940002441834.005004883815.91027832\x00834.005004883837.29498291\x00827.425109863814.265258789835.650024414843.874938965827.425109863814.265258789835.650024414847.164855957825.780151367814.265258789840.584960938852.09979248\x00832.360046387815.91027832\x00835.650024414853.744812012830.715087891819.200195312829.070068359847.164855957842.229919434814.265258789829.070068359840.584960938840.584960938812.620300293842.229919434843.874938965861.969726562810.975280762840.584960938857.034729004861.969726562822.49017334\x00832.360046387843.874938965835.650024414820.845214844829.070068359814.265258789842.229919434820.845214844827.425109863827.425109863842.229919434817.555236816830.715087891838.940002441843.874938965814.265258789830.715087891848.809875488850.454833984817.555236816825.780151367845.519897461842.229919434815.91027832\x00827.425109863860.324707031842.229919434817.555236816824.135131836855.389770508863.614685059820.845214844827.425109863868.549621582873.484558105825.780151367827.425109863866.904663086858.679748535824.135131836825.780151367857.034729004865.259643555822.49017334\x00820.845214844857.034729004863.614685059824.135131836817.555236816861.969726562863.614685059820.845214844820.845214844855.389770508860.324707031820.845214844825.780151367861.969726562863.614685059819.200195312829.070068359866.904663086863.614685059817.555236816834.005004883861.969726562861.969726562819.200195312827.425109863840.584960938863.614685059820.845214844824.135131836852.09979248\x00858.679748535819.200195312830.715087891863.614685059860.324707031820.845214844830.715087891868.549621582861.969726562822.49017334\x00830.715087891858.679748535858.679748535820.845214844835.650024414842.229919434853.744812012822.49017334\x00834.005004883852.09979248\x00855.389770508827.425109863832.360046387857.034729004857.034729004829.070068359840.584960938855.389770508848.809875488825.780151367848.809875488852.09979248\x00850.454833984824.135131836842.229919434860.324707031860.324707031825.780151367840.584960938860.324707031853.744812012817.555236816840.584960938843.874938965860.324707031819.200195312834.005004883845.519897461863.614685059819.200195312837.29498291\x00860.324707031858.679748535820.845214844837.29498291\x00865.259643555861.969726562825.780151367838.940002441861.969726562855.389770508827.425109863842.229919434857.034729004850.454833984822.49017334\x00845.519897461852.09979248\x00850.454833984824.135131836843.874938965860.324707031845.519897461824.135131836845.519897461865.259643555848.809875488820.845214844845.519897461853.744812012855.389770508824.135131836840.584960938848.809875488857.034729004824.135131836840.584960938857.034729004860.324707031820.845214844840.584960938860.324707031861.969726562824.135131836832.360046387865.259643555865.259643555819.200195312832.360046387857.034729004858.679748535817.555236816838.940002441850.454833984853.744812012815.91027832\x00852.09979248\x00840.584960938850.454833984817.555236816852.09979248\x00835.650024414845.519897461817.555236816848.809875488847.164855957853.744812012820.845214844848.809875488860.324707031852.09979248\x00824.135131836845.519897461858.679748535853.744812012822.49017334\x00843.874938965861.969726562853.744812012820.845214844840.584960938860.324707031850.454833984815.91027832\x00840.584960938861.969726562853.744812012819.200195312845.519897461860.324707031848.809875488819.200195312847.164855957858.679748535852.09979248\x00819.200195312842.229919434860.324707031850.454833984822.49017334\x00842.229919434861.969726562850.454833984819.200195312845.519897461858.679748535850.454833984817.555236816848.809875488857.034729004848.809875488817.555236816843.874938965855.389770508847.164855957817.555236816838.940002441860.324707031842.229919434820.845214844842.229919434863.614685059843.874938965820.845214844843.874938965868.549621582848.809875488820.845214844838.940002441858.679748535853.744812012819.200195312834.005004883863.614685059853.744812012820.845214844834.005004883850.454833984842.229919434815.91027832\x00835.650024414840.584960938843.874938965817.555236816837.29498291\x00855.389770508835.650024414817.555236816838.940002441866.904663086835.650024414817.555236816840.584960938855.389770508845.519897461820.845214844840.584960938848.809875488838.940002441819.200195312840.584960938843.874938965838.940002441815.91027832\x00838.940002441838.940002441847.164855957810.975280762838.940002441861.969726562845.519897461815.91027832\x00840.584960938860.324707031843.874938965819.200195312837.29498291\x00857.034729004842.229919434822.49017334\x00840.584960938853.744812012840.584960938822.49017334\x00832.360046387855.389770508837.29498291\x00817.555236816835.650024414843.874938965837.29498291\x00812.620300293847.164855957861.969726562830.715087891812.620300293847.164855957858.679748535832.360046387812.620300293848.809875488861.969726562835.650024414810.975280762847.164855957861.969726562842.229919434812.620300293840.584960938835.650024414835.650024414814.265258789837.29498291\x00858.679748535834.005004883814.265258789840.584960938855.389770508832.360046387812.620300293843.874938965857.034729004829.070068359812.620300293840.584960938843.874938965827.425109863809.330322266838.940002441853.744812012825.780151367810.975280762830.715087891847.164855957837.29498291\x00810.975280762832.360046387840.584960938835.650024414809.330322266838.940002441858.679748535835.650024414809.330322266837.29498291\x00838.940002441834.005004883806.040344238832.360046387840.584960938832.360046387809.330322266837.29498291\x00847.164855957838.940002441817.555236816835.650024414843.874938965829.070068359819.200195312840.584960938842.229919434834.005004883820.845214844840.584960938847.164855957834.005004883819.200195312838.940002441843.874938965834.005004883815.91027832\x00840.584960938847.164855957838.940002441820.845214844834.005004883853.744812012850.454833984824.135131836832.360046387858.679748535834.005004883817.555236816845.519897461843.874938965819.200195312815.91027832\x00845.519897461817.555236816827.425109863810.975280762847.164855957832.360046387812.620300293802.750427246847.164855957852.09979248\x00820.845214844806.040344238848.809875488842.229919434812.620300293802.750427246857.034729004834.005004883801.105407715799.460449219857.034729004829.070068359815.91027832\x00799.460449219855.389770508832.360046387820.845214844799.460449219855.389770508843.874938965817.555236816797.815490723855.389770508842.229919434815.91027832\x00797.815490723853.744812012837.29498291\x00815.91027832\x00797.815490723858.679748535852.09979248\x00819.200195312797.815490723855.389770508853.744812012817.555236816801.105407715852.09979248\x00838.940002441819.200195312801.105407715853.744812012845.519897461820.845214844801.105407715845.519897461848.809875488827.425109863804.395385742847.164855957853.744812012827.425109863806.040344238857.034729004855.389770508824.135131836806.040344238853.744812012832.360046387827.425109863807.68536377\x00857.034729004820.845214844835.650024414806.040344238853.744812012829.070068359834.005004883804.395385742843.874938965840.584960938834.005004883806.040344238847.164855957837.29498291\x00840.584960938807.68536377\x00848.809875488843.874938965829.070068359806.040344238845.519897461847.164855957822.49017334\x00812.620300293843.874938965847.164855957822.49017334\x00812.620300293838.940002441847.164855957824.135131836810.975280762838.940002441832.360046387832.360046387815.91027832\x00845.519897461845.519897461838.940002441817.555236816845.519897461835.650024414843.874938965820.845214844850.454833984861.969726562838.940002441819.200195312848.809875488870.194580078842.229919434819.200195312848.809875488853.744812012842.229919434814.265258789852.09979248\x00858.679748535843.874938965812.620300293848.809875488857.034729004848.809875488815.91027832\x00850.454833984850.454833984848.809875488814.265258789842.229919434847.164855957847.164855957810.975280762840.584960938843.874938965847.164855957815.91027832\x00842.229919434848.809875488845.519897461817.555236816842.229919434852.09979248\x00843.874938965815.91027832\x00845.519897461858.679748535842.229919434817.555236816845.519897461837.29498291\x00843.874938965812.620300293843.874938965842.229919434850.454833984814.265258789837.29498291\x00845.519897461852.09979248\x00815.91027832\x00845.519897461852.09979248\x00843.874938965814.265258789845.519897461838.940002441850.454833984815.91027832\x00845.519897461840.584960938845.519897461817.555236816847.164855957852.09979248\x00837.29498291\x00812.620300293843.874938965858.679748535845.519897461812.620300293847.164855957853.744812012840.584960938809.330322266842.229919434838.940002441842.229919434812.620300293842.229919434834.005004883850.454833984819.200195312843.874938965852.09979248\x00845.519897461817.555236816835.650024414850.454833984853.744812012817.555236816840.584960938863.614685059852.09979248\x00817.555236816845.519897461857.034729004842.229919434814.265258789842.229919434843.874938965843.874938965810.975280762847.164855957852.09979248\x00842.229919434812.620300293845.519897461847.164855957847.164855957809.330322266840.584960938835.650024414845.519897461814.265258789843.874938965847.164855957838.940002441817.555236816837.29498291\x00843.874938965843.874938965814.265258789837.29498291\x00832.360046387842.229919434814.265258789832.360046387842.229919434845.519897461810.975280762842.229919434847.164855957840.584960938814.265258789848.809875488842.229919434835.650024414817.555236816845.519897461850.454833984847.164855957819.200195312848.809875488847.164855957847.164855957819.200195312852.09979248\x00842.229919434829.070068359817.555236816847.164855957847.164855957825.780151367814.265258789848.809875488853.744812012825.780151367812.620300293845.519897461842.229919434830.715087891814.265258789843.874938965842.229919434837.29498291\x00810.975280762842.229919434845.519897461834.005004883812.620300293837.29498291\x00837.29498291\x00834.005004883824.135131836842.229919434840.584960938835.650024414819.200195312837.29498291\x00840.584960938832.360046387820.845214844829.070068359838.940002441827.425109863819.200195312838.940002441830.715087891819.200195312814.265258789843.874938965835.650024414824.135131836820.845214844845.519897461829.070068359822.49017334\x00819.200195312855.389770508834.005004883819.200195312812.620300293843.874938965843.874938965834.005004883810.975280762842.229919434845.519897461827.425109863812.620300293843.874938965843.874938965825.780151367815.91027832\x00837.29498291\x00855.389770508834.005004883815.91027832\x00834.005004883853.744812012835.650024414815.91027832\x00834.005004883837.29498291\x00840.584960938810.975280762842.229919434830.715087891845.519897461814.265258789838.940002441842.229919434840.584960938820.845214844834.005004883830.715087891845.519897461819.200195312835.650024414817.555236816847.164855957817.555236816837.29498291\x00822.49017334\x00842.229919434812.620300293834.005004883822.49017334\x00829.070068359810.975280762834.005004883834.005004883825.780151367810.975280762832.360046387848.809875488825.780151367810.975280762832.360046387845.519897461830.715087891807.68536377\x00837.29498291\x00845.519897461820.845214844807.68536377\x00837.29498291\x00834.005004883827.425109863810.975280762835.650024414825.780151367819.200195312809.330322266834.005004883830.715087891820.845214844807.68536377\x00832.360046387822.49017334\x00825.780151367806.040344238830.715087891837.29498291\x00822.49017334\x00809.330322266832.360046387835.650024414830.715087891807.68536377\x00838.940002441830.715087891830.715087891807.68536377\x00840.584960938850.454833984822.49017334\x00812.620300293838.940002441845.519897461827.425109863817.555236816837.29498291\x00840.584960938835.650024414819.200195312843.874938965832.360046387837.29498291\x00820.845214844848.809875488843.874938965834.005004883822.49017334\x00847.164855957829.070068359829.070068359827.425109863842.229919434832.360046387830.715087891829.070068359843.874938965838.940002441825.780151367825.780151367842.229919434820.845214844822.49017334\x00822.49017334\x00840.584960938842.229919434825.780151367820.845214844838.940002441847.164855957822.49017334\x00817.555236816837.29498291\x00840.584960938829.070068359824.135131836843.874938965842.229919434832.360046387820.845214844838.940002441834.005004883830.715087891824.135131836842.229919434824.135131836829.070068359829.070068359845.519897461835.650024414827.425109863827.425109863842.229919434830.715087891825.780151367829.070068359842.229919434825.780151367822.49017334\x00824.135131836843.874938965827.425109863834.005004883820.845214844848.809875488850.454833984850.454833984838.940002441848.809875488861.969726562835.650024414847.164855957845.519897461838.940002441830.715087891845.519897461842.229919434824.135131836830.715087891847.164855957838.940002441827.425109863820.845214844842.229919434842.229919434820.845214844830.715087891847.164855957837.29498291\x00820.845214844815.91027832\x00853.744812012830.715087891806.040344238822.49017334\x00845.519897461829.070068359806.040344238820.845214844838.940002441829.070068359814.265258789822.49017334\x00840.584960938830.715087891825.780151367827.425109863843.874938965824.135131836825.780151367829.070068359842.229919434824.135131836832.360046387834.005004883840.584960938832.360046387838.940002441834.005004883840.584960938835.650024414848.809875488832.360046387835.650024414835.650024414835.650024414830.715087891832.360046387834.005004883840.584960938835.650024414834.005004883825.780151367847.164855957835.650024414834.005004883830.715087891824.135131836840.584960938830.715087891840.584960938834.005004883840.584960938829.070068359838.940002441825.780151367845.519897461830.715087891834.005004883819.200195312850.454833984827.425109863834.005004883837.29498291\x00847.164855957825.780151367832.360046387835.650024414843.874938965824.135131836837.29498291\x00835.650024414850.454833984822.49017334\x00835.650024414852.09979248\x00830.715087891822.49017334\x00840.584960938853.744812012825.780151367819.200195312842.229919434852.09979248\x00830.715087891820.845214844842.229919434850.454833984829.070068359820.845214844843.874938965827.425109863834.005004883827.425109863837.29498291\x00840.584960938837.29498291\x00827.425109863840.584960938834.005004883838.940002441822.49017334\x00843.874938965845.519897461835.650024414819.200195312842.229919434850.454833984837.29498291\x00812.620300293838.940002441860.324707031838.940002441810.975280762838.940002441860.324707031835.650024414815.91027832\x00840.584960938850.454833984837.29498291\x00814.265258789838.940002441838.940002441834.005004883814.265258789835.650024414822.49017334\x00835.650024414812.620300293830.715087891832.360046387832.360046387810.975280762830.715087891845.519897461843.874938965807.68536377\x00834.005004883850.454833984842.229919434809.330322266830.715087891842.229919434837.29498291\x00810.975280762835.650024414853.744812012825.780151367810.975280762835.650024414855.389770508834.005004883814.265258789835.650024414842.229919434838.940002441809.330322266842.229919434843.874938965830.715087891807.68536377\x00840.584960938853.744812012843.874938965814.265258789838.940002441820.845214844837.29498291\x00815.91027832\x00842.229919434837.29498291\x00838.940002441815.91027832\x00843.874938965845.519897461838.940002441815.91027832\x00838.940002441843.874938965837.29498291\x00814.265258789835.650024414866.904663086829.070068359809.330322266835.650024414858.679748535834.005004883810.975280762838.940002441838.940002441832.360046387815.91027832\x00843.874938965825.780151367830.715087891819.200195312840.584960938835.650024414835.650024414819.200195312835.650024414827.425109863834.005004883817.555236816832.360046387842.229919434838.940002441819.200195312842.229919434843.874938965837.29498291\x00822.49017334\x00847.164855957832.360046387838.940002441819.200195312845.519897461827.425109863840.584960938817.555236816845.519897461838.940002441832.360046387815.91027832\x00840.584960938848.809875488830.715087891817.555236816838.940002441857.034729004834.005004883820.845214844838.940002441842.229919434837.29498291\x00819.200195312842.229919434840.584960938837.29498291\x00817.555236816838.940002441843.874938965838.940002441817.555236816840.584960938840.584960938829.070068359817.555236816834.005004883835.650024414837.29498291\x00817.555236816834.005004883840.584960938837.29498291\x00817.555236816837.29498291\x00837.29498291\x00829.070068359814.265258789834.005004883845.519897461834.005004883815.91027832\x00825.780151367840.584960938827.425109863814.265258789827.425109863835.650024414824.135131836810.975280762832.360046387838.940002441829.070068359810.975280762835.650024414842.229919434830.715087891815.91027832\x00830.715087891832.360046387827.425109863817.555236816825.780151367815.91027832\x00822.49017334\x00817.555236816827.425109863835.650024414824.135131836817.555236816830.715087891829.070068359825.780151367812.620300293834.005004883838.940002441827.425109863810.975280762829.070068359845.519897461832.360046387815.91027832\x00829.070068359825.780151367822.49017334\x00812.620300293832.360046387832.360046387827.425109863812.620300293829.070068359830.715087891830.715087891814.265258789830.715087891827.425109863829.070068359815.91027832\x00834.005004883832.360046387824.135131836815.91027832\x00830.715087891827.425109863815.91027832\x00817.555236816830.715087891824.135131836824.135131836822.49017334\x00830.715087891819.200195312832.360046387824.135131836827.425109863832.360046387812.620300293819.200195312840.584960938825.780151367794.525512695814.265258789840.584960938812.620300293794.525512695810.975280762842.229919434817.555236816789.590576172809.330322266847.164855957806.040344238802.750427246812.620300293852.09979248\x00807.68536377\x00802.750427246807.68536377\x00858.679748535802.750427246787.945556641801.105407715861.969726562799.460449219779.720703125801.105407715866.904663086799.460449219771.495788574801.105407715866.904663086810.975280762766.560852051802.750427246868.549621582809.330322266769.850830078802.750427246868.549621582794.525512695774.785766602804.395385742865.259643555797.815490723779.720703125809.330322266868.549621582791.235534668779.720703125807.68536377\x00870.194580078801.105407715784.655639648799.460449219863.614685059806.040344238779.720703125796.170471191868.549621582794.525512695787.945556641799.460449219868.549621582796.170471191792.880554199806.040344238866.904663086819.200195312801.105407715806.040344238861.969726562843.874938965799.460449219802.750427246857.034729004832.360046387815.91027832\x00799.460449219847.164855957845.519897461815.91027832\x00802.750427246835.650024414838.940002441817.555236816815.91027832\x00855.389770508829.070068359827.425109863819.200195312857.034729004825.780151367829.070068359819.200195312858.679748535829.070068359842.229919434814.265258789866.904663086850.454833984845.519897461810.975280762853.744812012860.324707031847.164855957814.265258789852.09979248\x00863.614685059848.809875488814.265258789853.744812012860.324707031857.034729004819.200195312845.519897461860.324707031873.484558105822.49017334\x00835.650024414860.324707031860.324707031824.135131836845.519897461871.839599609857.034729004820.845214844861.969726562868.549621582866.904663086824.135131836850.454833984861.969726562860.324707031820.845214844848.809875488876.774536133853.744812012817.555236816840.584960938865.259643555861.969726562817.555236816838.940002441865.259643555853.744812012817.555236816840.584960938861.969726562858.679748535819.200195312838.940002441858.679748535863.614685059820.845214844838.940002441852.09979248\x00847.164855957819.200195312838.940002441845.519897461848.809875488817.555236816838.940002441868.549621582858.679748535814.265258789837.29498291\x00850.454833984852.09979248\x00814.265258789834.005004883857.034729004843.874938965814.265258789830.715087891855.389770508835.650024414807.68536377\x00827.425109863852.09979248\x00827.425109863807.68536377\x00832.360046387858.679748535838.940002441809.330322266835.650024414848.809875488843.874938965814.265258789843.874938965835.650024414835.650024414814.265258789840.584960938819.200195312834.005004883815.91027832\x00837.29498291\x00825.780151367842.229919434822.49017334\x00842.229919434834.005004883834.005004883820.845214844842.229919434830.715087891815.91027832\x00819.200195312837.29498291\x00817.555236816812.620300293819.200195312843.874938965812.620300293799.460449219819.200195312845.519897461809.330322266786.300598145820.845214844848.809875488810.975280762783.010620117822.49017334\x00847.164855957797.815490723769.850830078819.200195312842.229919434778.075683594755.045959473819.200195312842.229919434774.785766602753.401000977824.135131836848.809875488763.270874023743.53112793\x00824.135131836847.164855957740.241149902740.241149902822.49017334\x00845.519897461746.821105957741.886108398819.200195312847.164855957745.176086426738.596191406830.715087891838.940002441733.661254883725.436340332827.425109863840.584960938733.661254883725.436340332830.715087891835.650024414730.371276855718.856384277832.360046387834.005004883723.791320801713.921447754825.780151367832.360046387732.016235352710.631530762830.715087891827.425109863713.921447754718.856384277832.360046387830.715087891713.921447754722.146362305822.49017334\x00834.005004883733.661254883732.016235352814.265258789835.650024414756.690979004751.75604248\x00824.135131836829.070068359769.850830078763.270874023824.135131836825.780151367758.3359375\x00\x00771.495788574824.135131836829.070068359758.3359375\x00\x00776.430725098822.49017334\x00834.005004883773.14074707\x00781.365661621812.620300293837.29498291\x00781.365661621801.105407715814.265258789837.29498291\x00806.040344238809.330322266812.620300293829.070068359812.620300293819.200195312809.330322266830.715087891812.620300293817.555236816804.395385742835.650024414819.200195312827.425109863804.395385742835.650024414817.555236816842.229919434804.395385742832.360046387827.425109863852.09979248\x00806.040344238817.555236816852.09979248\x00865.259643555807.68536377\x00810.975280762868.549621582866.904663086810.975280762824.135131836860.324707031868.549621582810.975280762842.229919434853.744812012863.614685059801.105407715845.519897461855.389770508871.839599609799.460449219847.164855957860.324707031868.549621582807.68536377\x00842.229919434878.419494629876.774536133810.975280762837.29498291\x00878.419494629876.774536133807.68536377\x00842.229919434876.774536133875.129516602806.040344238834.005004883861.969726562888.289367676809.330322266830.715087891886.64440918\x00878.419494629810.975280762832.360046387888.289367676880.064453125812.620300293825.780151367876.774536133881.709472656810.975280762830.715087891863.614685059876.774536133810.975280762832.360046387866.904663086880.064453125810.975280762830.715087891858.679748535878.419494629814.265258789838.940002441871.839599609876.774536133812.620300293834.005004883898.159240723881.709472656812.620300293820.845214844889.934387207880.064453125812.620300293829.070068359894.86932373\x00878.419494629814.265258789842.229919434896.514282227884.999450684810.975280762843.874938965880.064453125878.419494629806.040344238840.584960938888.289367676886.64440918\x00807.68536377\x00834.005004883901.44921875\x00891.579345703809.330322266838.940002441891.579345703876.774536133807.68536377\x00838.940002441876.774536133871.839599609810.975280762840.584960938875.129516602878.419494629810.975280762830.715087891883.354431152876.774536133810.975280762829.070068359896.514282227880.064453125817.555236816838.940002441888.289367676873.484558105817.555236816838.940002441873.484558105876.774536133817.555236816835.650024414883.354431152873.484558105817.555236816832.360046387881.709472656871.839599609815.91027832\x00835.650024414886.64440918\x00878.419494629814.265258789842.229919434893.224304199863.614685059817.555236816837.29498291\x00866.904663086880.064453125819.200195312834.005004883868.549621582876.774536133817.555236816837.29498291\x00871.839599609871.839599609819.200195312838.940002441875.129516602873.484558105814.265258789838.940002441888.289367676870.194580078814.265258789835.650024414878.419494629873.484558105815.91027832\x00834.005004883868.549621582865.259643555814.265258789829.070068359870.194580078853.744812012810.975280762827.425109863871.839599609865.259643555812.620300293829.070068359865.259643555850.454833984815.91027832\x00827.425109863857.034729004855.389770508815.91027832\x00829.070068359852.09979248\x00850.454833984814.265258789832.360046387860.324707031842.229919434812.620300293827.425109863868.549621582853.744812012817.555236816830.715087891868.549621582857.034729004819.200195312837.29498291\x00853.744812012857.034729004820.845214844832.360046387842.229919434863.614685059822.49017334\x00834.005004883858.679748535857.034729004820.845214844837.29498291\x00850.454833984852.09979248\x00817.555236816837.29498291\x00857.034729004855.389770508822.49017334\x00837.29498291\x00861.969726562848.809875488817.555236816837.29498291\x00842.229919434847.164855957815.91027832\x00834.005004883858.679748535848.809875488819.200195312834.005004883852.09979248\x00835.650024414812.620300293832.360046387850.454833984838.940002441804.395385742837.29498291\x00855.389770508860.324707031819.200195312832.360046387871.839599609850.454833984824.135131836824.135131836850.454833984837.29498291\x00824.135131836829.070068359847.164855957838.940002441829.070068359822.49017334\x00834.005004883824.135131836822.49017334\x00820.845214844830.715087891834.005004883824.135131836817.555236816832.360046387840.584960938829.070068359809.330322266822.49017334\x00830.715087891827.425109863804.395385742814.265258789835.650024414827.425109863801.105407715810.975280762847.164855957829.070068359804.395385742824.135131836848.809875488827.425109863801.105407715820.845214844845.519897461825.780151367804.395385742820.845214844852.09979248\x00825.780151367812.620300293830.715087891842.229919434829.070068359810.975280762847.164855957845.519897461827.425109863814.265258789848.809875488858.679748535825.780151367817.555236816834.005004883860.324707031824.135131836814.265258789822.49017334\x00855.389770508824.135131836809.330322266827.425109863853.744812012827.425109863809.330322266834.005004883858.679748535825.780151367815.91027832\x00848.809875488850.454833984824.135131836824.135131836842.229919434843.874938965822.49017334\x00825.780151367842.229919434855.389770508822.49017334\x00825.780151367840.584960938845.519897461819.200195312819.200195312834.005004883853.744812012824.135131836814.265258789850.454833984852.09979248\x00825.780151367819.200195312861.969726562847.164855957825.780151367820.845214844865.259643555850.454833984829.070068359825.780151367848.809875488853.744812012830.715087891834.005004883847.164855957835.650024414827.425109863832.360046387845.519897461845.519897461830.715087891834.005004883850.454833984857.034729004829.070068359829.070068359843.874938965852.09979248\x00834.005004883829.070068359830.715087891843.874938965834.005004883838.940002441829.070068359840.584960938830.715087891847.164855957838.940002441842.229919434830.715087891845.519897461847.164855957829.070068359825.780151367842.229919434834.005004883837.29498291\x00830.715087891838.940002441825.780151367837.29498291\x00835.650024414838.940002441837.29498291\x00829.070068359832.360046387842.229919434842.229919434838.940002441824.135131836845.519897461855.389770508850.454833984827.425109863847.164855957857.034729004834.005004883834.005004883842.229919434838.940002441830.715087891834.005004883840.584960938832.360046387832.360046387842.229919434840.584960938832.360046387804.395385742843.874938965832.360046387817.555236816814.265258789847.164855957832.360046387819.200195312824.135131836853.744812012820.845214844802.750427246810.975280762852.09979248\x00815.91027832\x00812.620300293806.040344238845.519897461819.200195312824.135131836809.330322266843.874938965822.49017334\x00809.330322266812.620300293843.874938965825.780151367824.135131836810.975280762840.584960938829.070068359824.135131836814.265258789840.584960938835.650024414825.780151367815.91027832\x00835.650024414837.29498291\x00822.49017334\x00820.845214844835.650024414842.229919434819.200195312829.070068359838.940002441853.744812012815.91027832\x00840.584960938837.29498291\x00858.679748535822.49017334\x00834.005004883837.29498291\x00858.679748535829.070068359815.91027832\x00842.229919434863.614685059822.49017334\x00820.845214844838.940002441858.679748535827.425109863820.845214844835.650024414858.679748535838.940002441825.780151367832.360046387861.969726562832.360046387827.425109863827.425109863855.389770508843.874938965838.940002441829.070068359855.389770508840.584960938842.229919434832.360046387855.389770508845.519897461840.584960938832.360046387852.09979248\x00858.679748535847.164855957832.360046387852.09979248\x00855.389770508845.519897461827.425109863852.09979248\x00857.034729004842.229919434824.135131836852.09979248\x00848.809875488834.005004883820.845214844848.809875488853.744812012838.940002441817.555236816845.519897461848.809875488845.519897461819.200195312842.229919434860.324707031853.744812012819.200195312845.519897461847.164855957858.679748535812.620300293850.454833984850.454833984850.454833984806.040344238852.09979248\x00847.164855957842.229919434807.68536377\x00848.809875488850.454833984853.744812012806.040344238838.940002441850.454833984847.164855957806.040344238835.650024414855.389770508847.164855957807.68536377\x00837.29498291\x00853.744812012855.389770508806.040344238842.229919434858.679748535855.389770508807.68536377\x00842.229919434853.744812012855.389770508806.040344238838.940002441855.389770508848.809875488807.68536377\x00837.29498291\x00853.744812012853.744812012802.750427246838.940002441857.034729004847.164855957799.460449219840.584960938857.034729004840.584960938799.460449219838.940002441865.259643555843.874938965806.040344238834.005004883865.259643555834.005004883807.68536377\x00838.940002441855.389770508842.229919434810.975280762835.650024414853.744812012848.809875488814.265258789838.940002441850.454833984847.164855957809.330322266843.874938965843.874938965850.454833984812.620300293838.940002441861.969726562842.229919434812.620300293842.229919434845.519897461834.005004883810.975280762838.940002441845.519897461832.360046387814.265258789834.005004883855.389770508829.070068359814.265258789835.650024414845.519897461827.425109863812.620300293838.940002441865.259643555834.005004883815.91027832\x00840.584960938865.259643555834.005004883819.200195312845.519897461866.904663086834.005004883817.555236816842.229919434853.744812012832.360046387819.200195312840.584960938845.519897461817.555236816817.555236816837.29498291\x00835.650024414824.135131836817.555236816832.360046387850.454833984830.715087891817.555236816832.360046387842.229919434824.135131836815.91027832\x00840.584960938850.454833984822.49017334\x00814.265258789848.809875488861.969726562820.845214844815.91027832\x00848.809875488857.034729004824.135131836817.555236816845.519897461858.679748535829.070068359820.845214844838.940002441866.904663086824.135131836822.49017334\x00837.29498291\x00861.969726562817.555236816822.49017334\x00840.584960938855.389770508814.265258789822.49017334\x00843.874938965861.969726562807.68536377\x00817.555236816845.519897461855.389770508802.750427246812.620300293843.874938965853.744812012802.750427246819.200195312848.809875488858.679748535799.460449219822.49017334\x00847.164855957855.389770508809.330322266827.425109863847.164855957848.809875488815.91027832\x00827.425109863852.09979248\x00855.389770508814.265258789820.845214844847.164855957865.259643555814.265258789817.555236816843.874938965855.389770508814.265258789817.555236816843.874938965835.650024414820.845214844822.49017334\x00840.584960938842.229919434815.91027832\x00822.49017334\x00847.164855957840.584960938820.845214844825.780151367852.09979248\x00852.09979248\x00815.91027832\x00820.845214844850.454833984857.034729004809.330322266815.91027832\x00847.164855957845.519897461802.750427246814.265258789845.519897461863.614685059794.525512695809.330322266847.164855957858.679748535806.040344238810.975280762847.164855957850.454833984799.460449219812.620300293847.164855957855.389770508799.460449219812.620300293845.519897461848.809875488799.460449219812.620300293845.519897461850.454833984796.170471191815.91027832\x00845.519897461865.259643555802.750427246810.975280762843.874938965857.034729004806.040344238812.620300293842.229919434848.809875488792.880554199812.620300293838.940002441855.389770508796.170471191810.975280762843.874938965842.229919434797.815490723815.91027832\x00847.164855957853.744812012787.945556641815.91027832\x00845.519897461842.229919434784.655639648819.200195312850.454833984847.164855957774.785766602819.200195312852.09979248\x00858.679748535776.430725098815.91027832\x00847.164855957852.09979248\x00766.560852051814.265258789847.164855957857.034729004766.560852051817.555236816850.454833984852.09979248\x00771.495788574819.200195312848.809875488858.679748535783.010620117822.49017334\x00847.164855957847.164855957789.590576172822.49017334\x00850.454833984838.940002441796.170471191820.845214844845.519897461848.809875488786.300598145824.135131836843.874938965838.940002441784.655639648822.49017334\x00847.164855957842.229919434781.365661621819.200195312850.454833984847.164855957781.365661621820.845214844852.09979248\x00845.519897461783.010620117817.555236816852.09979248\x00860.324707031781.365661621817.555236816850.454833984865.259643555778.075683594814.265258789847.164855957850.454833984774.785766602812.620300293850.454833984848.809875488789.590576172819.200195312852.09979248\x00834.005004883786.300598145819.200195312845.519897461855.389770508787.945556641819.200195312845.519897461848.809875488797.815490723820.845214844848.809875488843.874938965791.235534668822.49017334\x00845.519897461860.324707031797.815490723822.49017334\x00847.164855957838.940002441794.525512695822.49017334\x00847.164855957834.005004883792.880554199822.49017334\x00845.519897461835.650024414796.170471191819.200195312842.229919434832.360046387809.330322266820.845214844848.809875488840.584960938804.395385742817.555236816847.164855957847.164855957797.815490723812.620300293848.809875488835.650024414812.620300293814.265258789850.454833984835.650024414814.265258789809.330322266845.519897461842.229919434825.780151367806.040344238845.519897461852.09979248\x00829.070068359806.040344238848.809875488870.194580078832.360046387817.555236816845.519897461852.09979248\x00832.360046387817.555236816837.29498291\x00820.845214844840.584960938817.555236816840.584960938824.135131836842.229919434824.135131836838.940002441827.425109863835.650024414822.49017334\x00842.229919434860.324707031842.229919434829.070068359840.584960938840.584960938843.874938965829.070068359840.584960938825.780151367855.389770508822.49017334\x00840.584960938815.91027832\x00850.454833984827.425109863838.940002441809.330322266840.584960938829.070068359840.584960938829.070068359842.229919434827.425109863837.29498291\x00830.715087891840.584960938825.780151367838.940002441840.584960938845.519897461820.845214844840.584960938847.164855957848.809875488822.49017334\x00835.650024414834.005004883852.09979248\x00825.780151367835.650024414827.425109863847.164855957822.49017334\x00848.809875488827.425109863842.229919434824.135131836857.034729004834.005004883845.519897461827.425109863861.969726562830.715087891848.809875488827.425109863866.904663086832.360046387843.874938965824.135131836860.324707031837.29498291\x00845.519897461822.49017334\x00858.679748535829.070068359837.29498291\x00824.135131836860.324707031832.360046387840.584960938822.49017334\x00853.744812012830.715087891843.874938965822.49017334\x00852.09979248\x00827.425109863843.874938965822.49017334\x00853.744812012842.229919434835.650024414820.845214844848.809875488842.229919434832.360046387819.200195312852.09979248\x00837.29498291\x00847.164855957815.91027832\x00852.09979248\x00843.874938965842.229919434815.91027832\x00847.164855957835.650024414834.005004883815.91027832\x00848.809875488845.519897461840.584960938822.49017334\x00848.809875488843.874938965837.29498291\x00819.200195312850.454833984842.229919434835.650024414815.91027832\x00850.454833984848.809875488843.874938965822.49017334\x00853.744812012842.229919434840.584960938822.49017334\x00853.744812012843.874938965837.29498291\x00815.91027832\x00852.09979248\x00848.809875488842.229919434814.265258789852.09979248\x00847.164855957835.650024414812.620300293848.809875488842.229919434840.584960938815.91027832\x00843.874938965843.874938965850.454833984820.845214844843.874938965840.584960938845.519897461812.620300293840.584960938852.09979248\x00840.584960938806.040344238838.940002441848.809875488845.519897461804.395385742837.29498291\x00835.650024414845.519897461802.750427246830.715087891822.49017334\x00852.09979248\x00807.68536377\x00825.780151367845.519897461853.744812012809.330322266827.425109863847.164855957842.229919434804.395385742827.425109863845.519897461852.09979248\x00806.040344238825.780151367853.744812012853.744812012807.68536377\x00825.780151367832.360046387853.744812012806.040344238827.425109863835.650024414852.09979248\x00804.395385742829.070068359860.324707031842.229919434801.105407715824.135131836834.005004883848.809875488801.105407715819.200195312843.874938965848.809875488807.68536377\x00819.200195312848.809875488845.519897461809.330322266829.070068359845.519897461858.679748535809.330322266830.715087891847.164855957850.454833984806.040344238825.780151367853.744812012842.229919434804.395385742819.200195312843.874938965845.519897461809.330322266817.555236816834.005004883850.454833984810.975280762817.555236816850.454833984858.679748535817.555236816822.49017334\x00845.519897461866.904663086817.555236816825.780151367848.809875488860.324707031814.265258789827.425109863840.584960938848.809875488814.265258789829.070068359830.715087891842.229919434810.975280762824.135131836835.650024414842.229919434812.620300293819.200195312825.780151367840.584960938812.620300293822.49017334\x00840.584960938837.29498291\x00814.265258789825.780151367850.454833984845.519897461819.200195312825.780151367842.229919434824.135131836819.200195312827.425109863852.09979248\x00834.005004883819.200195312822.49017334\x00840.584960938834.005004883820.845214844820.845214844829.070068359852.09979248\x00819.200195312822.49017334\x00834.005004883845.519897461820.845214844819.200195312842.229919434835.650024414817.555236816814.265258789817.555236816840.584960938817.555236816820.845214844817.555236816825.780151367819.200195312825.780151367838.940002441838.940002441819.200195312829.070068359827.425109863847.164855957822.49017334\x00830.715087891850.454833984838.940002441819.200195312830.715087891848.809875488838.940002441817.555236816832.360046387845.519897461827.425109863817.555236816832.360046387837.29498291\x00832.360046387815.91027832\x00838.940002441832.360046387822.49017334\x00817.555236816842.229919434827.425109863815.91027832\x00820.845214844840.584960938830.715087891830.715087891820.845214844840.584960938837.29498291\x00830.715087891824.135131836834.005004883834.005004883858.679748535829.070068359840.584960938855.389770508840.584960938824.135131836850.454833984861.969726562827.425109863824.135131836855.389770508832.360046387825.780151367819.200195312858.679748535819.200195312832.360046387820.845214844855.389770508819.200195312837.29498291\x00817.555236816855.389770508801.105407715827.425109863809.330322266861.969726562810.975280762819.200195312807.68536377\x00866.904663086822.49017334\x00829.070068359804.395385742866.904663086822.49017334\x00827.425109863804.395385742873.484558105835.650024414819.200195312806.040344238875.129516602853.744812012824.135131836802.750427246878.419494629852.09979248\x00810.975280762802.750427246881.709472656838.940002441837.29498291\x00806.040344238873.484558105861.969726562847.164855957804.395385742875.129516602868.549621582838.940002441804.395385742873.484558105860.324707031848.809875488804.395385742870.194580078880.064453125832.360046387807.68536377\x00868.549621582865.259643555834.005004883809.330322266863.614685059848.809875488830.715087891807.68536377\x00861.969726562843.874938965835.650024414806.040344238860.324707031855.389770508837.29498291\x00802.750427246860.324707031863.614685059838.940002441806.040344238853.744812012873.484558105834.005004883812.620300293853.744812012878.419494629840.584960938814.265258789857.034729004875.129516602837.29498291\x00810.975280762857.034729004861.969726562842.229919434810.975280762857.034729004855.389770508842.229919434810.975280762855.389770508865.259643555845.519897461806.040344238858.679748535863.614685059852.09979248\x00810.975280762858.679748535868.549621582852.09979248\x00812.620300293857.034729004863.614685059857.034729004812.620300293855.389770508863.614685059855.389770508814.265258789853.744812012853.744812012845.519897461809.330322266855.389770508847.164855957850.454833984807.68536377\x00855.389770508863.614685059848.809875488809.330322266852.09979248\x00843.874938965858.679748535810.975280762850.454833984857.034729004855.389770508807.68536377\x00845.519897461863.614685059852.09979248\x00806.040344238842.229919434866.904663086860.324707031804.395385742842.229919434860.324707031850.454833984804.395385742838.940002441863.614685059861.969726562806.040344238838.940002441847.164855957853.744812012802.750427246842.229919434848.809875488847.164855957802.750427246835.650024414861.969726562850.454833984802.750427246830.715087891863.614685059843.874938965806.040344238834.005004883855.389770508852.09979248\x00806.040344238834.005004883847.164855957852.09979248\x00804.395385742834.005004883853.744812012850.454833984801.105407715830.715087891850.454833984855.389770508802.750427246827.425109863868.549621582850.454833984802.750427246824.135131836850.454833984857.034729004806.040344238822.49017334\x00847.164855957860.324707031809.330322266822.49017334\x00827.425109863850.454833984807.68536377\x00819.200195312817.555236816860.324707031812.620300293824.135131836843.874938965866.904663086815.91027832\x00822.49017334\x00830.715087891865.259643555815.91027832\x00820.845214844834.005004883848.809875488812.620300293824.135131836840.584960938847.164855957812.620300293820.845214844840.584960938857.034729004814.265258789817.555236816848.809875488857.034729004815.91027832\x00815.91027832\x00852.09979248\x00837.29498291\x00817.555236816824.135131836843.874938965815.91027832\x00814.265258789834.005004883837.29498291\x00815.91027832\x00812.620300293843.874938965827.425109863820.845214844812.620300293843.874938965840.584960938830.715087891810.975280762837.29498291\x00840.584960938837.29498291\x00809.330322266837.29498291\x00843.874938965845.519897461814.265258789838.940002441858.679748535837.29498291\x00812.620300293837.29498291\x00845.519897461837.29498291\x00814.265258789835.650024414847.164855957827.425109863815.91027832\x00835.650024414840.584960938830.715087891809.330322266840.584960938850.454833984835.650024414812.620300293843.874938965868.549621582830.715087891814.265258789845.519897461871.839599609835.650024414814.265258789840.584960938861.969726562847.164855957819.200195312843.874938965857.034729004840.584960938817.555236816840.584960938843.874938965847.164855957817.555236816837.29498291\x00835.650024414843.874938965819.200195312840.584960938868.549621582842.229919434815.91027832\x00834.005004883855.389770508852.09979248\x00817.555236816835.650024414852.09979248\x00842.229919434814.265258789840.584960938845.519897461835.650024414812.620300293843.874938965843.874938965840.584960938812.620300293840.584960938842.229919434842.229919434815.91027832\x00838.940002441853.744812012845.519897461819.200195312838.940002441845.519897461837.29498291\x00815.91027832\x00835.650024414843.874938965847.164855957817.555236816840.584960938870.194580078842.229919434819.200195312843.874938965861.969726562847.164855957817.555236816842.229919434835.650024414842.229919434817.555236816840.584960938845.519897461843.874938965815.91027832\x00838.940002441845.519897461838.940002441810.975280762840.584960938853.744812012840.584960938814.265258789842.229919434845.519897461843.874938965817.555236816840.584960938848.809875488835.650024414814.265258789837.29498291\x00829.070068359834.005004883814.265258789832.360046387848.809875488838.940002441812.620300293830.715087891850.454833984827.425109863812.620300293834.005004883852.09979248\x00834.005004883817.555236816832.360046387853.744812012837.29498291\x00819.200195312834.005004883845.519897461837.29498291\x00819.200195312840.584960938842.229919434834.005004883817.555236816843.874938965835.650024414835.650024414809.330322266837.29498291\x00853.744812012832.360046387807.68536377\x00838.940002441837.29498291\x00842.229919434812.620300293832.360046387824.135131836847.164855957815.91027832\x00834.005004883834.005004883840.584960938819.200195312834.005004883822.49017334\x00840.584960938819.200195312834.005004883825.780151367853.744812012815.91027832\x00838.940002441829.070068359840.584960938812.620300293838.940002441827.425109863838.940002441812.620300293845.519897461830.715087891837.29498291\x00814.265258789838.940002441847.164855957835.650024414815.91027832\x00842.229919434837.29498291\x00850.454833984819.200195312847.164855957832.360046387840.584960938812.620300293843.874938965837.29498291\x00843.874938965806.040344238842.229919434847.164855957852.09979248\x00815.91027832\x00838.940002441847.164855957829.070068359820.845214844834.005004883822.49017334\x00817.555236816817.555236816834.005004883820.845214844806.040344238819.200195312830.715087891807.68536377\x00802.750427246815.91027832\x00827.425109863794.525512695810.975280762819.200195312822.49017334\x00815.91027832\x00792.880554199827.425109863815.91027832\x00776.430725098781.365661621829.070068359812.620300293763.270874023771.495788574830.715087891815.91027832\x00763.270874023769.850830078825.780151367817.555236816756.690979004778.075683594825.780151367817.555236816773.14074707\x00778.075683594824.135131836815.91027832\x00781.365661621787.945556641824.135131836814.265258789789.590576172806.040344238820.845214844822.49017334\x00806.040344238807.68536377\x00817.555236816822.49017334\x00796.170471191807.68536377\x00820.845214844827.425109863786.300598145817.555236816822.49017334\x00825.780151367799.460449219822.49017334\x00827.425109863820.845214844799.460449219817.555236816825.780151367824.135131836806.040344238820.845214844824.135131836830.715087891820.845214844824.135131836827.425109863829.070068359817.555236816825.780151367825.780151367825.780151367810.975280762'
tb.