cnumpy.core.multiarray
_reconstruct
p1
(cnumpy
ndarray
p2
(I0
tS'b'
tRp3
(I1
(I16
I4
tcnumpy
dtype
p4
(S'S15'
I0
I1
tRp5
(I3
S'|'
NNNI15
I1
I0
tbI00
S'0.316477298737\x000.390588194132\x000.177151843905\x000.595854699612\x000.296121150255\x000.385018229485\x000.177151843905\x000.583876669407\x000.274884134531\x000.369308799505\x000.171022504568\x000.583876669407\x000.262918710709\x000.357204735279\x000.162280499935\x000.583876669407\x000.262918710709\x000.357204735279\x000.158485680819\x000.583876669407\x000.262918710709\x000.357204735279\x000.158485680819\x000.583876669407\x000.262918710709\x000.357204735279\x000.158485680819\x000.583876669407\x000.262537509203\x000.357204735279\x000.158485680819\x000.583876669407\x000.262537509203\x000.357204735279\x000.158485680819\x000.583876669407\x000.262537509203\x000.352773964405\x000.215304225683\x000.639628946781\x000.262537509203\x000.352703005075\x000.377960801125\x000.73085296154\x00\x000.262537509203\x000.358261704445\x000.478090524673\x000.816045343876\x000.054234046489\x000.366228401661\x000.503174781799\x000.803277909756\x000.054234046489\x000.369932234287\x000.510913133621\x000.807672917843\x000.05469831079240.367561250925\x000.516831755638\x000.808381199837\x000.05469831079240.31841763854\x00\x000.516831755638\x000.812296628952\x00'
tb.