cnumpy.core.multiarray
_reconstruct
p1
(cnumpy
ndarray
p2
(I0
tS'b'
tRp3
(I1
(I134
I4
tcnumpy
dtype
p4
(S'S15'
I0
I1
tRp5
(I3
S'|'
NNNI15
I1
I0
tbI00
S'0.06525767594580.241607800126\x000.61693751812\x00\x000.04541068151590.06525767594580.238218039274\x000.580875337124\x000.04541068151590.06525767594580.248966217041\x000.553944945335\x000.04541068151590.06525767594580.267586231232\x000.549394369125\x000.04541068151590.06525767594580.283293038607\x000.564513027668\x000.04541068151590.06525767594580.297012150288\x000.582471966743\x000.04541068151590.06525767594580.304333597422\x000.598569869995\x000.04541068151590.06525767594580.308138042688\x000.617224812508\x000.04541068151590.06525767594580.305415838957\x000.642344713211\x000.04541068151590.06525767594580.300533294678\x000.673929035664\x000.04541068151590.06525767594580.305489808321\x000.700367093086\x000.04541068151590.06525767594580.318892896175\x000.718402206898\x000.04541068151590.06525767594580.339610159397\x000.7278855443\x00\x00\x000.04541068151590.06525767594580.362869352102\x000.733846783638\x000.04541068151590.06525767594580.381886184216\x000.73837274313\x00\x000.04541068151590.06525767594580.391514480114\x000.742558538914\x000.04541068151590.06525767594580.397052198648\x000.745509684086\x000.04541068151590.06525767594580.404057174921\x000.74572712183\x00\x000.04541068151590.06525767594580.406236678362\x000.738637208939\x000.04541068151590.06525767594580.41233637929\x00\x000.727923989296\x000.04541068151590.06525767594580.433612048626\x000.716450929642\x000.04541068151590.110087879002\x000.469521045685\x000.70776951313\x00\x000.04541068151590.110087879002\x000.5108076334\x00\x00\x000.698307931423\x000.04541068151590.110087879002\x000.549188971519\x000.682087004185\x000.04541068151590.110087879002\x000.574799239635\x000.648603975773\x000.04541068151590.110087879002\x000.5842192173\x00\x00\x000.591500282288\x000.04541068151590.110087879002\x000.579975008965\x000.537436246872\x000.04541068151590.110087879002\x000.56781899929\x00\x000.517962098122\x000.04541068151590.110087879002\x000.563169717789\x000.523645341396\x000.04541068151590.110087879002\x000.567091941833\x000.538652300835\x000.04541068151590.110087879002\x000.579322755337\x000.552344560623\x000.04541068151590.110087879002\x000.596694588661\x000.558386147022\x000.04541068151590.110087879002\x000.609972715378\x000.563514053822\x000.04541068151590.110087879002\x000.616858899593\x000.573810517788\x000.04541068151590.110087879002\x000.620932340622\x000.584416031837\x000.04541068151590.110087879002\x000.617791712284\x000.587095439434\x000.04541068151590.110087879002\x000.607517719269\x000.574970006943\x000.04541068151590.110087879002\x000.592640161514\x000.549928069115\x000.04541068151590.458765089512\x000.582181990147\x000.52820545435\x00\x000.04541068151590.473786741495\x000.580593585968\x000.517362773418\x000.04541068151590.479383856058\x000.587142527103\x000.512008845806\x000.04541068151590.479397535324\x000.596913099289\x000.514301776886\x000.04541068151590.48036468029\x00\x000.605961859226\x000.513979792595\x000.04541068151590.48036468029\x00\x000.613878667355\x000.513037323952\x000.04541068151590.48036468029\x00\x000.61613625288\x00\x000.514159977436\x000.04541068151590.48036468029\x00\x000.612178385258\x000.517592549324\x000.04541068151590.48036468029\x00\x000.602506160736\x000.522797107697\x000.04541068151590.48036468029\x00\x000.589252591133\x000.532346367836\x000.04541068151590.48036468029\x00\x000.576228201389\x000.554036915302\x000.04541068151590.48036468029\x00\x000.567851424217\x000.593159735203\x000.04541068151590.500912487507\x000.564399302006\x000.642803132534\x000.04541068151590.515941262245\x000.547776818275\x000.686715960503\x000.04541068151590.526248574257\x000.521821498871\x000.716097354889\x000.04541068151590.527093827724\x000.486518919468\x000.731975018978\x000.04541068151590.527093827724\x000.442885428667\x000.741675317287\x000.04541068151590.527093827724\x000.392035573721\x000.747888863087\x000.04541068151590.527093827724\x000.341578841209\x000.754749059677\x000.04541068151590.527093827724\x000.304237693548\x000.759029567242\x000.04541068151590.527093827724\x000.299398571253\x000.761439859867\x000.04541068151590.527093827724\x000.329792350531\x000.762834131718\x000.04541068151590.527093827724\x000.377131670713\x000.764162242413\x000.04541068151590.527093827724\x000.421234428883\x000.765916347504\x000.04541068151590.527093827724\x000.450387537479\x000.767011106014\x000.04541068151590.527093827724\x000.465450316668\x000.766279935837\x000.04541068151590.527093827724\x000.475220412016\x000.762735068798\x000.04541068151590.527093827724\x000.488201111555\x000.755642235279\x000.04541068151590.527093827724\x000.508706927299\x000.746847093105\x000.04541068151590.527093827724\x000.535222351551\x000.738780915737\x000.04541068151590.527093827724\x000.566218078136\x000.732979238033\x000.04541068151590.527093827724\x000.602883636951\x000.728933155537\x000.04541068151590.527093827724\x000.64819586277\x00\x000.726320922375\x000.04541068151590.274866819382\x000.694927692413\x000.725508749485\x000.04541068151590.267553210258\x000.735141932964\x000.721683204174\x000.04541068151590.252232611179\x000.757740914822\x000.70928889513\x00\x000.04541068151590.232544794679\x000.762609660625\x000.693492352962\x000.04541068151590.215572148561\x000.744681477547\x000.670222818851\x000.01570651121440.206301808357\x000.70434898138\x00\x000.63301551342\x00\x000.01572455838320.209194645286\x000.659887671471\x000.605254888535\x000.01916434802110.22723968327\x00\x000.62860584259\x00\x000.591773033142\x000.02597193978730.255483418703\x000.607834219933\x000.578602612019\x000.02597193978730.284190416336\x000.584014177322\x000.537563145161\x000.02597193978730.302203893661\x000.540534734726\x000.427893579006\x000.02597193978730.309190005064\x000.47777941823\x00\x000.304723471403\x000.02597193978730.325750917196\x000.415003627539\x000.226150676608\x000.02597193978730.344247370958\x000.399669408798\x000.211738362908\x000.02597193978730.357642591\x00\x00\x00\x000.421266317368\x000.237187504768\x000.02597193978730.371361076832\x000.451348155737\x000.271883666515\x000.02597193978730.384068518877\x000.471396416426\x000.294120520353\x000.02520982176070.395323306322\x000.47942379117\x00\x000.307990342379\x000.02671972103420.405638277531\x000.479081511497\x000.32734104991\x00\x000.03080871701240.412312299013\x000.475663393736\x000.357067376375\x000.03080871701240.416723281145\x000.47278675437\x00\x000.390343636274\x000.03080871701240.414494693279\x000.471761763096\x000.415959954262\x000.03080871701240.402165651321\x000.474167138338\x000.429931282997\x000.03080871701240.382073789835\x000.484292656183\x000.436474353075\x000.03080871701240.355604618788\x000.502597093582\x000.442215055227\x000.03080871701240.327423244715\x000.526086449623\x000.451008915901\x000.03080871701240.301096916199\x000.551033735275\x000.462118208408\x000.03080871701240.276227891445\x000.574652433395\x000.469650745392\x000.03080871701240.252342730761\x000.596616268158\x000.476217955351\x000.03080871701240.225629493594\x000.623626291752\x000.487620979548\x000.03080871701240.201491996646\x000.657055020332\x000.499699413776\x000.03080871701240.181895107031\x000.675321936607\x000.502432703972\x000.03080871701240.164206758142\x000.686590850353\x000.504773139954\x000.03080871701240.148300796747\x000.696774542332\x000.500260174274\x000.03080871701240.138636231422\x000.705989003181\x000.485982179642\x000.03080871701240.1395521909\x00\x00\x000.715756237507\x000.470752805471\x000.03080871701240.152232930064\x000.723690867424\x000.462400734425\x000.03080871701240.173626378179\x000.729379594326\x000.465981930494\x000.03080871701240.199764862657\x000.732064545155\x000.468342125416\x000.350274056196\x000.224645107985\x000.731184959412\x000.461158484221\x000.346882045269\x000.240389555693\x000.727343738079\x000.440305292606\x000.336185127497\x000.248948097229\x000.719586968422\x000.405419707298\x000.322778314352\x000.251227289438\x000.707118690014\x000.38038751483\x00\x000.308621227741\x000.258019417524\x000.688023507595\x000.380624651909\x000.308621227741\x000.261771291494\x000.670325994492\x000.430032372475\x000.308621227741\x000.263727515936\x000.629839241505\x000.499495059252\x000.308621227741\x000.266300320625\x000.606479585171\x000.548688948154\x000.308621227741\x000.272969126701\x000.593331098557\x000.586359679699\x000.308621227741\x000.28512558341\x00\x000.602224290371\x000.614920020103\x000.308621227741\x000.302398234606\x000.619868040085\x000.637951672077\x000.308621227741\x000.317109972239\x000.64436519146\x00\x000.655076861382\x000.330977618694\x000.317068696022\x000.672011077404\x000.665017962456\x000.348569273949\x000.301588892937\x000.696680903435\x000.669717550278\x000.357988595963\x000.272103607655\x000.713815391064\x000.669264912605\x000.351996958256\x000.272103607655\x000.721252799034\x000.664434850216\x000.351996958256\x000.272103607655\x000.720913946629\x000.658485889435\x000.351996958256\x000.272103607655\x000.71776086092\x00\x000.653263986111\x000.351996958256\x000.272103607655\x000.715499699116\x000.648508012295\x000.351996958256\x000.272103607655\x000.713965654373\x000.645070433617\x000.351996958256\x000.272103607655\x000.713379204273\x000.644464015961\x000.351996958256\x000.272103607655\x000.714908957481\x000.648369073868\x000.351996958256\x000.272103607655\x000.719717383385\x000.652857720852\x000.351996958256\x000.272103607655\x000.730020523071\x000.662729918957\x000.351996958256\x00'
tb.