cnumpy.core.multiarray
_reconstruct
p1
(cnumpy
ndarray
p2
(I0
tS'b'
tRp3
(I1
(I27
I4
tcnumpy
dtype
p4
(S'S15'
I0
I1
tRp5
(I3
S'|'
NNNI15
I1
I0
tbI00
S'0.752949655056\x00-0.57997584343\x00-0.7039644718171.13889455795\x00\x000.752949655056\x00-0.583423852921-0.6825640797621.13889455795\x00\x000.752949655056\x00-0.584455311298-0.67188334465\x001.13889455795\x00\x000.752949655056\x00-0.575804948807-0.6725558638571.13889455795\x00\x000.45105651021\x00\x00-0.547418832779-0.6801542639731.13889455795\x00\x000.446969866753\x00-0.498536765575-0.6876420378681.13889455795\x00\x000.43935623765\x00\x00-0.439906567335-0.6882309317591.13889455795\x00\x000.429789125919\x00-0.384372889996-0.6818435788151.13889455795\x00\x000.422886759043\x00-0.338518828154-0.6705168485641.13889455795\x00\x000.427108436823\x00-0.302695930004-0.6565567255021.00802493095\x00\x000.446503400803\x00-0.272793114185-0.6384682059291.00802493095\x00\x000.477105349302\x00-0.24667416513\x00-0.6157870888711.00802493095\x00\x000.509388804436\x00-0.224857360125-0.5916206240651.00802493095\x00\x000.534953117371\x00-0.208832010627-0.5695151686671.00802493095\x00\x000.549574494362\x00-0.198314532638-0.5512708425521.00802493095\x00\x000.554357945919\x00-0.192152172327-0.5354055166241.00802493095\x00\x000.556677043438\x00-0.188298821449-0.5193901658061.00802493095\x00\x000.558481156826\x00-0.185837283731-0.4994041025641.00802493095\x00\x000.558639466763\x00-0.174022674561-0.4721549749371.00802493095\x00\x000.555855453014\x00-0.181875616312-0.4373163878921.00802493095\x00\x000.550494074821\x00-0.200650408864-0.3986586630341.00802493095\x00\x000.543912827969\x00-0.229445263743-0.3622697293761.00802493095\x00\x000.536395609379\x00-0.261501610279-0.3309703469281.00802493095\x00\x000.526570916176\x00-0.287249863148-0.3059680163861.00802493095\x00\x000.509809970856\x00-0.298326551914-0.2856998741631.00802493095\x00\x000.481267809868\x00-0.292054265738-0.26886972785\x001.00802493095\x00\x000.439176559448\x00-0.271694362164-0.2557439804081.00802493095\x00\x00'
tb.