cnumpy.core.multiarray
_reconstruct
p1
(cnumpy
ndarray
p2
(I0
tS'b'
tRp3
(I1
(I27
I4
tcnumpy
dtype
p4
(S'S14'
I0
I1
tRp5
(I3
S'|'
NNNI14
I1
I0
tbI00
S'1.30578660965\x001.06784582138\x001.24619352818\x001.12667024136\x001.27747094631\x001.04541873932\x001.22534179688\x000.4574140012261.24057042599\x001.011526227\x00\x00\x001.19793963432\x000.4574140012261.21347630024\x000.9647001624111.16778719425\x000.4574140012261.19820702076\x000.9097874164581.13892805576\x000.4574140012261.18533396721\x000.8578479290011.11534464359\x000.4574140012261.16547679901\x000.8206686377531.10042214394\x000.4574140012261.14025783539\x000.8025869727131.09384512901\x000.4574140012261.11924302578\x000.7962583303451.09236776829\x000.4574140012261.10849070549\x000.7927476167681.09009695053\x000.4574140012261.10721457005\x000.7854537367821.07697153091\x000.5859524607661.11109149456\x000.7636750936511.03810155392\x000.6873727440831.11627745628\x000.7150884866710.9593195319180.7564590573311.11667454243\x000.6342508196830.8302589058880.8345047235491.11904370785\x000.52863997221\x000.65200740099\x000.89691221714\x001.12707602978\x000.4233874678610.4477148652080.9327380061151.13483762741\x000.35058054328\x000.27088624239\x000.9421809315681.13619852066\x000.3107569515710.1658971905710.9421809315681.14439427853\x000.28566429019\x000.1222173646090.9421809315681.14943027496\x000.3210918903350.1681103855370.9421809315681.1557264328\x00\x000.5206908583640.4060268998150.9421809315681.17153990269\x000.8132646083830.7423481941220.9421809315681.19790267944\x001.07425963879\x001.03620660305\x000.9421809315681.22686588764\x001.26624178886\x001.25249755383\x000.9421809315681.25153708458\x001.39259588718\x001.39600265026\x000.9421809315681.27036702633\x001.465939641\x00\x00\x001.48000812531\x000.9499606490141.28606140614\x001.50210976601\x001.52050244808\x000.939843893051'
tb.