cnumpy.core.multiarray
_reconstruct
p1
(cnumpy
ndarray
p2
(I0
tS'b'
tRp3
(I1
(I613
I4
tcnumpy
dtype
p4
(S'S13'
I0
I1
tRp5
(I3
S'|'
NNNI13
I1
I0
tbI00
S'883.354431152847.164855957810.975280762881.709472656909.674133301853.744812012814.265258789888.289367676899.804260254842.229919434815.91027832\x00889.934387207911.319091797832.360046387817.555236816893.224304199924.478942871832.360046387819.200195312899.804260254870.194580078840.584960938814.265258789891.579345703863.614685059855.389770508812.620300293880.064453125894.86932373\x00842.229919434817.555236816888.289367676901.44921875\x00838.940002441825.780151367886.64440918\x00886.64440918\x00845.519897461819.200195312881.709472656896.514282227840.584960938822.49017334\x00893.224304199881.709472656845.519897461822.49017334\x00888.289367676880.064453125838.940002441822.49017334\x00883.354431152881.709472656853.744812012814.265258789848.809875488893.224304199832.360046387819.200195312863.614685059903.094238281827.425109863820.845214844876.774536133906.384155273838.940002441822.49017334\x00875.129516602916.25402832\x00827.425109863829.070068359889.934387207891.579345703843.874938965820.845214844891.579345703883.354431152842.229919434810.975280762871.839599609888.289367676827.425109863819.200195312871.839599609880.064453125843.874938965824.135131836876.774536133860.324707031848.809875488820.845214844857.034729004865.259643555835.650024414830.715087891884.999450684848.809875488829.070068359832.360046387888.289367676840.584960938832.360046387825.780151367871.839599609866.904663086835.650024414820.845214844865.259643555855.389770508843.874938965820.845214844857.034729004873.484558105843.874938965824.135131836858.679748535866.904663086834.005004883827.425109863853.744812012837.29498291\x00838.940002441822.49017334\x00858.679748535845.519897461837.29498291\x00820.845214844866.904663086827.425109863845.519897461812.620300293857.034729004853.744812012840.584960938820.845214844863.614685059837.29498291\x00835.650024414824.135131836871.839599609852.09979248\x00840.584960938819.200195312863.614685059842.229919434838.940002441819.200195312875.129516602888.289367676829.070068359819.200195312865.259643555852.09979248\x00838.940002441814.265258789843.874938965832.360046387838.940002441820.845214844865.259643555847.164855957837.29498291\x00820.845214844868.549621582824.135131836835.650024414822.49017334\x00865.259643555852.09979248\x00842.229919434819.200195312855.389770508852.09979248\x00834.005004883820.845214844837.29498291\x00840.584960938840.584960938822.49017334\x00840.584960938873.484558105829.070068359824.135131836838.940002441853.744812012837.29498291\x00815.91027832\x00822.49017334\x00829.070068359843.874938965810.975280762825.780151367847.164855957834.005004883814.265258789838.940002441834.005004883835.650024414812.620300293840.584960938855.389770508820.845214844820.845214844857.034729004850.454833984838.940002441814.265258789834.005004883829.070068359838.940002441815.91027832\x00837.29498291\x00838.940002441834.005004883819.200195312850.454833984819.200195312829.070068359814.265258789847.164855957801.105407715830.715087891815.91027832\x00852.09979248\x00804.395385742830.715087891817.555236816847.164855957837.29498291\x00838.940002441814.265258789840.584960938843.874938965829.070068359817.555236816853.744812012842.229919434832.360046387820.845214844855.389770508830.715087891842.229919434815.91027832\x00855.389770508822.49017334\x00827.425109863812.620300293863.614685059822.49017334\x00843.874938965806.040344238847.164855957804.395385742838.940002441802.750427246825.780151367838.940002441822.49017334\x00812.620300293852.09979248\x00837.29498291\x00827.425109863812.620300293832.360046387829.070068359837.29498291\x00807.68536377\x00832.360046387852.09979248\x00838.940002441809.330322266838.940002441840.584960938837.29498291\x00814.265258789842.229919434863.614685059830.715087891814.265258789852.09979248\x00847.164855957842.229919434807.68536377\x00838.940002441825.780151367848.809875488804.395385742820.845214844840.584960938861.969726562796.170471191820.845214844845.519897461850.454833984799.460449219840.584960938852.09979248\x00850.454833984799.460449219848.809875488860.324707031845.519897461804.395385742870.194580078861.969726562843.874938965804.395385742852.09979248\x00861.969726562852.09979248\x00807.68536377\x00848.809875488843.874938965848.809875488807.68536377\x00855.389770508860.324707031852.09979248\x00810.975280762845.519897461853.744812012845.519897461810.975280762853.744812012843.874938965847.164855957806.040344238845.519897461860.324707031843.874938965806.040344238848.809875488830.715087891858.679748535799.460449219832.360046387861.969726562853.744812012812.620300293835.650024414853.744812012861.969726562810.975280762842.229919434840.584960938853.744812012809.330322266835.650024414848.809875488843.874938965814.265258789845.519897461855.389770508848.809875488814.265258789843.874938965857.034729004852.09979248\x00819.200195312838.940002441837.29498291\x00866.904663086810.975280762827.425109863873.484558105852.09979248\x00815.91027832\x00843.874938965870.194580078855.389770508809.330322266840.584960938881.709472656857.034729004814.265258789855.389770508866.904663086852.09979248\x00815.91027832\x00860.324707031809.330322266865.259643555807.68536377\x00852.09979248\x00848.809875488853.744812012812.620300293853.744812012815.91027832\x00847.164855957814.265258789857.034729004817.555236816858.679748535812.620300293853.744812012850.454833984855.389770508815.91027832\x00857.034729004848.809875488855.389770508814.265258789858.679748535860.324707031843.874938965815.91027832\x00853.744812012838.940002441863.614685059812.620300293857.034729004827.425109863858.679748535812.620300293857.034729004822.49017334\x00860.324707031815.91027832\x00857.034729004857.034729004868.549621582812.620300293842.229919434871.839599609847.164855957817.555236816865.259643555865.259643555858.679748535815.91027832\x00858.679748535870.194580078852.09979248\x00810.975280762857.034729004838.940002441853.744812012802.750427246843.874938965819.200195312858.679748535806.040344238824.135131836881.709472656837.29498291\x00814.265258789838.940002441868.549621582858.679748535812.620300293840.584960938850.454833984838.940002441825.780151367852.09979248\x00857.034729004863.614685059817.555236816847.164855957810.975280762861.969726562819.200195312847.164855957842.229919434861.969726562820.845214844850.454833984835.650024414858.679748535817.555236816850.454833984837.29498291\x00853.744812012817.555236816850.454833984858.679748535847.164855957822.49017334\x00857.034729004830.715087891852.09979248\x00819.200195312857.034729004827.425109863847.164855957820.845214844855.389770508820.845214844848.809875488822.49017334\x00853.744812012838.940002441863.614685059819.200195312847.164855957857.034729004850.454833984825.780151367857.034729004843.874938965853.744812012819.200195312850.454833984847.164855957845.519897461822.49017334\x00855.389770508814.265258789850.454833984819.200195312852.09979248\x00830.715087891863.614685059814.265258789848.809875488845.519897461861.969726562815.91027832\x00838.940002441829.070068359840.584960938814.265258789838.940002441868.549621582837.29498291\x00824.135131836855.389770508842.229919434848.809875488822.49017334\x00847.164855957829.070068359855.389770508820.845214844822.49017334\x00865.259643555855.389770508829.070068359842.229919434881.709472656848.809875488824.135131836825.780151367861.969726562845.519897461822.49017334\x00827.425109863866.904663086850.454833984824.135131836837.29498291\x00802.750427246868.549621582810.975280762820.845214844830.715087891842.229919434825.780151367848.809875488857.034729004840.584960938830.715087891873.484558105829.070068359850.454833984825.780151367876.774536133827.425109863850.454833984824.135131836860.324707031829.070068359855.389770508819.200195312820.845214844825.780151367850.454833984820.845214844845.519897461827.425109863858.679748535815.91027832\x00819.200195312840.584960938853.744812012825.780151367840.584960938832.360046387868.549621582822.49017334\x00852.09979248\x00866.904663086865.259643555822.49017334\x00820.845214844857.034729004873.484558105820.845214844829.070068359843.874938965878.419494629822.49017334\x00837.29498291\x00847.164855957881.709472656820.845214844832.360046387863.614685059891.579345703820.845214844835.650024414837.29498291\x00883.354431152820.845214844837.29498291\x00880.064453125884.999450684822.49017334\x00843.874938965880.064453125888.289367676825.780151367853.744812012853.744812012884.999450684825.780151367845.519897461876.774536133883.354431152829.070068359852.09979248\x00852.09979248\x00896.514282227822.49017334\x00840.584960938850.454833984898.159240723819.200195312853.744812012861.969726562884.999450684824.135131836857.034729004878.419494629888.289367676819.200195312852.09979248\x00868.549621582881.709472656824.135131836857.034729004880.064453125880.064453125825.780151367865.259643555850.454833984889.934387207819.200195312873.484558105855.389770508883.354431152822.49017334\x00870.194580078871.839599609880.064453125819.200195312871.839599609847.164855957878.419494629817.555236816868.549621582873.484558105873.484558105822.49017334\x00878.419494629857.034729004868.549621582819.200195312888.289367676848.809875488873.484558105817.555236816876.774536133873.484558105884.999450684817.555236816886.64440918\x00875.129516602873.484558105820.845214844921.188964844860.324707031860.324707031809.330322266917.899047852876.774536133845.519897461814.265258789917.899047852866.904663086857.034729004804.395385742848.809875488893.224304199855.389770508807.68536377\x00824.135131836901.44921875\x00857.034729004810.975280762857.034729004861.969726562845.519897461810.975280762855.389770508863.614685059853.744812012804.395385742871.839599609853.744812012852.09979248\x00804.395385742853.744812012870.194580078843.874938965807.68536377\x00865.259643555888.289367676838.940002441804.395385742876.774536133858.679748535830.715087891804.395385742908.029174805870.194580078835.650024414804.395385742906.384155273888.289367676825.780151367804.395385742903.094238281883.354431152822.49017334\x00801.105407715886.64440918\x00878.419494629829.070068359802.750427246858.679748535876.774536133819.200195312797.815490723843.874938965878.419494629817.555236816801.105407715848.809875488873.484558105817.555236816802.750427246866.904663086860.324707031810.975280762806.040344238878.419494629827.425109863815.91027832\x00801.105407715880.064453125853.744812012812.620300293806.040344238881.709472656891.579345703814.265258789804.395385742863.614685059883.354431152815.91027832\x00802.750427246884.999450684875.129516602809.330322266804.395385742894.86932373\x00842.229919434820.845214844797.815490723883.354431152825.780151367806.040344238802.750427246894.86932373\x00858.679748535820.845214844802.750427246889.934387207852.09979248\x00812.620300293806.040344238873.484558105861.969726562810.975280762812.620300293893.224304199861.969726562809.330322266815.91027832\x00886.64440918\x00852.09979248\x00820.845214844806.040344238858.679748535875.129516602799.460449219810.975280762863.614685059843.874938965802.750427246807.68536377\x00868.549621582812.620300293825.780151367799.460449219855.389770508852.09979248\x00820.845214844806.040344238866.904663086870.194580078820.845214844802.750427246881.709472656868.549621582809.330322266804.395385742847.164855957873.484558105809.330322266801.105407715860.324707031832.360046387815.91027832\x00796.170471191866.904663086843.874938965812.620300293794.525512695870.194580078843.874938965817.555236816794.525512695871.839599609858.679748535819.200195312794.525512695865.259643555827.425109863825.780151367787.945556641857.034729004847.164855957825.780151367786.300598145866.904663086888.289367676812.620300293796.170471191878.419494629842.229919434819.200195312794.525512695878.419494629817.555236816845.519897461787.945556641858.679748535829.070068359829.070068359794.525512695853.744812012868.549621582815.91027832\x00797.815490723855.389770508871.839599609817.555236816797.815490723870.194580078850.454833984820.845214844799.460449219865.259643555822.49017334\x00838.940002441796.170471191868.549621582842.229919434842.229919434797.815490723860.324707031891.579345703825.780151367806.040344238880.064453125850.454833984838.940002441799.460449219870.194580078843.874938965830.715087891801.105407715884.999450684807.68536377\x00843.874938965801.105407715888.289367676820.845214844819.200195312806.040344238891.579345703847.164855957814.265258789810.975280762914.609069824817.555236816843.874938965801.105407715888.289367676847.164855957819.200195312814.265258789908.029174805829.070068359838.940002441806.040344238889.934387207830.715087891840.584960938801.105407715876.774536133825.780151367830.715087891806.040344238889.934387207838.940002441842.229919434804.395385742881.709472656873.484558105829.070068359807.68536377\x00883.354431152876.774536133820.845214844802.750427246891.579345703838.940002441829.070068359797.815490723880.064453125838.940002441840.584960938801.105407715871.839599609834.005004883829.070068359809.330322266899.804260254850.454833984825.780151367809.330322266896.514282227840.584960938830.715087891804.395385742886.64440918\x00853.744812012830.715087891806.040344238891.579345703845.519897461845.519897461807.68536377\x00880.064453125847.164855957832.360046387812.620300293878.419494629801.105407715835.650024414804.395385742858.679748535843.874938965834.005004883810.975280762866.904663086824.135131836834.005004883809.330322266850.454833984870.194580078835.650024414812.620300293860.324707031876.774536133832.360046387817.555236816865.259643555853.744812012838.940002441810.975280762858.679748535847.164855957830.715087891809.330322266868.549621582843.874938965832.360046387806.040344238865.259643555853.744812012840.584960938806.040344238838.940002441817.555236816835.650024414807.68536377\x00843.874938965834.005004883840.584960938809.330322266848.809875488838.940002441824.135131836810.975280762848.809875488830.715087891837.29498291\x00809.330322266850.454833984840.584960938832.360046387809.330322266853.744812012802.750427246845.519897461806.040344238847.164855957827.425109863848.809875488809.330322266853.744812012848.809875488827.425109863812.620300293868.549621582824.135131836840.584960938809.330322266840.584960938814.265258789824.135131836815.91027832\x00848.809875488810.975280762834.005004883806.040344238840.584960938810.975280762843.874938965807.68536377\x00840.584960938842.229919434827.425109863817.555236816860.324707031837.29498291\x00832.360046387814.265258789852.09979248\x00806.040344238837.29498291\x00810.975280762843.874938965847.164855957825.780151367819.200195312857.034729004852.09979248\x00835.650024414815.91027832\x00838.940002441827.425109863832.360046387809.330322266825.780151367829.070068359829.070068359812.620300293830.715087891829.070068359847.164855957806.040344238820.845214844812.620300293838.940002441804.395385742822.49017334\x00855.389770508832.360046387815.91027832\x00842.229919434824.135131836825.780151367814.265258789842.229919434842.229919434837.29498291\x00814.265258789832.360046387845.519897461837.29498291\x00814.265258789827.425109863768.205810547842.229919434814.265258789799.460449219840.584960938829.070068359814.265258789814.265258789865.259643555825.780151367819.200195312850.454833984807.68536377\x00832.360046387817.555236816855.389770508829.070068359837.29498291\x00815.91027832\x00815.91027832\x00825.780151367830.715087891820.845214844834.005004883814.265258789838.940002441812.620300293834.005004883843.874938965827.425109863814.265258789830.715087891845.519897461832.360046387815.91027832\x00847.164855957815.91027832\x00843.874938965810.975280762825.780151367827.425109863834.005004883817.555236816829.070068359845.519897461837.29498291\x00817.555236816835.650024414817.555236816827.425109863815.91027832\x00834.005004883794.525512695843.874938965810.975280762815.91027832\x00822.49017334\x00842.229919434812.620300293822.49017334\x00845.519897461835.650024414817.555236816838.940002441838.940002441845.519897461814.265258789817.555236816822.49017334\x00842.229919434817.555236816817.555236816817.555236816848.809875488812.620300293810.975280762814.265258789837.29498291\x00814.265258789817.555236816835.650024414835.650024414819.200195312835.650024414852.09979248\x00827.425109863822.49017334\x00829.070068359822.49017334\x00842.229919434815.91027832\x00830.715087891814.265258789853.744812012809.330322266807.68536377\x00819.200195312835.650024414819.200195312824.135131836815.91027832\x00847.164855957819.200195312815.91027832\x00838.940002441838.940002441827.425109863824.135131836802.750427246852.09979248\x00815.91027832\x00807.68536377\x00825.780151367842.229919434817.555236816815.91027832\x00850.454833984848.809875488817.555236816832.360046387842.229919434850.454833984812.620300293814.265258789830.715087891847.164855957809.330322266804.395385742820.845214844847.164855957812.620300293812.620300293792.880554199843.874938965810.975280762804.395385742834.005004883838.940002441817.555236816825.780151367857.034729004837.29498291\x00819.200195312842.229919434824.135131836840.584960938814.265258789825.780151367791.235534668835.650024414817.555236816838.940002441787.945556641838.940002441817.555236816843.874938965814.265258789840.584960938815.91027832\x00865.259643555812.620300293835.650024414819.200195312891.579345703837.29498291\x00842.229919434815.91027832\x00840.584960938797.815490723842.229919434815.91027832\x00824.135131836764.91583252\x00850.454833984809.330322266801.105407715852.09979248\x00838.940002441814.265258789822.49017334\x00834.005004883840.584960938815.91027832\x00843.874938965837.29498291\x00845.519897461814.265258789835.650024414837.29498291\x00847.164855957814.265258789835.650024414802.750427246845.519897461817.555236816865.259643555845.519897461850.454833984820.845214844873.484558105835.650024414855.389770508817.555236816858.679748535837.29498291\x00860.324707031819.200195312857.034729004820.845214844865.259643555822.49017334\x00891.579345703827.425109863850.454833984832.360046387926.123962402776.430725098866.904663086824.135131836896.514282227776.430725098868.549621582824.135131836921.188964844799.460449219860.324707031829.070068359894.86932373\x00847.164855957875.129516602824.135131836919.544006348838.940002441868.549621582832.360046387949.153686523863.614685059883.354431152822.49017334\x00906.384155273848.809875488889.934387207817.555236816914.609069824866.904663086886.64440918\x00824.135131836912.964111328926.123962402868.549621582830.715087891927.768920898921.188964844884.999450684820.845214844942.573730469945.863708496880.064453125822.49017334\x00944.218688965935.993835449893.224304199817.555236816955.733581543947.508666992889.934387207817.555236816968.893432617903.094238281883.354431152820.845214844993.568115234924.478942871881.709472656822.49017334\x001000.14807129919.544006348883.354431152819.200195312988.633178711899.804260254880.064453125820.8452148441000.14807129906.384155273883.354431152817.5552368161000.14807129932.703857422866.904663086819.200195312995.213134766962.313476562873.484558105812.620300293988.633178711950.79864502\x00870.194580078810.975280762983.698242188931.058898926857.034729004809.330322266985.343200684926.123962402861.969726562804.395385742996.858093262929.413879395855.389770508799.460449219990.278137207947.508666992848.809875488799.460449219995.213134766942.573730469848.809875488792.8805541991006.72796631960.668518066837.29498291\x00787.9455566411019.88781738949.153686523843.874938965779.7207031251011.66290283962.313476562832.360046387778.075683594986.988220215916.25402832\x00817.555236816789.590576172968.893432617906.384155273809.330322266792.880554199965.60345459\x00944.218688965791.235534668804.395385742988.633178711945.863708496771.495788574802.750427246972.183410645929.413879395769.850830078804.395385742965.60345459\x00899.804260254756.690979004812.620300293972.183410645896.514282227755.045959473817.555236816977.118347168903.094238281759.980895996822.49017334\x00995.213134766894.86932373\x00743.53112793\x00832.360046387995.213134766908.029174805741.886108398835.650024414980.40826416\x00871.839599609748.466064453834.005004883959.02355957\x00888.289367676753.401000977838.940002441924.478942871866.904663086746.821105957847.164855957939.283752441868.549621582738.596191406852.09979248\x00950.79864502\x00884.999450684740.241149902855.389770508949.153686523881.709472656743.53112793\x00852.09979248\x00965.60345459\x00878.419494629755.045959473847.164855957967.248413086852.09979248\x00748.466064453848.809875488967.248413086868.549621582758.3359375\x00\x00845.519897461963.958496094852.09979248\x00745.176086426843.874938965973.828369141880.064453125755.045959473845.519897461962.313476562865.259643555755.045959473840.584960938967.248413086868.549621582766.560852051837.29498291\x00972.183410645888.289367676758.3359375\x00\x00840.584960938970.538391113850.454833984766.560852051832.360046387924.478942871861.969726562764.91583252\x00830.715087891929.413879395876.774536133768.205810547830.715087891934.348815918863.614685059779.720703125829.070068359912.964111328857.034729004783.010620117832.360046387940.928771973896.514282227769.850830078834.005004883954.088623047853.744812012783.010620117824.135131836917.899047852868.549621582781.365661621827.425109863921.188964844896.514282227786.300598145825.780151367927.768920898843.874938965781.365661621830.715087891932.703857422870.194580078792.880554199820.845214844889.934387207896.514282227784.655639648820.845214844911.319091797904.739196777802.750427246815.91027832\x00916.25402832\x00893.224304199807.68536377\x00814.265258789883.354431152894.86932373\x00791.235534668825.780151367922.833984375835.650024414789.590576172819.200195312921.188964844809.330322266801.105407715814.265258789903.094238281894.86932373\x00786.300598145817.555236816927.768920898873.484558105787.945556641814.265258789921.188964844878.419494629794.525512695814.265258789929.413879395863.614685059794.525512695809.330322266939.283752441852.09979248\x00807.68536377\x00806.040344238931.058898926875.129516602792.880554199806.040344238924.478942871876.774536133796.170471191804.395385742880.064453125886.64440918\x00791.235534668807.68536377\x00876.774536133860.324707031797.815490723804.395385742891.579345703881.709472656791.235534668806.040344238896.514282227901.44921875\x00783.010620117807.68536377\x00912.964111328866.904663086784.655639648802.750427246903.094238281865.259643555796.170471191802.750427246891.579345703888.289367676789.590576172802.750427246888.289367676901.44921875\x00766.560852051810.975280762917.899047852847.164855957789.590576172802.750427246903.094238281832.360046387778.075683594804.395385742889.934387207850.454833984799.460449219801.105407715894.86932373\x00858.679748535796.170471191802.750427246909.674133301898.159240723799.460449219804.395385742903.094238281888.289367676791.235534668809.330322266896.514282227878.419494629796.170471191809.330322266904.739196777850.454833984799.460449219812.620300293893.224304199868.549621582794.525512695812.620300293912.964111328845.519897461810.975280762809.330322266883.354431152886.64440918\x00787.945556641817.555236816896.514282227860.324707031806.040344238814.265258789893.224304199848.809875488802.750427246810.975280762901.44921875\x00850.454833984810.975280762810.975280762901.44921875\x00871.839599609806.040344238810.975280762883.354431152875.129516602809.330322266812.620300293880.064453125880.064453125794.525512695819.200195312876.774536133845.519897461819.200195312810.975280762860.324707031830.715087891820.845214844809.330322266861.969726562881.709472656812.620300293814.265258789868.549621582853.744812012812.620300293810.975280762884.999450684830.715087891820.845214844810.975280762880.064453125837.29498291\x00810.975280762815.91027832\x00884.999450684847.164855957810.975280762815.91027832\x00911.319091797857.034729004830.715087891814.265258789899.804260254871.839599609804.395385742822.49017334\x00919.544006348845.519897461812.620300293819.200195312912.964111328838.940002441827.425109863809.330322266824.135131836840.584960938817.555236816810.975280762843.874938965863.614685059815.91027832\x00814.265258789838.940002441840.584960938819.200195312809.330322266822.49017334\x00827.425109863819.200195312810.975280762848.809875488817.555236816825.780151367809.330322266837.29498291\x00827.425109863824.135131836812.620300293845.519897461835.650024414834.005004883810.975280762845.519897461863.614685059822.49017334\x00819.200195312860.324707031845.519897461829.070068359814.265258789857.034729004858.679748535815.91027832\x00815.91027832\x00865.259643555842.229919434825.780151367815.91027832\x00875.129516602852.09979248\x00829.070068359814.265258789863.614685059835.650024414837.29498291\x00810.975280762840.584960938845.519897461837.29498291\x00815.91027832\x00866.904663086834.005004883837.29498291\x00814.265258789858.679748535835.650024414827.425109863819.200195312860.324707031842.229919434845.519897461815.91027832\x00855.389770508817.555236816845.519897461814.265258789837.29498291\x00861.969726562832.360046387814.265258789830.715087891850.454833984837.29498291\x00815.91027832\x00843.874938965829.070068359834.005004883812.620300293835.650024414852.09979248\x00834.005004883815.91027832\x00860.324707031860.324707031835.650024414817.555236816866.904663086860.324707031835.650024414815.91027832\x00852.09979248\x00838.940002441835.650024414817.555236816853.744812012835.650024414837.29498291\x00819.200195312838.940002441824.135131836843.874938965814.265258789847.164855957834.005004883852.09979248\x00814.265258789853.744812012866.904663086840.584960938819.200195312834.005004883847.164855957840.584960938815.91027832\x00848.809875488827.425109863850.454833984807.68536377\x00860.324707031850.454833984840.584960938815.91027832\x00861.969726562848.809875488842.229919434812.620300293861.969726562842.229919434848.809875488814.265258789842.229919434855.389770508837.29498291\x00815.91027832\x00847.164855957845.519897461835.650024414817.555236816843.874938965848.809875488852.09979248\x00815.91027832\x00843.874938965891.579345703837.29498291\x00824.135131836850.454833984848.809875488860.324707031814.265258789852.09979248\x00857.034729004840.584960938815.91027832\x00870.194580078857.034729004834.005004883822.49017334\x00871.839599609838.940002441857.034729004812.620300293850.454833984868.549621582842.229919434817.555236816852.09979248\x00843.874938965858.679748535810.975280762847.164855957822.49017334\x00852.09979248\x00814.265258789843.874938965838.940002441835.650024414822.49017334\x00850.454833984855.389770508840.584960938822.49017334\x00868.549621582814.265258789847.164855957815.91027832\x00855.389770508822.49017334\x00847.164855957814.265258789863.614685059827.425109863850.454833984814.265258789855.389770508824.135131836852.09979248\x00810.975280762853.744812012838.940002441850.454833984817.555236816878.419494629822.49017334\x00845.519897461815.91027832\x00853.744812012830.715087891860.324707031812.620300293837.29498291\x00835.650024414850.454833984817.555236816850.454833984824.135131836847.164855957817.555236816853.744812012819.200195312843.874938965820.845214844875.129516602820.845214844858.679748535812.620300293880.064453125820.845214844852.09979248\x00817.555236816871.839599609853.744812012850.454833984820.845214844857.034729004829.070068359848.809875488820.845214844843.874938965809.330322266850.454833984820.845214844842.229919434801.105407715848.809875488820.845214844853.744812012824.135131836848.809875488824.135131836866.904663086838.940002441847.164855957825.780151367860.324707031814.265258789845.519897461824.135131836858.679748535817.555236816852.09979248\x00820.845214844863.614685059804.395385742845.519897461822.49017334\x00866.904663086835.650024414840.584960938824.135131836866.904663086866.904663086837.29498291\x00822.49017334\x00861.969726562825.780151367855.389770508814.265258789858.679748535806.040344238852.09979248\x00820.845214844873.484558105842.229919434840.584960938824.135131836886.64440918\x00840.584960938845.519897461822.49017334\x00855.389770508804.395385742843.874938965822.49017334\x00837.29498291\x00814.265258789850.454833984815.91027832\x00853.744812012820.845214844845.519897461820.845214844829.070068359848.809875488840.584960938824.135131836858.679748535866.904663086842.229919434820.845214844853.744812012824.135131836843.874938965820.845214844847.164855957804.395385742852.09979248\x00815.91027832\x00848.809875488847.164855957855.389770508814.265258789843.874938965850.454833984829.070068359822.49017334\x00866.904663086840.584960938837.29498291\x00819.200195312880.064453125850.454833984838.940002441820.845214844891.579345703824.135131836832.360046387819.200195312871.839599609835.650024414838.940002441824.135131836858.679748535847.164855957843.874938965822.49017334\x00852.09979248\x00852.09979248\x00843.874938965819.200195312863.614685059838.940002441845.519897461817.555236816873.484558105842.229919434842.229919434814.265258789865.259643555870.194580078832.360046387817.555236816871.839599609863.614685059847.164855957807.68536377\x00880.064453125858.679748535832.360046387822.49017334\x00868.549621582829.070068359840.584960938832.360046387866.904663086810.975280762838.940002441825.780151367838.940002441794.525512695824.135131836832.360046387820.845214844801.105407715824.135131836835.650024414814.265258789776.430725098825.780151367850.454833984807.68536377\x00764.91583252\x00814.265258789853.744812012796.170471191736.951171875834.005004883858.679748535778.075683594692.536743164840.584960938848.809875488753.401000977732.016235352819.200195312857.034729004768.205810547708.98651123\x00801.105407715868.549621582796.170471191689.246765137802.750427246858.679748535783.010620117689.246765137817.555236816853.744812012783.010620117648.122253418824.135131836852.09979248\x00758.3359375\x00\x00681.021850586837.29498291\x00845.519897461771.495788574758.3359375\x00\x00819.200195312848.809875488786.300598145761.625915527812.620300293843.874938965774.785766602761.625915527822.49017334\x00842.229919434750.111022949768.205810547829.070068359847.164855957758.3359375\x00\x00778.075683594840.584960938835.650024414786.300598145792.880554199829.070068359837.29498291\x00815.91027832\x00812.620300293825.780151367838.940002441815.91027832\x00806.040344238832.360046387832.360046387815.91027832\x00804.395385742825.780151367834.005004883824.135131836799.460449219835.650024414830.715087891855.389770508802.750427246832.360046387830.715087891852.09979248\x00771.495788574837.29498291\x00825.780151367847.164855957807.68536377\x00829.070068359834.005004883871.839599609825.780151367843.874938965827.425109863865.259643555801.105407715848.809875488824.135131836861.969726562829.070068359834.005004883829.070068359865.259643555835.650024414860.324707031824.135131836855.389770508847.164855957863.614685059830.715087891866.904663086853.744812012834.005004883827.425109863881.709472656830.715087891852.09979248\x00824.135131836863.614685059825.780151367850.454833984825.780151367852.09979248\x00842.229919434848.809875488827.425109863857.034729004829.070068359863.614685059829.070068359853.744812012850.454833984845.519897461829.070068359878.419494629861.969726562834.005004883829.070068359878.419494629861.969726562847.164855957824.135131836868.549621582845.519897461834.005004883820.845214844871.839599609837.29498291\x00847.164855957817.555236816876.774536133857.034729004837.29498291\x00825.780151367898.159240723840.584960938842.229919434820.845214844912.964111328845.519897461837.29498291\x00824.135131836884.999450684832.360046387842.229919434815.91027832\x00840.584960938863.614685059843.874938965812.620300293847.164855957848.809875488842.229919434817.555236816843.874938965880.064453125840.584960938824.135131836863.614685059861.969726562840.584960938817.555236816842.229919434863.614685059837.29498291\x00819.200195312822.49017334\x00901.44921875\x00837.29498291\x00819.200195312804.395385742875.129516602837.29498291\x00814.265258789861.969726562857.034729004814.265258789819.200195312868.549621582845.519897461834.005004883814.265258789858.679748535878.419494629822.49017334\x00820.845214844876.774536133868.549621582827.425109863819.200195312866.904663086870.194580078822.49017334\x00822.49017334\x00894.86932373\x00858.679748535830.715087891817.555236816888.289367676840.584960938837.29498291\x00814.265258789870.194580078860.324707031832.360046387817.555236816861.969726562893.224304199838.940002441815.91027832\x00893.224304199850.454833984825.780151367819.200195312881.709472656870.194580078827.425109863820.845214844873.484558105866.904663086837.29498291\x00815.91027832\x00848.809875488868.549621582834.005004883817.555236816860.324707031861.969726562835.650024414814.265258789857.034729004832.360046387832.360046387814.265258789847.164855957835.650024414824.135131836806.040344238853.744812012868.549621582824.135131836809.330322266860.324707031'
tb.