cnumpy.core.multiarray
_reconstruct
p1
(cnumpy
ndarray
p2
(I0
tS'b'
tRp3
(I1
(I163
I4
tcnumpy
dtype
p4
(S'S15'
I0
I1
tRp5
(I3
S'|'
NNNI15
I1
I0
tbI00
S'0.349005550146\x000.220903769135\x000.224047705531\x000.371010541916\x000.364411354065\x000.214257404208\x000.22825217247\x00\x000.394093871117\x000.370754003525\x000.210739731789\x000.231483638287\x000.406928956509\x000.372392088175\x000.20966771245\x00\x000.234374597669\x000.413530915976\x000.373052656651\x000.209970965981\x000.236498847604\x000.415598720312\x000.37431371212\x00\x000.210131838918\x000.237576246262\x000.414474576712\x000.37624591589\x00\x000.208959206939\x000.237381234765\x000.411911904812\x000.377914428711\x000.204767048359\x000.236167147756\x000.409429103136\x000.378837287426\x000.197344869375\x000.234533756971\x000.407191604376\x000.372649371624\x000.189400166273\x000.234841227531\x000.396253943443\x000.364407658577\x000.185547307134\x000.236105561256\x000.374831169844\x000.363352179527\x000.190796151757\x000.236467406154\x000.353284865618\x000.363880395889\x000.207608863711\x000.233447566628\x000.334304004908\x000.359442800283\x000.236251682043\x000.226188823581\x000.320874333382\x000.348348140717\x000.276375710964\x000.218044131994\x000.307864010334\x000.339257210493\x000.329365700483\x000.208059474826\x000.297685861588\x000.331780105829\x000.36279296875\x00\x000.191658034921\x000.289504498243\x000.32534262538\x00\x000.380205899477\x000.180685862899\x000.279500871897\x000.325521945953\x000.385212063789\x000.171096086502\x000.273485571146\x000.328473627567\x000.383511722088\x000.165225729346\x000.270876348019\x000.334101915359\x000.378588169813\x000.162365674973\x000.270896852016\x000.34752753377\x00\x000.373992443085\x000.157918259501\x000.273255735636\x000.37112095952\x00\x000.369936138391\x000.150850296021\x000.2770139575\x00\x00\x000.397506266832\x000.367739289999\x000.140563249588\x000.279369950294\x000.421376407146\x000.3649956882\x00\x00\x000.128114193678\x000.280597478151\x000.43846783042\x00\x000.358859717846\x000.117061324418\x000.280030995607\x000.45799601078\x00\x000.345513373613\x000.118871875107\x000.276337474585\x000.485642850399\x000.324253112078\x000.136698305607\x000.268352478743\x000.495201736689\x000.285234719515\x000.152776032686\x000.261239647865\x000.515597105026\x000.230568051338\x000.169481471181\x000.264463573694\x000.534342288971\x000.189373016357\x000.17515732348\x00\x000.27183458209\x00\x000.548790633678\x000.160033911467\x000.175248518586\x000.27660036087\x00\x000.559804975986\x000.140244618058\x000.171125367284\x000.278522104025\x000.569198668003\x000.128366321325\x000.16445478797\x00\x000.281338125467\x000.578441679478\x000.121982134879\x000.158034697175\x000.284732341766\x000.586925685406\x000.11877977103\x00\x000.152965769172\x000.288419306278\x000.592634379864\x000.116873979568\x000.149504199624\x000.290764838457\x000.595407366753\x000.115071207285\x000.14776417613\x00\x000.290871292353\x000.593899130821\x000.113561578095\x000.147689849138\x000.288418233395\x000.590500056744\x000.111897371709\x000.148414999247\x000.282546818256\x000.590500056744\x000.110533110797\x000.149082556367\x000.282546818256\x000.590500056744\x000.109254151583\x000.148604273796\x000.282546818256\x000.590500056744\x000.107013829052\x000.146202147007\x000.282546818256\x000.590500056744\x000.104013100266\x000.142291218042\x000.282546818256\x000.590500056744\x000.100746303797\x000.137603923678\x000.282546818256\x000.590500056744\x000.09896291047330.132745563984\x000.282546818256\x000.289405018091\x000.09994790703060.127776503563\x000.290033757687\x000.260511398315\x000.103175111115\x000.121621832252\x000.295685380697\x000.241835728288\x000.108169592917\x000.114720791578\x000.29402127862\x00\x000.227336257696\x000.11326893419\x00\x000.105569921434\x000.289019435644\x000.216786503792\x000.118350103498\x000.095601812005\x000.282424598932\x000.210853174329\x000.122733451426\x000.08741618692870.275520473719\x000.209556251764\x000.12811550498\x00\x000.08333931118250.267782121897\x000.211530044675\x000.131912961602\x000.08207885175940.259237498045\x000.215434610844\x000.134483635426\x000.082590572536\x000.250202000141\x000.218814492226\x000.133643865585\x000.08405070006850.242108896375\x000.218907281756\x000.131006747484\x000.08663538843390.230356052518\x000.216092079878\x000.128036305308\x000.09056136757140.2150195539\x00\x00\x000.204247757792\x000.125058621168\x000.09560336917640.198747187853\x000.196918234229\x000.123176053166\x000.103369325399\x000.181411325932\x000.194900304079\x000.123270668089\x000.115364812315\x000.172080114484\x000.197688803077\x000.128115653992\x000.131208002567\x000.167761459947\x000.205349981785\x000.139428988099\x000.151706233621\x000.167362242937\x000.211010351777\x000.15588490665\x00\x000.177502766252\x000.175027027726\x000.219489753246\x000.177535936236\x000.209589540958\x000.185630425811\x000.227891564369\x000.206534817815\x000.242846414447\x000.196857795119\x000.23162458837\x00\x000.238494157791\x000.272810399532\x000.205834999681\x000.228452682495\x000.253049105406\x000.283194571733\x000.211771965027\x000.22069182992\x00\x000.239287137985\x000.274111002684\x000.21541531384\x00\x000.210923060775\x000.223823994398\x000.263096749783\x000.2175642699\x00\x00\x000.202898040414\x000.206125080585\x000.24947437644\x00\x000.220831915736\x000.198350295424\x000.197097271681\x000.246259450912\x000.228413954377\x000.196472853422\x000.190604686737\x000.247231125832\x000.240816950798\x000.195719242096\x000.190506026149\x000.251346081495\x000.256267875433\x000.192379817367\x000.195643603802\x000.254943996668\x000.272278308868\x000.184077873826\x000.199277088046\x000.257623195648\x000.28367626667\x00\x000.169846996665\x000.199461609125\x000.259128719568\x000.281069815159\x000.150370299816\x000.197193846107\x000.259722977877\x000.261675417423\x000.130491554737\x000.193547591567\x000.259645611048\x000.234897315502\x000.115752957761\x000.189968883991\x000.259168297052\x000.204679504037\x000.109985589981\x000.188000962138\x000.259182035923\x000.178707182407\x000.109197035432\x000.187573969364\x000.258906513453\x000.161309838295\x000.111413933337\x000.187758490443\x000.259711533785\x000.150681629777\x000.1158804968\x00\x00\x000.187281444669\x000.262223064899\x000.14534266293\x00\x000.121580004692\x000.186043083668\x000.264861285686\x000.141436442733\x000.125023633242\x000.184689715505\x000.267537713051\x000.136058971286\x000.124969370663\x000.183433935046\x000.270042508841\x000.128379940987\x000.122450575233\x000.182025328279\x000.272109657526\x000.120289206505\x000.119092695415\x000.178993999958\x000.273094624281\x000.112445481122\x000.116544924676\x000.174287512898\x000.275858432055\x000.105140507221\x000.11507357657\x00\x000.167572930455\x000.281357049942\x000.09936167299750.120967842638\x000.162552580237\x000.284904539585\x000.09459131211040.137547686696\x000.168208912015\x000.28282520175\x00\x000.09127554297450.159432440996\x000.196099832654\x000.281781047583\x000.09014786779880.180565088987\x000.223875835538\x000.29452469945\x00\x000.09200271219020.197451159358\x000.239489227533\x000.309132009745\x000.09717696905140.218321815133\x000.254403412342\x000.31421226263\x00\x000.103985026479\x000.24123775959\x00\x000.265552461147\x000.316640555859\x000.108155652881\x000.256066977978\x000.270521759987\x000.317369878292\x000.108661219478\x000.26351711154\x00\x000.27114880085\x00\x000.317402750254\x000.108154915273\x000.270456880331\x000.270333111286\x000.316457301378\x000.107817254961\x000.282835543156\x000.269273817539\x000.314039260149\x000.107837378979\x000.302177548409\x000.268121540546\x000.31053045392\x00\x000.108027711511\x000.326097756624\x000.267043858767\x000.306292444468\x000.108739942312\x000.350538492203\x000.266557842493\x000.304415345192\x000.113464280963\x000.373668700457\x000.264774411917\x000.300952404737\x000.12976616621\x00\x000.392884552479\x000.259341865778\x000.28920224309\x00\x000.163367033005\x000.404195964336\x000.246451213956\x000.257214099169\x000.196950852871\x000.398857831955\x000.228899180889\x000.218193292618\x000.211353093386\x000.374866455793\x000.21476405859\x00\x000.187752947211\x000.213316380978\x000.340727329254\x000.204689532518\x000.169811457396\x000.210992246866\x000.307278960943\x000.198003724217\x000.16085319221\x00\x000.208729490638\x000.277113169432\x000.194618836045\x000.157220542431\x000.208158701658\x000.264032900333\x000.193526759744\x000.155943110585\x000.209625825286\x000.263514816761\x000.193000867963\x000.155641302466\x000.21213696897\x00\x000.265208005905\x000.192944929004\x000.155744969845\x000.214462846518\x000.263780683279\x000.192842543125\x000.155739441514\x000.215516835451\x000.260250806808\x000.19292768836\x00\x000.156174480915\x000.216295406222\x000.255255699158\x000.193056732416\x000.15697106719\x00\x000.216049686074\x000.249181345105\x000.192979127169\x000.157743051648\x000.214947894216\x000.23922008276\x00\x000.19279076159\x00\x000.158641085029\x000.2127173841\x00\x00\x000.227756142616\x000.191963657737\x000.159758508205\x000.209137424827\x000.211578279734\x000.190446153283\x000.16223283112\x00\x000.203823313117\x000.192790865898\x000.189033687115\x000.166977807879\x000.197505578399\x000.175911068916\x000.187624141574\x000.173217386007\x000.190657302737\x000.16601189971\x00\x000.185260668397\x000.179625555873\x000.183971613646\x000.163177803159\x000.180381909013\x000.184986934066\x000.176737293601\x000.162165820599\x000.172861203551\x000.190169885755\x000.16643306613\x00\x000.163162410259\x000.164440870285\x000.198931649327\x000.152878254652\x000.166715845466\x000.159064799547\x000.213011875749\x000.142010077834\x000.176381677389\x000.150610476732\x000.215745806694\x000.130888417363\x000.179365202785\x000.148986682296\x000.214135676622\x000.125644654036\x000.187037795782\x000.149943575263\x000.206930339336\x000.124575518072\x000.193234965205\x000.152949914336\x000.195288568735\x000.123886577785\x000.200687199831\x000.158797770739\x000.181449249387\x000.120381645858\x000.210311099887\x000.162421047688\x000.16821590066\x00\x000.115381039679\x000.231847688556\x000.161892175674\x000.158155888319\x000.111527308822\x000.260117202997\x000.157298475504\x000.15236492455\x00\x000.109122790396\x000.278958469629\x000.151113972068\x000.149957612157\x000.109282396734\x000.287861317396\x000.144921779633\x000.148570030928\x000.113327652216\x000.289250761271\x000.140305295587\x000.14532572031\x00\x000.12059738487\x00\x000.283885300159\x000.137327164412\x000.138361856341\x000.128634899855\x000.272546947002\x000.135372370481\x000.128816634417\x000.134533971548\x000.263283938169\x000.133874937892\x000.121143147349\x000.136638656259\x000.258764147758\x000.133651301265\x000.118162274361\x000.133854672313\x000.257596433163\x000.133556172252\x000.120914839208\x000.127259746194\x000.259633302689\x000.133493736386\x000.127809301019\x000.121099747717\x000.259447991848\x000.131111189723\x000.135851204395\x000.119348280132\x000.254669159651\x000.127990007401\x000.142780140042\x000.12623269856\x00\x000.244809597731\x000.124350734055\x000.148289307952\x000.143390610814\x000.232874959707\x000.121557593346\x000.154194116592\x000.165969982743\x000.217637449503\x000.114769853652\x000.160587906837\x000.191652551293\x000.202402800322\x000.114513650537\x000.172516673803\x000.214829862118\x000.190614297986\x000.125550836325\x000.183803632855\x000.23333825171\x00\x000.18570664525\x00\x000.156693696976\x000.204025372863\x000.243146374822\x000.195617854595\x000.185830488801\x000.223018229008\x000.245572254062\x000.222519442439\x000.211359411478\x000.237110972404\x000.244376078248\x000.257984220982\x000.233789354563\x000.251147478819\x000.242565065622\x000.281786561012\x000.245440721512\x000.261810392141\x000.24205224216\x00\x000.292687892914\x000.249897405505\x000.267703652382\x000.245722696185\x000.295192867517\x000.252066016197\x000.27064910531\x00\x000.249119669199\x000.293818891048\x000.252714216709\x000.272824555635\x000.251844197512\x000.30109167099\x00\x000.248530745506\x000.275388211012\x000.259804993868\x00'
tb.