cnumpy.core.multiarray
_reconstruct
p1
(cnumpy
ndarray
p2
(I0
tS'b'
tRp3
(I1
(I76
I4
tcnumpy
dtype
p4
(S'S15'
I0
I1
tRp5
(I3
S'|'
NNNI15
I1
I0
tbI00
S'0.198066458106\x000.04127454385160.08522988110780.06776285171510.198066458106\x000.04146844893690.08471421897410.06776285171510.198066458106\x000.04140269383790.08639480918650.06776285171510.198066458106\x000.04270146042110.07946123182770.06776285171510.198066458106\x000.04581373929980.07157243043180.06776285171510.198066458106\x000.05190834030510.08286648243670.06776285171510.198066458106\x000.06139761582020.09812212735410.06776285171510.198066458106\x000.07297965884210.109843373299\x000.06776285171510.198066458106\x000.07366064935920.120000973344\x000.06776285171510.198066458106\x000.05940414965150.124333888292\x000.06776285171510.198066458106\x000.04874426871540.128018066287\x000.06776285171510.198066458106\x000.03995779901740.134752750397\x000.06776285171510.198066458106\x000.03441955894230.158619776368\x000.06776285171510.198066458106\x000.032185010612\x000.182129263878\x000.06776285171510.198066458106\x000.03022344969210.180713966489\x000.06776285171510.198066458106\x000.03734651580450.186111956835\x000.06776285171510.198066458106\x000.06059139966960.191604092717\x000.06776285171510.198066458106\x000.09990331530570.193209290504\x000.06776285171510.198066458106\x000.129286333919\x000.18337841332\x00\x000.06776285171510.198066458106\x000.132284969091\x000.156663805246\x000.06776285171510.193880960345\x000.119255959988\x000.132572486997\x000.07658947259190.192575126886\x000.11035554111\x00\x000.11932746321\x00\x000.07885356247430.195368811488\x000.107252553105\x000.113634862006\x000.08335846662520.202244713902\x000.109319068491\x000.112415127456\x000.089358843863\x000.211363390088\x000.115932717919\x000.113367371261\x000.09624233096840.221688464284\x000.126255080104\x000.115262754261\x000.10381988436\x00\x000.232372969389\x000.138295948505\x000.117405228317\x000.111656911671\x000.241441637278\x000.149090245366\x000.119604595006\x000.119495980442\x000.247249647975\x000.156112462282\x000.121911600232\x000.127076163888\x000.249660030007\x000.159466564655\x000.121740959585\x000.134239271283\x000.250310957432\x000.161973550916\x000.121411718428\x000.14091193676\x00\x000.251415431499\x000.167583629489\x000.12559120357\x00\x000.147157371044\x000.256286710501\x000.182017430663\x000.138838067651\x000.159990519285\x000.262686878443\x000.212997362018\x000.163231551647\x000.171341627836\x000.267083466053\x000.25441724062\x00\x000.189537838101\x000.173441067338\x000.236047118902\x000.27900287509\x00\x000.205005094409\x000.190937012434\x000.192327409983\x000.270346730947\x000.208973884583\x000.208382874727\x000.189950287342\x000.224311470985\x000.225406914949\x000.22968018055\x00\x000.190583348274\x000.168463394046\x000.256246268749\x000.246826261282\x000.202153220773\x000.164725780487\x000.284890890121\x000.253056496382\x000.212170943618\x000.16810542345\x00\x000.294942706823\x000.235039159656\x000.217685952783\x000.181693762541\x000.299534142017\x000.23941385746\x00\x000.218623489141\x000.203249037266\x000.29890242219\x00\x000.277908712626\x000.216149419546\x000.211639970541\x000.290595114231\x000.322009503841\x000.231787487864\x000.207738026977\x000.279930889606\x000.352380007505\x000.256453484297\x000.201257735491\x000.246484741569\x000.366881102324\x000.289792478085\x000.196558058262\x000.197923794389\x000.385179817677\x000.325604468584\x000.198295757174\x000.177286878228\x000.401752620935\x000.35663369298\x00\x000.19821549952\x00\x000.177253291011\x000.409582227468\x000.385357767344\x000.199026584625\x000.184553176165\x000.413086652756\x000.406931996346\x000.210199266672\x000.176034033298\x000.41346603632\x00\x000.417936176062\x000.218120321631\x000.16248498857\x00\x000.408403515816\x000.40767210722\x00\x000.222925499082\x000.151944071054\x000.409284472466\x000.394807159901\x000.231594130397\x000.141130372882\x000.418282747269\x000.381041735411\x000.234993904829\x000.130442857742\x000.4329200387\x00\x00\x000.368840366602\x000.238402962685\x000.121144659817\x000.439862012863\x000.358026355505\x000.242546379566\x000.118130676448\x000.44438496232\x00\x000.354520946741\x000.245031058788\x000.114367984235\x000.445195227861\x000.355059564114\x000.246510237455\x000.118283070624\x000.444473534822\x000.365990936756\x000.241971969604\x000.119782634079\x000.442019492388\x000.388610035181\x000.228504896164\x000.11866696924\x00\x000.438611805439\x000.393275618553\x000.213042765856\x000.12052577734\x00\x000.434996515512\x000.387894511223\x000.199039652944\x000.11913651973\x00\x000.431459665298\x000.381023198366\x000.189148366451\x000.120420053601\x000.426843523979\x000.372831732035\x000.180441170931\x000.123144887388\x000.417534917593\x000.353080093861\x000.170140311122\x000.126583650708\x000.401530385017\x000.308851122856\x000.160112068057\x000.131896838546\x000.365794688463\x000.250729173422\x000.136230617762\x000.154435515404\x000.293801516294\x000.196720957756\x000.117480650544\x000.192681759596\x000.224164754152\x000.172959923744\x000.117859944701\x000.225057765841\x000.162793070078\x000.153684049845\x000.113917157054\x000.252529203892\x000.111083574593\x000.138145461679\x000.110619135201\x000.265344440937\x000.07713852822780.124717146158\x000.105812706053\x000.267918854952\x000.06460943818090.118297569454\x000.101680785418\x000.270426869392\x000.05898893997070.115503676236\x000.09820292145010.274714291096\x000.05616442114110.113929063082\x000.09397742152210.277020066977\x000.0542712621391'
tb.