cnumpy.core.multiarray
_reconstruct
p1
(cnumpy
ndarray
p2
(I0
tS'b'
tRp3
(I1
(I148
I4
tcnumpy
dtype
p4
(S'S15'
I0
I1
tRp5
(I3
S'|'
NNNI15
I1
I0
tbI00
S'0.144839882851\x000.09666613489390.133647382259\x000.162725180387\x000.148262292147\x000.09638991206880.133840098977\x000.162134736776\x000.151982471347\x000.09644455462690.13453297317\x00\x000.16201646626\x00\x000.155231669545\x000.09679817408320.135882973671\x000.161802873015\x000.157277330756\x000.09804430603980.138613134623\x000.161001935601\x000.15232051909\x00\x000.100680865347\x000.143166646361\x000.156475380063\x000.140784204006\x000.101219460368\x000.146454170346\x000.148644775152\x000.135383576155\x000.102143853903\x000.146613746881\x000.137584254146\x000.126392558217\x000.09975585341450.14848099649\x00\x000.126864299178\x000.119234524667\x000.097579844296\x000.148899450898\x000.11988478899\x00\x000.104109749198\x000.092637129128\x000.13777269423\x00\x000.118806123734\x000.101916640997\x000.083518229425\x000.122595414519\x000.110942877829\x000.103217624128\x000.07441553473470.101848743856\x000.08089486509560.080888338387\x000.07074726372960.100779339671\x000.04982521012430.07758503407240.07308717072010.12489644438\x00\x000.03488492593170.07664313912390.07645869255070.141796350479\x000.05243723839520.074744567275\x000.08382904529570.152979001403\x000.05385173484680.07291239500050.087097465992\x000.164551451802\x000.05262806639080.07167484611270.08832373470070.17972959578\x00\x000.05210673063990.07126344740390.08989856392150.183360606432\x000.05227183178070.07221264392140.09428501129150.182583108544\x000.05371105670930.07572529464960.09781994670630.186102792621\x000.05797697976230.08364043384790.107245497406\x000.193705156446\x000.06773173809050.09925647825\x00\x000.124098695815\x000.200708791614\x000.09372080117460.106596946716\x000.135212257504\x000.210500180721\x000.139211267233\x000.110194899142\x000.14543171227\x00\x000.232293412089\x000.207801386714\x000.137734651566\x000.144832745194\x000.230132043362\x000.200683519244\x000.162549778819\x000.140591412783\x000.210539624095\x000.196977511048\x000.179079428315\x000.139789134264\x000.200400739908\x000.197815522552\x000.193002820015\x000.14349758625\x00\x000.197564780712\x000.202344015241\x000.215606957674\x000.146448329091\x000.198320224881\x000.214591339231\x000.244078144431\x000.152565360069\x000.200169622898\x000.227108329535\x000.267020106316\x000.156694099307\x000.20246194303\x00\x000.229924336076\x000.281630843878\x000.160303294659\x000.204735070467\x000.222969099879\x000.285468578339\x000.162288665771\x000.20604801178\x00\x000.220790967345\x000.277530193329\x000.16099794209\x00\x000.204000413418\x000.220605656505\x000.258288890123\x000.156512483954\x000.196822971106\x000.216604113579\x000.232432290912\x000.153607010841\x000.186760544777\x000.211285158992\x000.207111135125\x000.146184459329\x000.180420592427\x000.210434287786\x000.187894746661\x000.142996236682\x000.179305642843\x000.217194512486\x000.172546282411\x000.146164283156\x000.189790844917\x000.226594492793\x000.166244775057\x000.151011884212\x000.20058645308\x00\x000.213263764977\x000.168259590864\x000.1556430161\x00\x00\x000.184980735183\x000.177970826626\x000.168296098709\x000.16348606348\x00\x000.153844952583\x000.149754285812\x000.167885765433\x000.166275799274\x000.123356744647\x000.139421999454\x000.165738746524\x000.166419699788\x000.114589817822\x000.14251062274\x00\x000.163101300597\x000.166411295533\x000.114260949194\x000.143293440342\x000.158050939441\x000.166960656643\x000.113802336156\x000.143152490258\x000.149946093559\x000.168263301253\x000.113780193031\x000.143365129828\x000.149980485439\x000.170644238591\x000.11475367099\x00\x000.144840851426\x000.153576925397\x000.176634311676\x000.118491455913\x000.148653954268\x000.161467626691\x000.190536558628\x000.127823129296\x000.156453117728\x000.169429525733\x000.213133960962\x000.146220386028\x000.168902501464\x000.172441646457\x000.23178820312\x00\x000.15896525979\x00\x000.176110237837\x000.188330978155\x000.230613589287\x000.149796485901\x000.177038729191\x000.201909035444\x000.220569178462\x000.145280092955\x000.18006592989\x00\x000.220870599151\x000.19914470613\x00\x000.144102290273\x000.193451941013\x000.234626382589\x000.18589168787\x00\x000.149407655001\x000.181059330702\x000.226447507739\x000.167845323682\x000.144044071436\x000.135134279728\x000.179178580642\x000.123006418347\x000.1266477108\x00\x00\x000.100701160729\x000.123805075884\x000.08006460964680.10378319025\x00\x000.07253044098620.09658052772280.05027555674310.083752579987\x000.05494479835030.071039006114\x000.03420172259210.06972559541460.04374061524870.05295573174950.02338215149940.06096968054770.03819402307270.04294525831940.01846993528310.05639938265090.03592051193120.03999703377490.02537415362890.059519495815\x000.03360526636240.03969607874750.05085273832080.07434271276\x00\x000.03125714883210.03963590785860.09087534993890.101843364537\x000.02887903526430.039762429893\x000.121346496046\x000.111121624708\x000.03554627671840.03975803032520.125299885869\x000.103510856628\x000.03479839861390.041085395962\x000.115989275277\x000.09149549901490.03412757813930.04265284538270.1099576056\x00\x00\x000.08308472484350.032994247973\x000.04398440569640.106285303831\x000.07905261218550.03311048448090.04485854133960.102415688336\x000.07896635681390.03405879437920.056289780885\x000.102380946279\x000.08112685382370.03749921545390.09197631478310.111528113484\x000.08453161269430.04525721818210.131466776133\x000.112827725708\x000.08380519598720.06365392357110.163912251592\x000.109189935029\x000.08038558065890.100135579705\x000.189072474837\x000.107679836452\x000.079729937017\x000.191680043936\x000.205811500549\x000.107922434807\x000.08101468533280.202358648181\x000.209896892309\x000.108441650867\x000.08149091154340.211527749896\x000.203702017665\x000.10918687284\x00\x000.08309986442330.219905868173\x000.199486657977\x000.111209996045\x000.08577395230530.228198453784\x000.191153228283\x000.115022830665\x000.09081833064560.246287763119\x000.18631669879\x00\x000.116918973625\x000.09808750450610.254818350077\x000.184453830123\x000.110435381532\x000.106228627264\x000.241227790713\x000.184650868177\x000.100866913795\x000.113078840077\x000.255010902882\x000.186817258596\x000.100466959178\x000.118041858077\x000.269149512053\x000.192306086421\x000.103465549648\x000.124429121614\x000.28017732501\x00\x000.202015072107\x000.113152392209\x000.138453453779\x000.289453566074\x000.215876817703\x000.135987326503\x000.16304820776\x00\x000.295501053333\x000.231909990311\x000.179027751088\x000.209927812219\x000.308090746403\x000.230318412185\x000.223698422313\x000.271510481834\x000.320069402456\x000.211881503463\x000.253601521254\x000.326540797949\x000.317270219326\x000.19625261426\x00\x000.235526606441\x000.342795670033\x000.298695266247\x000.193046450615\x000.155428484082\x000.289114892483\x000.249970376492\x000.202679872513\x000.11517213285\x00\x000.224019423127\x000.179115399718\x000.217604756355\x000.086258918047\x000.1626432091\x00\x00\x000.123268865049\x000.224978968501\x000.06536034494640.114551737905\x000.09180710464720.220082730055\x000.047235429287\x000.08445544540880.07286567986010.201501607895\x000.03804566711190.06978983432050.06109171733260.195021241903\x000.03392026945950.06307101249690.05542191490530.185471624136\x000.03240030258890.06056258082390.05272751674060.178995281458\x000.03201429918410.05992410331960.05214211717250.175937071443\x000.03138011321430.05990917980670.05231928452850.178718209267\x000.03144427016380.06006079539660.05242276564240.206826195121\x000.03140590712430.06024889647960.05313058570030.233652427793\x000.03131793439390.06041540578010.05312602221970.249608978629\x000.03121244162320.06057043746110.05316417291760.252477020025\x000.03125193342570.06089792773130.05412104725840.245455726981\x000.03182516619560.06289535015820.05581424757840.239624723792\x000.03387196734550.06840404868130.05950303375720.241245433688\x000.03897896036510.07730105519290.06727263331410.244323089719\x000.050110861659\x000.09001763165\x00\x000.08522192388770.258766770363\x000.06011942401530.10302541405\x00\x000.108125753701\x000.288704544306\x000.06574468314650.125499367714\x000.149614095688\x000.290444910526\x000.08636332303290.158288821578\x000.220771729946\x000.275554955006\x000.12178247422\x00\x000.181173682213\x000.29161053896\x00\x000.26188352704\x00\x000.136551827192\x000.207381904125\x000.325022399426\x000.249475613236\x000.141644135118\x000.215184673667\x000.33652728796\x00\x000.237041443586\x000.146334305406\x000.214945033193\x000.333896905184\x000.225236088037\x000.162696003914\x000.232308313251\x000.326541334391\x000.21662569046\x00\x000.183834269643\x000.243445813656\x000.315235882998\x000.20603774488\x00\x000.207163155079\x000.246103331447\x000.300281316042\x000.188876017928\x000.229229152203\x000.242737948895\x000.285026818514\x000.177538275719\x000.245474055409\x000.240357205272\x000.26905849576\x00\x000.17220403254\x00\x000.264896690845\x000.248579740524\x000.261149257421\x000.171962603927\x000.302010655403\x000.24511423707\x00\x000.252025276423\x000.170457869768\x000.344156891108\x000.229300692677\x000.247272491455\x000.170644879341\x000.378182440996\x000.213469430804\x000.246368169785\x000.170866906643\x000.39763635397\x00\x000.209450021386\x000.246003657579\x000.164730653167\x000.411413371563\x000.207669362426\x000.248199775815\x000.147372275591\x000.424518376589\x000.206702828407\x000.253150105476\x000.139283969998\x000.429023087025\x000.208536431193\x000.255039095879\x000.141568005085\x000.428748339415\x000.211640805006\x000.259913623333\x000.145017713308\x000.426180690527\x000.217250093818\x000.275486528873\x000.145815983415\x000.423580348492\x000.225171372294\x000.285826057196\x000.135828927159\x000.421898663044\x000.23016948998\x00\x000.291832685471\x000.103841371834\x000.4142395854\x00\x00\x000.231544315815\x000.302547425032\x000.09155616164210.397673815489\x000.218405529857\x000.30439054966\x00\x000.095029823482\x000.393792390823\x000.198093935847\x000.288202375174\x000.101861201227\x000.390478521585\x000.18073874712\x00\x000.279086202383\x000.108377106488\x000.385784208775\x000.165962800384\x000.323462307453\x000.114637844265\x000.373143941164\x000.150959089398\x000.376883208752\x000.134651452303\x000.329186409712\x000.127594038844\x000.382348537445\x000.127978265285\x000.25171688199\x00\x000.09714542329310.336226552725\x000.105327755213\x000.181041717529\x000.07242514193060.268365800381\x000.08504698425530.131737798452\x000.05692947283390.211573466659\x00'
tb.