cnumpy.core.multiarray
_reconstruct
p1
(cnumpy
ndarray
p2
(I0
tS'b'
tRp3
(I1
(I37
I4
tcnumpy
dtype
p4
(S'S14'
I0
I1
tRp5
(I3
S'|'
NNNI14
I1
I0
tbI00
S'0.5823619365690.6830126643180.5171655416490.4362010955810.5823619365690.6823251843450.5095221996310.4362010955810.17754945159\x000.68331104517\x000.50645428896\x000.2965462207790.1754835397010.6843263506890.5049721598630.2982163429260.1688967347150.6788844466210.5144743323330.2969296276570.1619264632460.6599786877630.5294603705410.2976957857610.1615358442070.6250782012940.54571056366\x000.3035702705380.1935762017970.5816497206690.5566248297690.3351174891\x00\x000.2920201122760.5495752692220.5711782574650.3896753191950.4524355232720.5623329281810.5912877321240.4878835380080.5952015519140.6257194280620.6161262989040.4878835380080.5952015519140.6945055127140.6400963664050.4878835380080.5952015519140.74214476347\x000.65480953455\x000.4878835380080.5952015519140.7675148248670.6611295342450.4878835380080.6470350027080.7777477502820.6545761227610.5094757676120.6954745650290.7783113121990.6359269022940.5370596051220.7243113517760.7737513780590.6133804917340.5691661238670.7430200576780.7696027755740.5963506102560.6004620790480.7626212239270.7674832344060.5838554501530.6295637488370.7844133973120.7678090333940.5753210186960.6597322821620.8075988292690.7709081768990.5686946511270.6941670775410.8323033452030.7765842676160.5590091943740.6941670775410.8323033452030.7821472287180.54541271925\x000.6941670775410.8323033452030.7824745178220.5242017507550.6941670775410.8323033452030.7724572420120.4912683367730.6941670775410.8323033452030.7471060752870.4413401782510.6941670775410.8323033452030.69645345211\x000.3761787712570.6941670775410.8323033452030.6100628972050.30931276083\x000.6941670775410.8323033452030.4945411086080.2579676210880.6941670775410.8323033452030.3876696527\x00\x000.2327024340630.6941670775410.8323033452030.3314524590970.2321185022590.6941670775410.8323033452030.3295565247540.2427971065040.6941670775410.8323033452030.3419781327250.2570983469490.6941670775410.8323033452030.3609586060050.2748249173160.6941670775410.8323033452030.3809675276280.2983252704140.5715495347980.8323033452030.3959850668910.3258135318760.5738257765770.8323033452030.4032513797280.3506733179090.576155006886'
tb.