cnumpy.core.multiarray
_reconstruct
p1
(cnumpy
ndarray
p2
(I0
tS'b'
tRp3
(I1
(I119
I4
tcnumpy
dtype
p4
(S'S14'
I0
I1
tRp5
(I3
S'|'
NNNI14
I1
I0
tbI00
S'0.2949017882350.5674204826350.7283234000210.38381922245\x000.2949017882350.5735883712770.7376148700710.3786786496640.3062192499640.5793759822850.7428992986680.3886843323710.3146849274640.58278208971\x000.7447296381\x00\x000.4012288153170.3228976130490.5831251740460.7447235584260.41580748558\x000.3333645164970.5825572013850.7458771467210.4301287829880.3475656211380.5801913738250.7517117857930.4412078857420.3663380444050.5743796825410.76449239254\x000.4475271999840.3870883286\x00\x000.56489855051\x000.7839349508290.4485074877740.4096052646640.5517688393590.8076567649840.4464409053330.4341134727\x00\x000.5370979309080.8315806388850.4425750076770.4639437198640.5267179608350.8315806388850.4365185201170.4639437198640.5198473930360.8315806388850.4301223158840.4639437198640.5133101940160.8315806388850.4301223158840.4639437198640.5035982728\x00\x000.8315806388850.4301223158840.4639437198640.4912157952790.8315806388850.4301223158840.4639437198640.4797155857090.7560648322110.4301223158840.4639437198640.47988525033\x000.7672527432440.4301223158840.4639437198640.4964472055440.7755414247510.4301223158840.4639437198640.5093932747840.7751304507260.4301223158840.4639437198640.5157576203350.7651370763780.4301223158840.4639437198640.5181329250340.7493494749070.4301223158840.4639437198640.5120776295660.7378335595130.4301223158840.4639437198640.5114787220950.7478986978530.4301223158840.4639437198640.5183714628220.7700392603870.4301223158840.4639437198640.5291791558270.79253923893\x000.4301223158840.4639437198640.5385882854460.8095214962960.4301223158840.4639437198640.5465679764750.8185785412790.4301223158840.4639437198640.5524218082430.8262895941730.4301223158840.3358323872090.55253714323\x000.8292958736420.1836549937730.3358323872090.5423589944840.8296732306480.1836549937730.3358323872090.5262328386310.8286963701250.1836549937730.3358323872090.5050088167190.8259547352790.1836549937730.3358323872090.4804673492910.8239232897760.1836549937730.3358323872090.4549823403360.8234121203420.1836549937730.3358323872090.4311259388920.8258796930310.1836549937730.3358323872090.4102001786230.8318063616750.1836549937730.3358323872090.3937189280990.8349074721340.1836549937730.3358323872090.3785553872590.8352237343790.1836549937730.3358323872090.3729862570760.8292074799540.1836549937730.3358323872090.3811420202260.8125326633450.1836549937730.3358323872090.38427951932\x000.7949341535570.1836549937730.3358323872090.38886487484\x000.7764953374860.1836549937730.3358323872090.3950202763080.7616396546360.1836549937730.3358323872090.3951110541820.7637904286380.1836549937730.3358323872090.3810993731020.7653046846390.1836549937730.3358323872090.3631466925140.7650039792060.1836549937730.3358323872090.34280821681\x000.7597968578340.1836549937730.3358323872090.3355894088750.74641174078\x000.1836549937730.3358323872090.3401255309580.7333638668060.1836549937730.3358323872090.3552616834640.7253034114840.1836549937730.3358323872090.3747892677780.7242047190670.1836549937730.3358323872090.3907699584960.7268066406250.1836549937730.3358323872090.4089832007880.72956931591\x000.1836549937730.3358323872090.4302881360050.7325550317760.1836549937730.3358323872090.4513001739980.7374185919760.1836549937730.3358323872090.4721015691760.7421920299530.1836549937730.3358323872090.4947210252290.740021348\x00\x00\x000.1836549937730.3358323872090.51493024826\x000.7403809428220.1836549937730.3358323872090.5310832858090.7421048283580.1836549937730.3358323872090.5434756875040.7469657063480.1836549937730.3358323872090.5466637611390.7533967494960.1836549937730.3358323872090.5405582785610.7623586654660.1836549937730.3358323872090.5201316475870.7741086483\x00\x000.1836549937730.3358323872090.4939311444760.7873757481580.1836549937730.3358323872090.4671251475810.7997516393660.1836549937730.3358323872090.4374157190320.8086113929750.1836549937730.3358323872090.4138916134830.8120754361150.1836549937730.3358323872090.3951723873620.8101961016650.1836549937730.3358323872090.3775189220910.8040162920950.1836549937730.3358323872090.3572843968870.7966742515560.1836549937730.3358323872090.33607390523\x000.7966742515560.1836549937730.3358323872090.3143597245220.7966742515560.1836549937730.3358323872090.2947622537610.7966742515560.1836549937730.3358323872090.2780328691010.7966742515560.1836549937730.3358323872090.2644824087620.7966742515560.1836549937730.3358323872090.2554090619090.7966742515560.1836549937730.3358323872090.2508208155630.7966742515560.1836549937730.3358323872090.2519525587560.7966742515560.1836549937730.3358323872090.2582820355890.7966742515560.1836549937730.3358323872090.26562461257\x000.7966742515560.1836549937730.3358323872090.2674972116950.7966742515560.1836549937730.3358323872090.26133877039\x000.3193699121480.1836549937730.3358323872090.2522741854190.2953338921070.1836549937730.3358323872090.2443908900020.27279779315\x000.1836549937730.3358323872090.2419230043890.26030215621\x000.1836549937730.3358323872090.2426337450740.2553577721120.1836549937730.3358323872090.24475929141\x000.25145637989\x000.1836549937730.3358323872090.2455205768350.2444444298740.1836549937730.3358323872090.2423439472910.2349618077280.1836549937730.3358323872090.2348933517930.2242298573260.1836549937730.2011667490010.2240951359270.2156666666270.1222862973810.1926892250780.2117512077090.2106144577260.1119197830560.1868276000020.2004413902760.2075481563810.10680295527\x000.1684641242030.1930823773150.1969179511070.1082201823590.1496727615590.19197550416\x000.18394985795\x000.1172500625250.1363455057140.2003740370270.1785948574540.1266145557170.12855091691\x000.2213980257510.18266479671\x000.1314119398590.1271540671590.2550784349440.1966291069980.1337003707890.1305868029590.2887710928920.2136483341460.1332726478580.1363149583340.3035378754140.2223276793960.1315318495040.1372465789320.3137322366240.2232128977780.1285502463580.1372465789320.3239542245860.2227615416050.1285502463580.1311579644680.3330961465840.22418834269\x000.1258337050680.1294681727890.33686825633\x000.22927030921\x000.1270456910130.1300457119940.3363546729090.2360355705020.1305993646380.1303248256440.3311333656310.2442334145310.1353517174720.1285843253140.3207035660740.2534226179120.1403453350070.1268437802790.3041667044160.2623674571510.1443614363670.1281496286390.28118160367\x000.2700134217740.1451879292730.1355144381520.2548550069330.2720214128490.1435953974720.1555133908990.2341500669720.2680626213550.1402135491370.1889359802010.2190228700640.2604196667670.1377050578590.1889359802010.2136652916670.24722160399\x000.1377050578590.1889359802010.2169065326450.2333298623560.1377050578590.1889359802010.22832557559\x000.2299243211750.1377050578590.1889359802010.2535914182660.2528522014620.1377050578590.1889359802010.28947943449\x000.3040342926980.1377050578590.1889359802010.3365715146060.3664368987080.226194277406'
tb.