cnumpy.core.multiarray
_reconstruct
p1
(cnumpy
ndarray
p2
(I0
tS'b'
tRp3
(I1
(I50
I4
tcnumpy
dtype
p4
(S'S15'
I0
I1
tRp5
(I3
S'|'
NNNI15
I1
I0
tbI00
S'0.23999555409\x00\x000.340352088213\x000.226848036051\x000.212091550231\x000.239498794079\x000.332188159227\x000.216658115387\x000.213556736708\x000.236026361585\x000.326684266329\x000.215108320117\x000.216204717755\x000.239049389958\x000.32397082448\x00\x000.217566668987\x000.218735784292\x000.241049021482\x000.322990775108\x000.219923630357\x000.220583990216\x000.242491036654\x000.322258621454\x000.217987388372\x000.221191242337\x000.240306809545\x000.320610761642\x000.211057007313\x000.21846818924\x00\x000.234158709645\x000.318043857813\x000.201138436794\x000.211381793022\x000.222009927034\x000.314062446356\x000.189493849874\x000.200530841947\x000.206245586276\x000.308871626854\x000.176365837455\x000.190152704716\x000.193388879299\x000.302409142256\x000.161528810859\x000.185231819749\x000.188555732369\x000.292948335409\x000.145885437727\x000.193044245243\x000.189969658852\x000.279669374228\x000.130766645074\x000.193044245243\x000.177274242043\x000.2626747787\x00\x00\x000.119200251997\x000.193044245243\x000.165000125766\x000.243441671133\x000.112792804837\x000.193044245243\x000.155955657363\x000.224572390318\x000.110747896135\x000.193044245243\x000.161764547229\x000.209361553192\x000.107921823859\x000.347433269024\x000.167803108692\x000.197293996811\x000.100785195827\x000.348795503378\x000.165937498212\x000.187548533082\x000.09107986092570.346460789442\x000.166185200214\x000.179602608085\x000.08156327158210.340789675713\x000.171559169888\x000.173622995615\x000.07898192852740.330224573612\x000.181266009808\x000.170310541987\x000.08572433888910.317487806082\x000.193521931767\x000.169606402516\x000.102080486715\x000.30280688405\x00\x000.20630581677\x00\x000.169562935829\x000.124734222889\x000.289477050304\x000.21399705112\x00\x000.167703270912\x000.149385169148\x000.281187564135\x000.21399705112\x00\x000.16300201416\x00\x000.170030832291\x000.281187564135\x000.21399705112\x00\x000.156453043222\x000.184514194727\x000.281187564135\x000.21399705112\x00\x000.152026861906\x000.195113524795\x000.281187564135\x000.215327948332\x000.154059559107\x000.203684732318\x000.284104824066\x000.218879237771\x000.162687107921\x000.209370821714\x000.284501522779\x000.224015206099\x000.172780901194\x000.210319206119\x000.280938148499\x000.232328161597\x000.185929223895\x000.208239808679\x000.27409774065\x00\x000.244380742311\x000.19875150919\x00\x000.206500574946\x000.261599808931\x000.262576907873\x000.200882598758\x000.208581924438\x000.246848165989\x000.286223053932\x000.20461499691\x00\x000.216889306903\x000.236372545362\x000.307831585407\x000.209361419082\x000.229573905468\x000.231186211109\x000.307831585407\x000.218122318387\x000.239494889975\x000.231186211109\x000.307831585407\x000.235258385539\x000.246355712414\x000.231186211109\x000.307831585407\x000.253001838923\x000.2486756742\x00\x00\x000.231186211109\x000.307831585407\x000.267558038235\x000.248016193509\x000.231186211109\x000.307831585407\x000.278796732426\x000.248353406787\x000.231186211109\x000.307831585407\x000.287618100643\x000.251670181751\x000.231186211109\x000.307831585407\x000.294935673475\x000.257835537195\x000.281407743692\x000.307831585407\x000.30006223917\x00\x000.266780406237\x000.268840014935\x000.307831585407\x000.303367763758\x000.277631372213\x000.261557936668\x000.307831585407\x000.304639160633\x000.288354814053\x000.257167369127\x000.307831585407\x000.304497003555\x000.297932237387\x000.253743201494\x000.307831585407\x000.304899245501\x000.305364191532\x000.24953083694\x00\x000.307831585407\x000.305292397738\x000.30968105793\x00\x000.244223251939\x000.140822649002\x000.305413931608\x000.311499804258\x000.237975165248\x00'
tb.