cnumpy.core.multiarray
_reconstruct
p1
(cnumpy
ndarray
p2
(I0
tS'b'
tRp3
(I1
(I131
I4
tcnumpy
dtype
p4
(S'S15'
I0
I1
tRp5
(I3
S'|'
NNNI15
I1
I0
tbI00
S'0.275534570217\x000.33894020319\x00\x000.557527601719\x000.362375676632\x000.21886087954\x00\x000.344087928534\x000.570471763611\x000.159736052155\x000.233062565327\x000.356227368116\x000.585547626019\x000.157194495201\x000.245953276753\x000.378771722317\x000.595965266228\x000.15923216939\x00\x000.245953276753\x000.415140837431\x000.589302062988\x000.15923216939\x00\x000.245953276753\x000.46375733614\x00\x000.589302062988\x000.15923216939\x00\x000.245953276753\x000.511469483376\x000.589302062988\x000.15923216939\x00\x000.245953276753\x000.521898031235\x000.589302062988\x000.15923216939\x00\x000.245953276753\x000.48360607028\x00\x000.589302062988\x000.15923216939\x00\x000.245953276753\x000.421680986881\x000.589302062988\x000.15923216939\x00\x000.245953276753\x000.368695020676\x000.589302062988\x000.15923216939\x00\x000.245953276753\x000.332354068756\x000.589302062988\x000.15923216939\x00\x000.245953276753\x000.312265843153\x000.597606658936\x000.15923216939\x00\x000.260879427195\x000.30567702651\x00\x000.603621721268\x000.153407379985\x000.277343004942\x000.309000045061\x000.611201286316\x000.150111854076\x000.277343004942\x000.317321062088\x000.620651781559\x000.150111854076\x000.277343004942\x000.326308816671\x000.620651781559\x000.150111854076\x000.277343004942\x000.333234339952\x000.620651781559\x000.150111854076\x000.277343004942\x000.337569266558\x000.620651781559\x000.150111854076\x000.277343004942\x000.340013921261\x000.620651781559\x000.150111854076\x000.277343004942\x000.341805011034\x000.521986186504\x000.150111854076\x000.169365346432\x000.344886630774\x000.517856836319\x000.327985554934\x000.184035927057\x000.352856218815\x000.512563943863\x000.32879331708\x00\x000.197303637862\x000.369163930416\x000.498141586781\x000.320506006479\x000.201620355248\x000.39653211832\x00\x000.460385173559\x000.309438854456\x000.196042850614\x000.436354100704\x000.400312155485\x000.301330864429\x000.187010064721\x000.480221420527\x000.348085671663\x000.297025293112\x000.187010064721\x000.507639944553\x000.311981588602\x000.297025293112\x000.187010064721\x000.523608744144\x000.28944849968\x00\x000.297025293112\x000.187010064721\x000.522506594658\x000.273361593485\x000.297025293112\x000.187010064721\x000.510191261768\x000.256703615189\x000.297025293112\x000.187010064721\x000.491130620241\x000.237894311547\x000.297025293112\x000.187010064721\x000.470258593559\x000.213305771351\x000.297025293112\x000.19233097136\x00\x000.451857686043\x000.20707654953\x00\x000.307406812906\x000.199985384941\x000.438756018877\x000.184861689806\x000.307780891657\x000.206186428666\x000.431379169226\x000.178179740906\x000.298902511597\x000.209289759398\x000.427941441536\x000.170340925455\x000.284507602453\x000.206768542528\x000.426902353764\x000.160879850388\x000.272090166807\x000.206768542528\x000.426663726568\x000.149941444397\x000.272090166807\x000.206768542528\x000.426663726568\x000.138926416636\x000.272090166807\x000.206768542528\x000.426663726568\x000.129838213325\x000.272090166807\x000.206768542528\x000.426663726568\x000.124571867287\x000.272090166807\x000.206768542528\x000.426663726568\x000.122958101332\x000.272090166807\x000.206768542528\x000.426663726568\x000.121619321406\x000.272090166807\x000.206768542528\x000.426663726568\x000.118823066354\x000.272090166807\x000.206768542528\x000.426663726568\x000.118823066354\x000.272090166807\x000.206768542528\x000.214878812432\x000.118823066354\x000.272090166807\x000.206768542528\x000.240540519357\x000.118823066354\x000.272090166807\x000.206768542528\x000.265183895826\x000.118823066354\x000.272090166807\x000.206768542528\x000.285765767097\x000.118823066354\x000.272090166807\x000.206768542528\x000.296363919973\x000.118823066354\x000.272090166807\x000.206768542528\x000.293627560139\x000.118823066354\x000.272090166807\x000.206768542528\x000.282668232918\x000.118823066354\x000.272090166807\x000.206768542528\x000.272392958403\x000.118823066354\x000.272090166807\x000.206768542528\x000.272392958403\x000.118823066354\x000.272090166807\x000.206768542528\x000.272392958403\x000.118823066354\x000.272090166807\x000.206768542528\x000.306268274784\x000.118823066354\x000.272090166807\x000.206768542528\x000.341443866491\x000.118823066354\x000.272090166807\x000.206768542528\x000.341443866491\x000.118823066354\x000.272090166807\x000.206768542528\x000.341443866491\x000.118823066354\x000.272090166807\x000.206768542528\x000.344505369663\x000.118823066354\x000.272090166807\x000.206768542528\x000.342868983746\x000.118823066354\x000.272090166807\x000.206768542528\x000.329947263002\x000.16091042757\x00\x000.272090166807\x000.206768542528\x000.310869753361\x000.111307658255\x000.272090166807\x000.206768542528\x000.295597463846\x000.123500742018\x000.272090166807\x000.206768542528\x000.290856212378\x000.133440881968\x000.272090166807\x000.206768542528\x000.29714474082\x00\x000.142980977893\x000.272090166807\x000.206768542528\x000.312931239605\x000.153461560607\x000.272090166807\x000.206768542528\x000.377031773329\x000.165586739779\x000.04164895415310.206768542528\x000.38420471549\x00\x000.178082600236\x000.04760881140830.206768542528\x000.392167180777\x000.189200639725\x000.05304937064650.206768542528\x000.399611651897\x000.197520196438\x000.05855851620440.206768542528\x000.402583241463\x000.202757328749\x000.06337745487690.089660525322\x000.400224834681\x000.204932063818\x000.067005880177\x000.07974778860810.394121170044\x000.206030279398\x000.06908705830570.07411391288040.386294901371\x000.227550923824\x000.07021247595550.06857206672430.377186089754\x000.248083800077\x000.06865446269510.061009619385\x000.373299241066\x000.266066879034\x000.06244788318870.054442178458\x000.372518062592\x000.281673133373\x000.05589588731530.05108233913780.373329401016\x000.294272691011\x000.05260744318370.05108233913780.375530987978\x000.302844703197\x000.05607590824370.05108233913780.378906458616\x000.30750182271\x00\x000.05810954421760.05108233913780.38340601325\x00\x000.304991692305\x000.05827904865150.05108233913780.386339277029\x000.297442138195\x000.05772596225140.05108233913780.378327578306\x000.285521358252\x000.05667909234760.05051655322310.360378116369\x000.273217767477\x000.05542974546550.04998717829590.340997427702\x000.263651609421\x000.05370957031850.04952882975340.324628323317\x000.258735120296\x000.05171106010680.049061153084\x000.31396907568\x00\x000.259156167507\x000.04952554777260.04828901588920.308052420616\x000.263024508953\x000.04726890847090.04680648446080.305927962065\x000.267431735992\x000.04501160606740.04680648446080.305531144142\x000.270070165396\x000.04326756671070.04680648446080.304724693298\x000.270070165396\x000.04326756671070.04680648446080.302234381437\x000.270070165396\x000.04326756671070.04680648446080.298073768616\x000.270070165396\x000.04326756671070.04680648446080.292011320591\x000.270070165396\x000.04326756671070.04680648446080.28428196907\x00\x000.199482500553\x000.04326756671070.04680648446080.274856477976\x000.196332260966\x000.04326756671070.09335346519950.267316311598\x000.194593563676\x000.04326756671070.06967648118730.263462156057\x000.191183269024\x000.05124559253450.05831529200080.264398992062\x000.186750203371\x000.04479867219920.05359679833050.269849717617\x000.18367767334\x00\x000.043111462146\x000.05095983669160.27994966507\x00\x000.183065474033\x000.04320914670830.04979148879650.296424388885\x000.184771567583\x000.04459030181170.04953883960840.313626408577\x000.187669813633\x000.04661381617190.04969580844040.327433884144\x000.190640300512\x000.04862877726550.04969580844040.330471783876\x000.192196339369\x000.04862877726550.04969580844040.329906970263\x000.192196339369\x000.04862877726550.04969580844040.323731511831\x000.186234533787\x000.04862877726550.04969580844040.30409064889\x00\x000.185486152768\x000.04862877726550.04821108654140.309508651495\x000.193941920996\x000.04744648188350.04663835465910.312804579735\x000.208428114653\x000.04744648188350.04494016617540.312144935131\x000.218540683389\x000.04685251414780.04322699457410.306495904922\x000.228016853333\x000.04698330163960.04177967831490.295286595821\x000.241079226136\x000.04848717153070.04129291325810.281137794256\x000.264802843332\x000.05290229991080.04457465931770.26602190733\x00\x000.300141602755\x000.06441542506220.04457465931770.249281570315\x000.344278246164\x000.06441542506220.04457465931770.232282742858\x000.344278246164\x000.06441542506220.04457465931770.215473547578\x000.344278246164\x000.06441542506220.04457465931770.200308784842\x000.344278246164\x000.06441542506220.04457465931770.200308784842\x000.344278246164\x000.06441542506220.04457465931770.200308784842\x000.344278246164\x000.06441542506220.04457465931770.200308784842\x000.344278246164\x000.06441542506220.07288803905250.200308784842\x000.344278246164\x000.06441542506220.06117569282650.200308784842\x000.344278246164\x000.06441542506220.05527196452020.200308784842\x000.344278246164\x000.06441542506220.05292679369450.200308784842\x000.344278246164\x000.06441542506220.05268330872060.221831604838\x000.344278246164\x000.06441542506220.05346390232440.225665390491\x000.344278246164\x000.05809380486610.05472829937930.232336491346\x000.344278246164\x000.0590441301465'
tb.