cnumpy.core.multiarray
_reconstruct
p1
(cnumpy
ndarray
p2
(I0
tS'b'
tRp3
(I1
(I3660
I4
tcnumpy
dtype
p4
(S'S13'
I0
I1
tRp5
(I3
S'|'
NNNI13
I1
I0
tbI00
S'847.164855957847.164855957814.265258789857.034729004852.09979248\x00847.164855957799.460449219861.969726562838.940002441822.49017334\x00827.425109863865.259643555848.809875488820.845214844829.070068359863.614685059855.389770508842.229919434820.845214844857.034729004848.809875488850.454833984815.91027832\x00858.679748535852.09979248\x00824.135131836802.750427246852.09979248\x00848.809875488820.845214844812.620300293855.389770508853.744812012825.780151367819.200195312865.259643555845.519897461840.584960938819.200195312861.969726562840.584960938858.679748535814.265258789857.034729004848.809875488835.650024414794.525512695866.904663086842.229919434830.715087891810.975280762855.389770508829.070068359827.425109863829.070068359848.809875488842.229919434827.425109863832.360046387853.744812012840.584960938819.200195312832.360046387852.09979248\x00842.229919434837.29498291\x00815.91027832\x00857.034729004847.164855957850.454833984819.200195312852.09979248\x00838.940002441843.874938965824.135131836855.389770508838.940002441832.360046387820.845214844850.454833984840.584960938822.49017334\x00815.91027832\x00852.09979248\x00840.584960938840.584960938810.975280762852.09979248\x00842.229919434837.29498291\x00827.425109863848.809875488840.584960938847.164855957815.91027832\x00852.09979248\x00835.650024414822.49017334\x00817.555236816850.454833984852.09979248\x00824.135131836847.164855957870.194580078853.744812012848.809875488838.940002441860.324707031842.229919434852.09979248\x00824.135131836852.09979248\x00845.519897461834.005004883830.715087891853.744812012842.229919434824.135131836822.49017334\x00852.09979248\x00840.584960938852.09979248\x00832.360046387855.389770508857.034729004840.584960938830.715087891855.389770508837.29498291\x00850.454833984814.265258789847.164855957838.940002441850.454833984810.975280762855.389770508830.715087891845.519897461837.29498291\x00860.324707031838.940002441850.454833984830.715087891855.389770508840.584960938838.940002441832.360046387847.164855957835.650024414827.425109863842.229919434845.519897461832.360046387820.845214844837.29498291\x00853.744812012840.584960938842.229919434838.940002441860.324707031832.360046387863.614685059838.940002441853.744812012830.715087891860.324707031838.940002441847.164855957837.29498291\x00855.389770508837.29498291\x00845.519897461827.425109863847.164855957842.229919434834.005004883825.780151367843.874938965835.650024414840.584960938822.49017334\x00837.29498291\x00838.940002441830.715087891814.265258789820.845214844845.519897461812.620300293794.525512695837.29498291\x00842.229919434809.330322266789.590576172840.584960938853.744812012794.525512695743.53112793\x00857.034729004858.679748535769.850830078730.371276855865.259643555878.419494629753.401000977725.436340332840.584960938888.289367676745.176086426682.666870117840.584960938888.289367676694.18170166\x00649.767211914866.904663086932.703857422653.057189941605.352783203889.934387207932.703857422643.187316895587.257995605878.419494629912.964111328613.577697754583.968017578903.094238281965.60345459\x00603.707763672590.547912598903.094238281962.313476562605.352783203590.547912598886.64440918\x00957.378540039595.482910156583.968017578894.86932373\x00929.413879395603.707763672610.287719727863.614685059917.899047852623.447570801597.127868652906.384155273980.40826416\x00618.512634277616.867614746929.413879395960.668518066625.092529297644.832275391922.833984375937.638793945662.927062988662.927062988884.999450684924.478942871674.441955566685.956787109866.904663086883.354431152699.116638184684.311828613858.679748535909.674133301700.76159668\x00713.921447754812.620300293857.034729004723.791320801733.661254883801.105407715901.44921875\x00743.53112793\x00756.690979004830.715087891929.413879395755.045959473768.205810547891.579345703899.804260254773.14074707\x00778.075683594904.739196777850.454833984794.525512695799.460449219853.744812012766.560852051804.395385742824.135131836834.005004883799.460449219822.49017334\x00850.454833984827.425109863806.040344238840.584960938860.324707031845.519897461784.655639648861.969726562865.259643555812.620300293786.300598145881.709472656875.129516602792.880554199789.590576172886.64440918\x00875.129516602891.579345703783.010620117871.839599609893.224304199865.259643555763.270874023889.934387207904.739196777865.259643555753.401000977889.934387207906.384155273830.715087891756.690979004904.739196777916.25402832\x00774.785766602769.850830078917.899047852922.833984375784.655639648776.430725098921.188964844922.833984375820.845214844758.3359375\x00\x00931.058898926917.899047852835.650024414753.401000977935.993835449935.993835449863.614685059728.726318359949.153686523937.638793945860.324707031722.146362305952.443603516934.348815918830.715087891741.886108398935.993835449944.218688965802.750427246768.205810547934.348815918937.638793945834.005004883799.460449219922.833984375937.638793945847.164855957779.720703125935.993835449947.508666992822.49017334\x00774.785766602942.573730469932.703857422830.715087891771.495788574939.283752441942.573730469819.200195312755.045959473947.508666992940.928771973827.425109863745.176086426947.508666992945.863708496825.780151367751.75604248\x00945.863708496940.928771973827.425109863751.75604248\x00944.218688965942.573730469830.715087891743.53112793\x00952.443603516950.79864502\x00848.809875488738.596191406952.443603516939.283752441843.874938965741.886108398944.218688965947.508666992838.940002441735.306213379945.863708496937.638793945829.070068359753.401000977934.348815918935.993835449837.29498291\x00758.3359375\x00\x00940.928771973926.123962402825.780151367745.176086426927.768920898922.833984375837.29498291\x00751.75604248\x00922.833984375921.188964844848.809875488761.625915527921.188964844908.029174805848.809875488771.495788574912.964111328917.899047852860.324707031776.430725098921.188964844914.609069824842.229919434768.205810547912.964111328917.899047852840.584960938761.625915527926.123962402921.188964844838.940002441768.205810547921.188964844914.609069824845.519897461776.430725098912.964111328917.899047852840.584960938761.625915527924.478942871912.964111328824.135131836766.560852051919.544006348914.609069824842.229919434779.720703125911.319091797903.094238281865.259643555789.590576172904.739196777898.159240723858.679748535794.525512695896.514282227903.094238281850.454833984789.590576172894.86932373\x00904.739196777847.164855957783.010620117904.739196777904.739196777840.584960938786.300598145898.159240723891.579345703843.874938965792.880554199888.289367676898.159240723852.09979248\x00792.880554199896.514282227899.804260254843.874938965784.655639648894.86932373\x00901.44921875\x00845.519897461764.91583252\x00903.094238281901.44921875\x00814.265258789781.365661621909.674133301878.419494629829.070068359801.105407715891.579345703875.129516602870.194580078809.330322266881.709472656878.419494629860.324707031815.91027832\x00871.839599609880.064453125873.484558105810.975280762870.194580078884.999450684842.229919434806.040344238876.774536133881.709472656810.975280762809.330322266884.999450684883.354431152857.034729004797.815490723878.419494629870.194580078866.904663086781.365661621876.774536133873.484558105842.229919434792.880554199886.64440918\x00868.549621582829.070068359809.330322266878.419494629866.904663086819.200195312815.91027832\x00873.484558105868.549621582832.360046387807.68536377\x00886.64440918\x00858.679748535838.940002441797.815490723876.774536133865.259643555845.519897461771.495788574875.129516602866.904663086853.744812012802.750427246865.259643555875.129516602866.904663086804.395385742858.679748535857.034729004850.454833984810.975280762865.259643555853.744812012834.005004883845.519897461863.614685059866.904663086807.68536377\x00822.49017334\x00863.614685059852.09979248\x00845.519897461832.360046387857.034729004863.614685059857.034729004829.070068359868.549621582863.614685059834.005004883814.265258789865.259643555850.454833984835.650024414810.975280762868.549621582870.194580078852.09979248\x00809.330322266875.129516602861.969726562858.679748535829.070068359861.969726562871.839599609853.744812012820.845214844866.904663086865.259643555817.555236816822.49017334\x00868.549621582857.034729004809.330322266834.005004883861.969726562855.389770508835.650024414820.845214844861.969726562866.904663086865.259643555825.780151367857.034729004858.679748535837.29498291\x00827.425109863853.744812012853.744812012843.874938965829.070068359861.969726562855.389770508832.360046387819.200195312871.839599609842.229919434829.070068359834.005004883860.324707031860.324707031852.09979248\x00835.650024414852.09979248\x00857.034729004853.744812012822.49017334\x00847.164855957855.389770508837.29498291\x00827.425109863858.679748535865.259643555853.744812012822.49017334\x00861.969726562866.904663086865.259643555822.49017334\x00861.969726562853.744812012843.874938965825.780151367857.034729004858.679748535861.969726562837.29498291\x00860.324707031845.519897461834.005004883834.005004883850.454833984857.034729004824.135131836827.425109863860.324707031847.164855957865.259643555832.360046387855.389770508855.389770508866.904663086827.425109863865.259643555857.034729004861.969726562825.780151367843.874938965845.519897461837.29498291\x00819.200195312830.715087891847.164855957834.005004883815.91027832\x00827.425109863832.360046387871.839599609804.395385742819.200195312835.650024414880.064453125804.395385742822.49017334\x00838.940002441898.159240723796.170471191814.265258789822.49017334\x00868.549621582789.590576172810.975280762834.005004883832.360046387792.880554199815.91027832\x00824.135131836875.129516602789.590576172799.460449219815.91027832\x00893.224304199783.010620117797.815490723835.650024414870.194580078783.010620117809.330322266838.940002441857.034729004779.720703125820.845214844843.874938965830.715087891789.590576172817.555236816848.809875488824.135131836792.880554199809.330322266850.454833984853.744812012786.300598145812.620300293850.454833984876.774536133791.235534668825.780151367850.454833984881.709472656792.880554199840.584960938853.744812012898.159240723796.170471191837.29498291\x00845.519897461880.064453125799.460449219827.425109863840.584960938842.229919434791.235534668834.005004883847.164855957847.164855957786.300598145845.519897461850.454833984796.170471191814.265258789842.229919434855.389770508824.135131836815.91027832\x00838.940002441858.679748535886.64440918\x00817.555236816838.940002441870.194580078848.809875488820.845214844852.09979248\x00857.034729004886.64440918\x00801.105407715845.519897461847.164855957896.514282227806.040344238843.874938965855.389770508830.715087891824.135131836847.164855957858.679748535829.070068359815.91027832\x00848.809875488866.904663086873.484558105812.620300293858.679748535868.549621582871.839599609819.200195312855.389770508858.679748535883.354431152819.200195312850.454833984858.679748535845.519897461815.91027832\x00860.324707031860.324707031787.945556641819.200195312866.904663086868.549621582843.874938965815.91027832\x00865.259643555878.419494629871.839599609812.620300293860.324707031863.614685059855.389770508819.200195312861.969726562865.259643555838.940002441817.555236816875.129516602860.324707031870.194580078819.200195312870.194580078871.839599609830.715087891819.200195312880.064453125861.969726562807.68536377\x00820.845214844868.549621582866.904663086873.484558105812.620300293848.809875488861.969726562876.774536133820.845214844853.744812012853.744812012878.419494629822.49017334\x00855.389770508873.484558105842.229919434834.005004883857.034729004861.969726562761.625915527840.584960938861.969726562853.744812012860.324707031820.845214844845.519897461863.614685059860.324707031830.715087891843.874938965860.324707031880.064453125824.135131836847.164855957873.484558105858.679748535809.330322266860.324707031878.419494629794.525512695809.330322266873.484558105884.999450684863.614685059835.650024414871.839599609853.744812012857.034729004842.229919434857.034729004845.519897461860.324707031852.09979248\x00857.034729004861.969726562878.419494629834.005004883870.194580078880.064453125834.005004883817.555236816888.289367676881.709472656829.070068359852.09979248\x00893.224304199884.999450684838.940002441855.389770508896.514282227881.709472656850.454833984843.874938965891.579345703875.129516602837.29498291\x00835.650024414889.934387207888.289367676789.590576172850.454833984898.159240723875.129516602796.170471191875.129516602886.64440918\x00881.709472656838.940002441857.034729004875.129516602894.86932373\x00832.360046387829.070068359891.579345703888.289367676873.484558105837.29498291\x00891.579345703878.419494629824.135131836857.034729004891.579345703886.64440918\x00830.715087891858.679748535889.934387207881.709472656916.25402832\x00855.389770508888.289367676878.419494629870.194580078840.584960938893.224304199883.354431152875.129516602835.650024414896.514282227875.129516602824.135131836873.484558105893.224304199886.64440918\x00801.105407715857.034729004888.289367676880.064453125842.229919434852.09979248\x00883.354431152881.709472656866.904663086852.09979248\x00876.774536133884.999450684847.164855957843.874938965883.354431152868.549621582866.904663086850.454833984873.484558105868.549621582850.454833984843.874938965871.839599609878.419494629819.200195312842.229919434889.934387207881.709472656825.780151367822.49017334\x00873.484558105883.354431152815.91027832\x00824.135131836863.614685059880.064453125871.839599609820.845214844871.839599609881.709472656893.224304199829.070068359878.419494629871.839599609845.519897461835.650024414878.419494629876.774536133837.29498291\x00820.845214844857.034729004870.194580078870.194580078822.49017334\x00857.034729004865.259643555847.164855957832.360046387852.09979248\x00878.419494629829.070068359835.650024414860.324707031873.484558105809.330322266848.809875488868.549621582863.614685059824.135131836835.650024414852.09979248\x00870.194580078876.774536133824.135131836865.259643555861.969726562873.484558105820.845214844875.129516602863.614685059863.614685059822.49017334\x00863.614685059866.904663086807.68536377\x00838.940002441863.614685059858.679748535814.265258789837.29498291\x00865.259643555855.389770508855.389770508830.715087891871.839599609871.839599609812.620300293829.070068359863.614685059865.259643555781.365661621825.780151367858.679748535855.389770508911.319091797799.460449219860.324707031861.969726562883.354431152820.845214844861.969726562853.744812012889.934387207842.229919434865.259643555871.839599609886.64440918\x00801.105407715861.969726562860.324707031830.715087891842.229919434852.09979248\x00866.904663086838.940002441847.164855957863.614685059865.259643555796.170471191830.715087891880.064453125865.259643555794.525512695852.09979248\x00881.709472656866.904663086873.484558105825.780151367865.259643555860.324707031899.804260254807.68536377\x00868.549621582855.389770508893.224304199820.845214844865.259643555855.389770508838.940002441835.650024414860.324707031868.549621582796.170471191824.135131836866.904663086861.969726562834.005004883817.555236816868.549621582845.519897461884.999450684819.200195312857.034729004850.454833984855.389770508822.49017334\x00881.709472656845.519897461850.454833984824.135131836878.419494629850.454833984848.809875488830.715087891870.194580078868.549621582824.135131836825.780151367880.064453125857.034729004817.555236816815.91027832\x00853.744812012852.09979248\x00843.874938965802.750427246848.809875488855.389770508901.44921875\x00806.040344238855.389770508853.744812012876.774536133830.715087891848.809875488855.389770508871.839599609829.070068359842.229919434857.034729004853.744812012830.715087891837.29498291\x00866.904663086792.880554199825.780151367843.874938965865.259643555801.105407715820.845214844855.389770508842.229919434865.259643555815.91027832\x00873.484558105850.454833984870.194580078815.91027832\x00866.904663086847.164855957888.289367676810.975280762853.744812012847.164855957866.904663086815.91027832\x00838.940002441855.389770508842.229919434809.330322266834.005004883848.809875488855.389770508801.105407715848.809875488861.969726562812.620300293804.395385742858.679748535857.034729004796.170471191810.975280762853.744812012847.164855957858.679748535825.780151367837.29498291\x00847.164855957868.549621582843.874938965840.584960938848.809875488852.09979248\x00842.229919434852.09979248\x00855.389770508884.999450684829.070068359861.969726562843.874938965838.940002441824.135131836838.940002441843.874938965858.679748535825.780151367843.874938965838.940002441873.484558105830.715087891830.715087891858.679748535840.584960938838.940002441845.519897461847.164855957837.29498291\x00830.715087891857.034729004838.940002441865.259643555812.620300293847.164855957853.744812012870.194580078804.395385742855.389770508847.164855957824.135131836814.265258789848.809875488855.389770508792.880554199810.975280762855.389770508858.679748535866.904663086802.750427246847.164855957880.064453125891.579345703807.68536377\x00860.324707031875.129516602909.674133301796.170471191870.194580078848.809875488889.934387207827.425109863850.454833984847.164855957858.679748535863.614685059866.904663086865.259643555834.005004883865.259643555898.159240723883.354431152842.229919434863.614685059891.579345703889.934387207840.584960938845.519897461896.514282227889.934387207815.91027832\x00838.940002441901.44921875\x00884.999450684812.620300293847.164855957891.579345703899.804260254838.940002441832.360046387903.094238281899.804260254819.200195312820.845214844912.964111328893.224304199799.460449219827.425109863909.674133301899.804260254804.395385742834.005004883899.804260254894.86932373\x00807.68536377\x00837.29498291\x00896.514282227886.64440918\x00820.845214844827.425109863904.739196777886.64440918\x00855.389770508827.425109863896.514282227886.64440918\x00878.419494629822.49017334\x00886.64440918\x00883.354431152858.679748535842.229919434878.419494629881.709472656830.715087891850.454833984880.064453125886.64440918\x00786.300598145820.845214844888.289367676886.64440918\x00789.590576172830.715087891898.159240723893.224304199843.874938965835.650024414893.224304199883.354431152873.484558105830.715087891894.86932373\x00870.194580078886.64440918\x00848.809875488880.064453125876.774536133870.194580078829.070068359880.064453125883.354431152834.005004883809.330322266878.419494629880.064453125852.09979248\x00809.330322266876.774536133884.999450684832.360046387786.300598145883.354431152881.709472656829.070068359789.590576172880.064453125873.484558105815.91027832\x00850.454833984870.194580078865.259643555837.29498291\x00848.809875488857.034729004866.904663086855.389770508853.744812012860.324707031865.259643555838.940002441830.715087891861.969726562865.259643555838.940002441792.880554199861.969726562870.194580078819.200195312792.880554199866.904663086865.259643555810.975280762825.780151367866.904663086858.679748535842.229919434807.68536377\x00860.324707031865.259643555863.614685059784.655639648857.034729004857.034729004852.09979248\x00825.780151367860.324707031847.164855957855.389770508807.68536377\x00847.164855957855.389770508847.164855957794.525512695843.874938965847.164855957820.845214844835.650024414842.229919434838.940002441840.584960938829.070068359837.29498291\x00848.809875488847.164855957810.975280762832.360046387853.744812012832.360046387817.555236816845.519897461850.454833984817.555236816801.105407715848.809875488852.09979248\x00822.49017334\x00789.590576172857.034729004855.389770508827.425109863812.620300293853.744812012835.650024414870.194580078822.49017334\x00834.005004883840.584960938857.034729004801.105407715842.229919434850.454833984832.360046387804.395385742853.744812012838.940002441829.070068359814.265258789845.519897461830.715087891822.49017334\x00807.68536377\x00843.874938965824.135131836824.135131836820.845214844853.744812012827.425109863847.164855957806.040344238850.454833984834.005004883842.229919434802.750427246857.034729004837.29498291\x00843.874938965814.265258789842.229919434830.715087891850.454833984819.200195312837.29498291\x00832.360046387834.005004883842.229919434848.809875488834.005004883827.425109863840.584960938861.969726562830.715087891829.070068359825.780151367852.09979248\x00829.070068359829.070068359817.555236816855.389770508832.360046387827.425109863825.780151367860.324707031852.09979248\x00830.715087891840.584960938866.904663086837.29498291\x00830.715087891852.09979248\x00868.549621582830.715087891834.005004883855.389770508855.389770508832.360046387820.845214844848.809875488870.194580078835.650024414807.68536377\x00843.874938965863.614685059835.650024414827.425109863817.555236816863.614685059837.29498291\x00835.650024414827.425109863871.839599609832.360046387832.360046387845.519897461858.679748535838.940002441845.519897461842.229919434866.904663086840.584960938835.650024414870.194580078876.774536133829.070068359830.715087891866.904663086871.839599609832.360046387830.715087891861.969726562866.904663086827.425109863827.425109863857.034729004861.969726562834.005004883827.425109863860.324707031858.679748535834.005004883830.715087891866.904663086863.614685059832.360046387842.229919434865.259643555870.194580078847.164855957832.360046387861.969726562876.774536133845.519897461829.070068359863.614685059865.259643555829.070068359832.360046387863.614685059866.904663086837.29498291\x00837.29498291\x00870.194580078875.129516602825.780151367830.715087891848.809875488868.549621582847.164855957835.650024414799.460449219878.419494629870.194580078815.91027832\x00832.360046387891.579345703830.715087891814.265258789899.804260254873.484558105829.070068359863.614685059904.739196777855.389770508830.715087891868.549621582904.739196777863.614685059824.135131836853.744812012880.064453125860.324707031838.940002441815.91027832\x00858.679748535868.549621582845.519897461837.29498291\x00880.064453125871.839599609835.650024414868.549621582891.579345703853.744812012820.845214844868.549621582875.129516602853.744812012835.650024414870.194580078880.064453125861.969726562847.164855957838.940002441868.549621582858.679748535843.874938965852.09979248\x00876.774536133858.679748535845.519897461871.839599609884.999450684850.454833984866.904663086860.324707031893.224304199858.679748535855.389770508850.454833984884.999450684871.839599609827.425109863845.519897461863.614685059850.454833984852.09979248\x00843.874938965884.999450684871.839599609830.715087891827.425109863914.609069824863.614685059847.164855957832.360046387922.833984375868.549621582863.614685059857.034729004912.964111328876.774536133845.519897461866.904663086909.674133301858.679748535838.940002441863.614685059896.514282227861.969726562843.874938965860.324707031904.739196777863.614685059840.584960938853.744812012909.674133301863.614685059842.229919434853.744812012898.159240723855.389770508834.005004883858.679748535912.964111328842.229919434845.519897461857.034729004894.86932373\x00843.874938965850.454833984858.679748535896.514282227857.034729004830.715087891848.809875488939.283752441842.229919434847.164855957840.584960938909.674133301857.034729004837.29498291\x00835.650024414926.123962402850.454833984842.229919434830.715087891906.384155273857.034729004837.29498291\x00855.389770508884.999450684857.034729004829.070068359884.999450684927.768920898837.29498291\x00820.845214844880.064453125945.863708496842.229919434825.780151367866.904663086934.348815918847.164855957838.940002441842.229919434926.123962402850.454833984838.940002441853.744812012912.964111328852.09979248\x00843.874938965853.744812012896.514282227860.324707031855.389770508845.519897461899.804260254865.259643555860.324707031858.679748535866.904663086870.194580078857.034729004857.034729004875.129516602875.129516602853.744812012871.839599609904.739196777847.164855957838.940002441871.839599609916.25402832\x00857.034729004840.584960938860.324707031927.768920898842.229919434848.809875488830.715087891883.354431152848.809875488838.940002441822.49017334\x00858.679748535847.164855957835.650024414845.519897461875.129516602848.809875488825.780151367855.389770508880.064453125835.650024414829.070068359886.64440918\x00884.999450684832.360046387834.005004883891.579345703889.934387207835.650024414830.715087891873.484558105886.64440918\x00837.29498291\x00824.135131836860.324707031889.934387207843.874938965835.650024414840.584960938889.934387207848.809875488834.005004883848.809875488863.614685059838.940002441827.425109863852.09979248\x00824.135131836842.229919434829.070068359852.09979248\x00824.135131836847.164855957822.49017334\x00858.679748535866.904663086835.650024414822.49017334\x00845.519897461888.289367676837.29498291\x00832.360046387838.940002441888.289367676829.070068359827.425109863852.09979248\x00866.904663086838.940002441829.070068359865.259643555837.29498291\x00835.650024414830.715087891861.969726562837.29498291\x00834.005004883822.49017334\x00865.259643555847.164855957840.584960938820.845214844860.324707031840.584960938838.940002441830.715087891848.809875488838.940002441842.229919434822.49017334\x00838.940002441852.09979248\x00842.229919434838.940002441827.425109863834.005004883840.584960938834.005004883838.940002441804.395385742850.454833984820.845214844855.389770508825.780151367848.809875488827.425109863850.454833984848.809875488840.584960938807.68536377\x00842.229919434863.614685059830.715087891820.845214844832.360046387848.809875488824.135131836845.519897461858.679748535783.010620117845.519897461822.49017334\x00863.614685059792.880554199842.229919434817.555236816861.969726562873.484558105832.360046387819.200195312855.389770508855.389770508837.29498291\x00799.460449219840.584960938871.839599609827.425109863829.070068359852.09979248\x00838.940002441822.49017334\x00827.425109863838.940002441815.91027832\x00830.715087891829.070068359842.229919434830.715087891820.845214844834.005004883843.874938965840.584960938837.29498291\x00830.715087891843.874938965819.200195312842.229919434838.940002441860.324707031832.360046387829.070068359834.005004883852.09979248\x00829.070068359842.229919434830.715087891857.034729004830.715087891835.650024414832.360046387857.034729004838.940002441824.135131836838.940002441820.845214844819.200195312837.29498291\x00840.584960938820.845214844774.785766602840.584960938820.845214844857.034729004792.880554199834.005004883825.780151367848.809875488853.744812012829.070068359829.070068359837.29498291\x00843.874938965832.360046387829.070068359838.940002441845.519897461835.650024414830.715087891845.519897461820.845214844842.229919434825.780151367860.324707031832.360046387847.164855957830.715087891853.744812012850.454833984834.005004883830.715087891838.940002441838.940002441835.650024414832.360046387834.005004883819.200195312837.29498291\x00824.135131836840.584960938829.070068359845.519897461824.135131836853.744812012845.519897461817.555236816825.780151367845.519897461838.940002441820.845214844830.715087891847.164855957791.235534668840.584960938838.940002441852.09979248\x00779.720703125830.715087891832.360046387827.425109863789.590576172848.809875488825.780151367804.395385742834.005004883843.874938965819.200195312838.940002441876.774536133824.135131836817.555236816863.614685059893.224304199822.49017334\x00830.715087891881.709472656876.774536133834.005004883806.040344238880.064453125845.519897461819.200195312797.815490723858.679748535819.200195312817.555236816802.750427246850.454833984797.815490723819.200195312776.430725098845.519897461838.940002441796.170471191797.815490723837.29498291\x00857.034729004784.655639648789.590576172850.454833984847.164855957792.880554199791.235534668852.09979248\x00855.389770508786.300598145819.200195312852.09979248\x00819.200195312802.750427246822.49017334\x00848.809875488807.68536377\x00814.265258789812.620300293827.425109863812.620300293814.265258789825.780151367829.070068359806.040344238810.975280762824.135131836860.324707031817.555236816824.135131836819.200195312853.744812012842.229919434830.715087891817.555236816852.09979248\x00852.09979248\x00829.070068359814.265258789857.034729004853.744812012819.200195312814.265258789845.519897461829.070068359815.91027832\x00835.650024414814.265258789819.200195312827.425109863834.005004883845.519897461829.070068359820.845214844832.360046387878.419494629825.780151367832.360046387834.005004883873.484558105815.91027832\x00827.425109863825.780151367873.484558105820.845214844822.49017334\x00827.425109863860.324707031834.005004883838.940002441838.940002441843.874938965838.940002441837.29498291\x00845.519897461837.29498291\x00815.91027832\x00850.454833984842.229919434840.584960938806.040344238845.519897461852.09979248\x00843.874938965815.91027832\x00860.324707031835.650024414843.874938965819.200195312845.519897461838.940002441853.744812012853.744812012843.874938965847.164855957853.744812012838.940002441838.940002441832.360046387829.070068359817.555236816838.940002441840.584960938837.29498291\x00822.49017334\x00840.584960938848.809875488840.584960938814.265258789834.005004883838.940002441825.780151367812.620300293840.584960938845.519897461838.940002441794.525512695845.519897461842.229919434845.519897461791.235534668838.940002441840.584960938845.519897461830.715087891830.715087891847.164855957853.744812012822.49017334\x00827.425109863829.070068359848.809875488822.49017334\x00834.005004883827.425109863847.164855957817.555236816834.005004883835.650024414848.809875488784.655639648837.29498291\x00845.519897461820.845214844779.720703125847.164855957838.940002441799.460449219809.330322266840.584960938827.425109863824.135131836812.620300293845.519897461819.200195312847.164855957825.780151367843.874938965817.555236816865.259643555822.49017334\x00837.29498291\x00825.780151367866.904663086806.040344238835.650024414829.070068359852.09979248\x00787.945556641838.940002441838.940002441832.360046387792.880554199847.164855957822.49017334\x00829.070068359829.070068359848.809875488822.49017334\x00832.360046387815.91027832\x00848.809875488822.49017334\x00817.555236816832.360046387842.229919434837.29498291\x00815.91027832\x00786.300598145848.809875488838.940002441829.070068359802.750427246855.389770508837.29498291\x00843.874938965825.780151367860.324707031832.360046387829.070068359807.68536377\x00848.809875488832.360046387827.425109863776.430725098853.744812012847.164855957810.975280762769.850830078847.164855957817.555236816802.750427246837.29498291\x00840.584960938822.49017334\x00896.514282227829.070068359834.005004883827.425109863888.289367676824.135131836832.360046387820.845214844875.129516602819.200195312848.809875488835.650024414848.809875488807.68536377\x00848.809875488827.425109863820.845214844837.29498291\x00853.744812012838.940002441840.584960938822.49017334\x00842.229919434840.584960938838.940002441796.170471191834.005004883852.09979248\x00810.975280762804.395385742852.09979248\x00840.584960938819.200195312829.070068359853.744812012830.715087891843.874938965842.229919434858.679748535842.229919434842.229919434815.91027832\x00860.324707031842.229919434842.229919434812.620300293848.809875488860.324707031832.360046387812.620300293870.194580078858.679748535829.070068359815.91027832\x00868.549621582847.164855957840.584960938806.040344238881.709472656853.744812012853.744812012812.620300293873.484558105842.229919434845.519897461863.614685059845.519897461835.650024414848.809875488838.940002441850.454833984824.135131836842.229919434840.584960938842.229919434825.780151367834.005004883822.49017334\x00843.874938965820.845214844837.29498291\x00814.265258789838.940002441817.555236816848.809875488852.09979248\x00822.49017334\x00817.555236816857.034729004855.389770508807.68536377\x00786.300598145848.809875488840.584960938802.750427246776.430725098860.324707031835.650024414784.655639648755.045959473868.549621582842.229919434764.91583252\x00718.856384277866.904663086848.809875488733.661254883704.051574707848.809875488832.360046387712.276489258694.18170166\x00863.614685059796.170471191717.211425781682.666870117883.354431152863.614685059681.021850586657.992126465881.709472656881.709472656662.927062988649.767211914866.904663086875.129516602671.151977539634.962402344901.44921875\x00903.094238281643.187316895631.672424316899.804260254870.194580078659.637145996641.542358398848.809875488822.49017334\x00667.861999512651.412231445871.839599609847.164855957669.507019043639.897338867937.638793945935.993835449669.507019043648.122253418927.768920898924.478942871662.927062988667.861999512908.029174805939.283752441687.601806641681.021850586860.324707031904.739196777699.116638184702.406616211835.650024414866.904663086712.276489258710.631530762868.549621582884.999450684738.596191406720.501403809891.579345703886.64440918\x00740.241149902751.75604248\x00791.235534668858.679748535769.850830078774.785766602848.809875488789.590576172797.815490723779.720703125880.064453125857.034729004796.170471191769.850830078871.839599609904.739196777786.300598145779.720703125850.454833984893.224304199810.975280762804.395385742829.070068359870.194580078810.975280762822.49017334\x00827.425109863842.229919434832.360046387842.229919434801.105407715850.454833984837.29498291\x00840.584960938794.525512695903.094238281850.454833984837.29498291\x00791.235534668962.313476562835.650024414845.519897461852.09979248\x00896.514282227845.519897461857.034729004871.839599609891.579345703868.549621582861.969726562866.904663086855.389770508880.064453125878.419494629838.940002441853.744812012889.934387207888.289367676825.780151367860.324707031896.514282227891.579345703791.235534668908.029174805893.224304199899.804260254810.975280762926.123962402904.739196777904.739196777888.289367676891.579345703917.899047852908.029174805870.194580078904.739196777899.804260254906.384155273860.324707031911.319091797903.094238281908.029174805810.975280762919.544006348916.25402832\x00929.413879395797.815490723919.544006348922.833984375924.478942871837.29498291\x00901.44921875\x00932.703857422922.833984375853.744812012899.804260254934.348815918917.899047852848.809875488908.029174805922.833984375921.188964844824.135131836916.25402832\x00931.058898926929.413879395814.265258789880.064453125934.348815918945.863708496814.265258789870.194580078935.993835449940.928771973842.229919434894.86932373\x00932.703857422944.218688965843.874938965884.999450684947.508666992949.153686523801.105407715876.774536133949.153686523945.863708496820.845214844889.934387207947.508666992940.928771973840.584960938878.419494629947.508666992939.283752441832.360046387855.389770508942.573730469940.928771973848.809875488860.324707031939.283752441950.79864502\x00830.715087891843.874938965947.508666992952.443603516853.744812012848.809875488954.088623047944.218688965866.904663086858.679748535934.348815918949.153686523834.005004883878.419494629944.218688965947.508666992822.49017334\x00866.904663086939.283752441931.058898926838.940002441845.519897461942.573730469927.768920898855.389770508845.519897461934.348815918922.833984375837.29498291\x00837.29498291\x00927.768920898921.188964844807.68536377\x00855.389770508931.058898926927.768920898799.460449219858.679748535919.544006348929.413879395830.715087891825.780151367926.123962402919.544006348847.164855957796.170471191922.833984375916.25402832\x00850.454833984838.940002441909.674133301927.768920898848.809875488840.584960938919.544006348912.964111328858.679748535820.845214844916.25402832\x00921.188964844858.679748535840.584960938912.964111328924.478942871824.135131836834.005004883916.25402832\x00921.188964844801.105407715814.265258789924.478942871924.478942871799.460449219848.809875488922.833984375878.419494629852.09979248\x00855.389770508891.579345703870.194580078866.904663086829.070068359883.354431152853.744812012837.29498291\x00820.845214844878.419494629850.454833984799.460449219801.105407715873.484558105840.584960938817.555236816834.005004883871.839599609815.91027832\x00842.229919434852.09979248\x00848.809875488829.070068359825.780151367837.29498291\x00840.584960938827.425109863802.750427246861.969726562847.164855957830.715087891783.010620117853.744812012850.454833984827.425109863817.555236816861.969726562855.389770508824.135131836817.555236816855.389770508847.164855957837.29498291\x00799.460449219814.265258789858.679748535850.454833984815.91027832\x00794.525512695863.614685059850.454833984842.229919434832.360046387850.454833984848.809875488835.650024414842.229919434863.614685059837.29498291\x00840.584960938814.265258789863.614685059840.584960938838.940002441802.750427246868.549621582840.584960938812.620300293822.49017334\x00861.969726562845.519897461810.975280762810.975280762870.194580078853.744812012848.809875488829.070068359870.194580078853.744812012845.519897461848.809875488850.454833984863.614685059850.454833984815.91027832\x00866.904663086855.389770508853.744812012834.005004883861.969726562860.324707031832.360046387837.29498291\x00865.259643555860.324707031837.29498291\x00827.425109863875.129516602865.259643555830.715087891822.49017334\x00876.774536133863.614685059843.874938965794.525512695873.484558105870.194580078832.360046387796.170471191868.549621582861.969726562812.620300293802.750427246865.259643555860.324707031857.034729004807.68536377\x00861.969726562868.549621582863.614685059806.040344238866.904663086861.969726562860.324707031829.070068359871.839599609863.614685059876.774536133819.200195312860.324707031865.259643555830.715087891809.330322266857.034729004860.324707031835.650024414819.200195312860.324707031850.454833984863.614685059802.750427246852.09979248\x00845.519897461853.744812012824.135131836852.09979248\x00850.454833984824.135131836819.200195312853.744812012873.484558105802.750427246778.075683594855.389770508861.969726562822.49017334\x00761.625915527863.614685059852.09979248\x00834.005004883786.300598145866.904663086843.874938965853.744812012835.650024414850.454833984837.29498291\x00875.129516602838.940002441845.519897461852.09979248\x00848.809875488827.425109863855.389770508857.034729004819.200195312806.040344238857.034729004868.549621582794.525512695799.460449219873.484558105861.969726562886.64440918\x00789.590576172866.904663086825.780151367912.964111328792.880554199834.005004883830.715087891881.709472656786.300598145825.780151367822.49017334\x00807.68536377\x00779.720703125822.49017334\x00806.040344238776.430725098797.815490723804.395385742796.170471191884.999450684773.14074707\x00791.235534668778.075683594947.508666992761.625915527781.365661621761.625915527903.094238281764.91583252\x00761.625915527771.495788574881.709472656759.980895996751.75604248\x00769.850830078855.389770508745.176086426738.596191406755.045959473903.094238281730.371276855735.306213379771.495788574914.609069824732.016235352735.306213379771.495788574850.454833984741.886108398746.821105957792.880554199855.389770508733.661254883756.690979004799.460449219876.774536133733.661254883764.91583252\x00789.590576172878.419494629750.111022949771.495788574806.040344238840.584960938743.53112793\x00794.525512695801.105407715871.839599609755.045959473789.590576172815.91027832\x00848.809875488758.3359375\x00\x00797.815490723809.330322266853.744812012764.91583252\x00802.750427246809.330322266838.940002441773.14074707\x00792.880554199820.845214844852.09979248\x00768.205810547804.395385742814.265258789870.194580078755.045959473807.68536377\x00840.584960938894.86932373\x00746.821105957825.780151367840.584960938855.389770508743.53112793\x00838.940002441834.005004883829.070068359756.690979004829.070068359842.229919434842.229919434771.495788574830.715087891837.29498291\x00837.29498291\x00773.14074707\x00829.070068359838.940002441873.484558105779.720703125822.49017334\x00838.940002441857.034729004768.205810547825.780151367837.29498291\x00865.259643555758.3359375\x00\x00840.584960938843.874938965875.129516602766.560852051837.29498291\x00842.229919434850.454833984769.850830078840.584960938853.744812012806.040344238771.495788574845.519897461847.164855957814.265258789779.720703125842.229919434845.519897461880.064453125773.14074707\x00852.09979248\x00848.809875488858.679748535766.560852051858.679748535847.164855957889.934387207769.850830078857.034729004847.164855957861.969726562771.495788574858.679748535855.389770508824.135131836781.365661621858.679748535863.614685059843.874938965779.720703125868.549621582858.679748535861.969726562779.720703125843.874938965858.679748535857.034729004784.655639648852.09979248\x00861.969726562830.715087891783.010620117863.614685059863.614685059830.715087891781.365661621860.324707031876.774536133842.229919434783.010620117873.484558105875.129516602850.454833984781.365661621875.129516602866.904663086876.774536133786.300598145875.129516602873.484558105865.259643555791.235534668881.709472656866.904663086847.164855957791.235534668888.289367676878.419494629840.584960938792.880554199888.289367676878.419494629825.780151367792.880554199889.934387207873.484558105845.519897461792.880554199894.86932373\x00881.709472656843.874938965779.720703125901.44921875\x00878.419494629852.09979248\x00789.590576172889.934387207881.709472656840.584960938792.880554199893.224304199875.129516602843.874938965796.170471191883.354431152875.129516602873.484558105786.300598145880.064453125858.679748535853.744812012776.430725098884.999450684870.194580078860.324707031786.300598145881.709472656863.614685059855.389770508783.010620117881.709472656863.614685059822.49017334\x00801.105407715884.999450684868.549621582837.29498291\x00787.945556641878.419494629858.679748535853.744812012778.075683594876.774536133857.034729004855.389770508797.815490723866.904663086855.389770508865.259643555796.170471191870.194580078863.614685059847.164855957801.105407715870.194580078863.614685059825.780151367794.525512695873.484558105861.969726562834.005004883786.300598145876.774536133863.614685059843.874938965792.880554199873.484558105858.679748535827.425109863807.68536377\x00883.354431152866.904663086824.135131836806.040344238883.354431152871.839599609848.809875488799.460449219878.419494629853.744812012893.224304199791.235534668871.839599609866.904663086868.549621582786.300598145868.549621582857.034729004853.744812012787.945556641873.484558105861.969726562840.584960938787.945556641873.484558105858.679748535829.070068359786.300598145881.709472656861.969726562848.809875488791.235534668880.064453125868.549621582843.874938965786.300598145865.259643555860.324707031820.845214844802.750427246876.774536133863.614685059792.880554199815.91027832\x00878.419494629843.874938965873.484558105807.68536377\x00863.614685059853.744812012881.709472656796.170471191863.614685059848.809875488871.839599609791.235534668873.484558105847.164855957861.969726562801.105407715858.679748535857.034729004806.040344238804.395385742865.259643555868.549621582809.330322266806.040344238870.194580078880.064453125845.519897461794.525512695873.484558105883.354431152852.09979248\x00784.655639648896.514282227881.709472656822.49017334\x00796.170471191901.44921875\x00876.774536133852.09979248\x00799.460449219883.354431152880.064453125860.324707031786.300598145880.064453125884.999450684824.135131836796.170471191891.579345703886.64440918\x00838.940002441776.430725098904.739196777875.129516602866.904663086779.720703125904.739196777873.484558105834.005004883794.525512695899.804260254878.419494629850.454833984814.265258789899.804260254886.64440918\x00822.49017334\x00810.975280762916.25402832\x00891.579345703787.945556641814.265258789921.188964844883.354431152838.940002441812.620300293908.029174805873.484558105822.49017334\x00807.68536377\x00906.384155273878.419494629860.324707031806.040344238896.514282227880.064453125852.09979248\x00797.815490723904.739196777871.839599609837.29498291\x00809.330322266886.64440918\x00870.194580078850.454833984817.555236816884.999450684865.259643555834.005004883810.975280762883.354431152870.194580078837.29498291\x00814.265258789886.64440918\x00870.194580078825.780151367814.265258789881.709472656858.679748535832.360046387807.68536377\x00871.839599609855.389770508843.874938965806.040344238868.549621582857.034729004830.715087891812.620300293871.839599609853.744812012843.874938965810.975280762875.129516602840.584960938842.229919434829.070068359853.744812012848.809875488843.874938965827.425109863857.034729004857.034729004848.809875488827.425109863861.969726562865.259643555827.425109863819.200195312860.324707031857.034729004835.650024414829.070068359865.259643555847.164855957853.744812012825.780151367858.679748535840.584960938855.389770508827.425109863852.09979248\x00860.324707031852.09979248\x00827.425109863861.969726562860.324707031843.874938965814.265258789863.614685059850.454833984829.070068359809.330322266866.904663086850.454833984830.715087891810.975280762865.259643555852.09979248\x00830.715087891804.395385742868.549621582853.744812012810.975280762817.555236816868.549621582852.09979248\x00876.774536133827.425109863852.09979248\x00858.679748535850.454833984827.425109863861.969726562860.324707031835.650024414824.135131836853.744812012857.034729004855.389770508809.330322266855.389770508855.389770508814.265258789814.265258789861.969726562850.454833984843.874938965817.555236816855.389770508845.519897461868.549621582817.555236816857.034729004850.454833984834.005004883820.845214844858.679748535861.969726562861.969726562806.040344238865.259643555850.454833984863.614685059809.330322266852.09979248\x00858.679748535838.940002441810.975280762871.839599609855.389770508824.135131836815.91027832\x00857.034729004842.229919434822.49017334\x00830.715087891853.744812012853.744812012825.780151367834.005004883861.969726562853.744812012825.780151367825.780151367852.09979248\x00850.454833984840.584960938820.845214844860.324707031863.614685059820.845214844812.620300293868.549621582855.389770508857.034729004812.620300293863.614685059853.744812012845.519897461810.975280762860.324707031853.744812012822.49017334\x00804.395385742871.839599609855.389770508837.29498291\x00817.555236816860.324707031860.324707031843.874938965814.265258789866.904663086860.324707031861.969726562824.135131836870.194580078860.324707031835.650024414830.715087891865.259643555852.09979248\x00847.164855957819.200195312853.744812012855.389770508843.874938965820.845214844858.679748535865.259643555838.940002441812.620300293861.969726562853.744812012832.360046387824.135131836857.034729004853.744812012794.525512695827.425109863863.614685059855.389770508827.425109863824.135131836866.904663086852.09979248\x00904.739196777812.620300293857.034729004850.454833984878.419494629815.91027832\x00863.614685059857.034729004858.679748535814.265258789865.259643555850.454833984830.715087891820.845214844852.09979248\x00845.519897461822.49017334\x00825.780151367858.679748535853.744812012815.91027832\x00824.135131836858.679748535848.809875488842.229919434819.200195312858.679748535845.519897461830.715087891825.780151367860.324707031845.519897461847.164855957822.49017334\x00857.034729004832.360046387888.289367676834.005004883848.809875488840.584960938871.839599609830.715087891843.874938965835.650024414855.389770508809.330322266845.519897461845.519897461809.330322266838.940002441861.969726562838.940002441830.715087891843.874938965847.164855957837.29498291\x00845.519897461832.360046387852.09979248\x00834.005004883804.395385742865.259643555853.744812012822.49017334\x00807.68536377\x00850.454833984835.650024414815.91027832\x00829.070068359847.164855957825.780151367804.395385742886.64440918\x00860.324707031815.91027832\x00784.655639648912.964111328852.09979248\x00792.880554199766.560852051899.804260254853.744812012781.365661621738.596191406866.904663086870.194580078764.91583252\x00720.501403809870.194580078866.904663086728.726318359708.98651123\x00884.999450684873.484558105704.051574707666.217041016866.904663086889.934387207679.37689209\x00638.252380371858.679748535884.999450684648.122253418618.512634277884.999450684875.129516602620.157592773580.678039551912.964111328871.839599609608.642700195572.453186035866.904663086873.484558105597.127868652569.163208008883.354431152889.934387207583.968017578557.64831543\x00959.02355957\x00924.478942871580.678039551569.163208008970.538391113904.739196777583.968017578588.902954102950.79864502\x00904.739196777606.997741699600.41784668\x00919.544006348884.999450684623.447570801626.737487793871.839599609876.774536133628.382507324643.187316895825.780151367924.478942871648.122253418653.057189941931.058898926924.478942871656.347167969669.507019043983.698242188919.544006348679.37689209\x00690.891723633931.058898926880.064453125707.341552734722.146362305931.058898926848.809875488730.371276855750.111022949878.419494629835.650024414755.045959473764.91583252\x00878.419494629860.324707031766.560852051784.655639648878.419494629845.519897461789.590576172791.235534668878.419494629832.360046387801.105407715824.135131836878.419494629794.525512695830.715087891835.650024414878.419494629738.596191406843.874938965838.940002441878.419494629755.045959473840.584960938855.389770508825.780151367748.466064453860.324707031845.519897461878.419494629764.91583252\x00863.614685059871.839599609825.780151367783.010620117873.484558105878.419494629878.419494629769.850830078881.709472656865.259643555931.058898926776.430725098871.839599609899.804260254843.874938965728.726318359903.094238281896.514282227863.614685059732.016235352909.674133301901.44921875\x00827.425109863733.661254883908.029174805899.804260254799.460449219750.111022949909.674133301901.44921875\x00847.164855957733.661254883904.739196777906.384155273820.845214844730.371276855909.674133301911.319091797784.655639648720.501403809908.029174805914.609069824842.229919434738.596191406917.899047852894.86932373\x00866.904663086753.401000977911.319091797903.094238281878.419494629746.821105957921.188964844903.094238281843.874938965755.045959473912.964111328908.029174805779.720703125746.821105957909.674133301917.899047852815.91027832\x00735.306213379914.609069824919.544006348835.650024414741.886108398922.833984375917.899047852810.975280762761.625915527934.348815918909.674133301829.070068359769.850830078924.478942871921.188964844847.164855957761.625915527921.188964844917.899047852834.005004883740.241149902922.833984375916.25402832\x00784.655639648748.466064453921.188964844912.964111328827.425109863764.91583252\x00929.413879395904.739196777871.839599609769.850830078917.899047852919.544006348848.809875488763.270874023919.544006348935.993835449787.945556641756.690979004917.899047852914.609069824853.744812012750.111022949917.899047852909.674133301863.614685059748.466064453909.674133301919.544006348830.715087891766.560852051906.384155273916.25402832\x00843.874938965764.91583252\x00911.319091797906.384155273810.975280762769.850830078911.319091797903.094238281807.68536377\x00776.430725098912.964111328896.514282227893.224304199766.560852051908.029174805898.159240723863.614685059781.365661621899.804260254904.739196777802.750427246792.880554199903.094238281889.934387207843.874938965771.495788574901.44921875\x00889.934387207847.164855957769.850830078904.739196777893.224304199832.360046387789.590576172889.934387207886.64440918\x00843.874938965792.880554199884.999450684894.86932373\x00838.940002441791.235534668891.579345703896.514282227801.105407715781.365661621889.934387207883.354431152786.300598145774.785766602899.804260254880.064453125861.969726562787.945556641886.64440918\x00866.904663086858.679748535797.815490723881.709472656871.839599609850.454833984804.395385742889.934387207884.999450684840.584960938799.460449219888.289367676889.934387207838.940002441797.815490723894.86932373\x00886.64440918\x00868.549621582796.170471191894.86932373\x00881.709472656860.324707031794.525512695876.774536133863.614685059857.034729004792.880554199873.484558105865.259643555847.164855957789.590576172865.259643555873.484558105837.29498291\x00787.945556641863.614685059873.484558105838.940002441771.495788574868.549621582884.999450684822.49017334\x00769.850830078860.324707031860.324707031884.999450684763.270874023852.09979248\x00861.969726562863.614685059764.91583252\x00845.519897461871.839599609820.845214844756.690979004850.454833984871.839599609801.105407715730.371276855866.904663086875.129516602815.91027832\x00718.856384277861.969726562883.354431152883.354431152758.3359375\x00\x00865.259643555888.289367676834.005004883786.300598145870.194580078871.839599609893.224304199801.105407715861.969726562871.839599609886.64440918\x00807.68536377\x00870.194580078886.64440918\x00822.49017334\x00753.401000977883.354431152870.194580078940.928771973779.720703125868.549621582878.419494629886.64440918\x00812.620300293871.839599609876.774536133888.289367676806.040344238857.034729004863.614685059906.384155273806.040344238860.324707031880.064453125850.454833984787.945556641871.839599609876.774536133829.070068359791.235534668871.839599609866.904663086830.715087891807.68536377\x00865.259643555875.129516602838.940002441806.040344238870.194580078881.709472656824.135131836802.750427246880.064453125888.289367676822.49017334\x00789.590576172884.999450684878.419494629838.940002441796.170471191883.354431152886.64440918\x00817.555236816797.815490723875.129516602883.354431152838.940002441787.945556641870.194580078868.549621582878.419494629794.525512695873.484558105868.549621582883.354431152792.880554199873.484558105870.194580078865.259643555792.880554199873.484558105881.709472656845.519897461804.395385742873.484558105875.129516602875.129516602804.395385742880.064453125873.484558105875.129516602806.040344238873.484558105876.774536133855.389770508806.040344238870.194580078863.614685059870.194580078806.040344238871.839599609861.969726562871.839599609804.395385742857.034729004857.034729004880.064453125815.91027832\x00863.614685059858.679748535858.679748535815.91027832\x00860.324707031863.614685059850.454833984810.975280762865.259643555858.679748535847.164855957825.780151367852.09979248\x00858.679748535861.969726562819.200195312847.164855957852.09979248\x00870.194580078814.265258789855.389770508863.614685059852.09979248\x00817.555236816857.034729004855.389770508881.709472656820.845214844861.969726562843.874938965865.259643555822.49017334\x00857.034729004848.809875488870.194580078825.780151367853.744812012848.809875488848.809875488827.425109863850.454833984852.09979248\x00853.744812012827.425109863853.744812012857.034729004866.904663086834.005004883857.034729004853.744812012858.679748535837.29498291\x00857.034729004860.324707031852.09979248\x00834.005004883861.969726562853.744812012830.715087891840.584960938855.389770508842.229919434857.034729004838.940002441848.809875488850.454833984840.584960938837.29498291\x00852.09979248\x00848.809875488878.419494629837.29498291\x00853.744812012847.164855957891.579345703845.519897461853.744812012858.679748535873.484558105845.519897461857.034729004847.164855957878.419494629850.454833984858.679748535852.09979248\x00838.940002441852.09979248\x00847.164855957858.679748535848.809875488850.454833984837.29498291\x00842.229919434860.324707031848.809875488845.519897461850.454833984848.809875488852.09979248\x00852.09979248\x00842.229919434852.09979248\x00853.744812012855.389770508840.584960938807.68536377\x00860.324707031857.034729004850.454833984861.969726562861.969726562850.454833984834.005004883908.029174805857.034729004850.454833984838.940002441883.354431152866.904663086855.389770508845.519897461857.034729004876.774536133852.09979248\x00850.454833984837.29498291\x00883.354431152848.809875488847.164855957815.91027832\x00880.064453125852.09979248\x00853.744812012824.135131836875.129516602860.324707031860.324707031880.064453125870.194580078858.679748535852.09979248\x00861.969726562880.064453125858.679748535853.744812012880.064453125883.354431152855.389770508853.744812012871.839599609881.709472656857.034729004847.164855957848.809875488889.934387207857.034729004855.389770508860.324707031884.999450684855.389770508857.034729004861.969726562881.709472656871.839599609842.229919434857.034729004881.709472656865.259643555848.809875488834.005004883878.419494629858.679748535845.519897461838.940002441883.354431152858.679748535845.519897461868.549621582880.064453125853.744812012848.809875488829.070068359888.289367676861.969726562852.09979248\x00802.750427246894.86932373\x00855.389770508848.809875488847.164855957883.354431152853.744812012835.650024414881.709472656883.354431152848.809875488840.584960938876.774536133878.419494629847.164855957843.874938965880.064453125868.549621582860.324707031853.744812012843.874938965878.419494629852.09979248\x00855.389770508810.975280762873.484558105853.744812012850.454833984840.584960938866.904663086850.454833984847.164855957868.549621582868.549621582838.940002441852.09979248\x00850.454833984863.614685059848.809875488843.874938965855.389770508861.969726562840.584960938845.519897461842.229919434855.389770508853.744812012840.584960938838.940002441853.744812012848.809875488838.940002441853.744812012853.744812012847.164855957847.164855957852.09979248\x00850.454833984855.389770508840.584960938861.969726562848.809875488852.09979248\x00837.29498291\x00868.549621582845.519897461852.09979248\x00840.584960938858.679748535857.034729004847.164855957845.519897461857.034729004866.904663086848.809875488834.005004883820.845214844870.194580078847.164855957840.584960938815.91027832\x00868.549621582848.809875488830.715087891865.259643555857.034729004842.229919434834.005004883866.904663086860.324707031842.229919434837.29498291\x00845.519897461870.194580078843.874938965845.519897461832.360046387863.614685059852.09979248\x00850.454833984865.259643555853.744812012850.454833984840.584960938819.200195312857.034729004853.744812012845.519897461820.845214844863.614685059858.679748535842.229919434848.809875488861.969726562855.389770508842.229919434820.845214844863.614685059848.809875488843.874938965822.49017334\x00855.389770508847.164855957845.519897461898.159240723852.09979248\x00845.519897461843.874938965868.549621582853.744812012845.519897461855.389770508863.614685059848.809875488858.679748535834.005004883868.549621582848.809875488852.09979248\x00842.229919434807.68536377\x00855.389770508853.744812012830.715087891817.555236816857.034729004850.454833984843.874938965825.780151367866.904663086843.874938965843.874938965857.034729004863.614685059840.584960938835.650024414848.809875488868.549621582838.940002441845.519897461838.940002441868.549621582850.454833984837.29498291\x00860.324707031863.614685059843.874938965848.809875488840.584960938861.969726562845.519897461845.519897461837.29498291\x00865.259643555852.09979248\x00845.519897461865.259643555871.839599609842.229919434845.519897461847.164855957866.904663086848.809875488842.229919434809.330322266875.129516602843.874938965847.164855957858.679748535873.484558105840.584960938857.034729004848.809875488866.904663086847.164855957850.454833984809.330322266871.839599609852.09979248\x00847.164855957817.555236816865.259643555848.809875488837.29498291\x00861.969726562855.389770508843.874938965852.09979248\x00876.774536133852.09979248\x00850.454833984853.744812012834.005004883852.09979248\x00848.809875488850.454833984815.91027832\x00850.454833984861.969726562840.584960938850.454833984857.034729004845.519897461838.940002441863.614685059855.389770508845.519897461852.09979248\x00898.159240723843.874938965847.164855957843.874938965843.874938965842.229919434843.874938965840.584960938802.750427246842.229919434845.519897461845.519897461812.620300293843.874938965840.584960938840.584960938858.679748535842.229919434838.940002441845.519897461865.259643555837.29498291\x00843.874938965840.584960938860.324707031842.229919434845.519897461838.940002441848.809875488842.229919434845.519897461840.584960938848.809875488843.874938965845.519897461840.584960938822.49017334\x00838.940002441842.229919434840.584960938820.845214844840.584960938838.940002441840.584960938820.845214844845.519897461834.005004883838.940002441845.519897461837.29498291\x00840.584960938838.940002441860.324707031840.584960938835.650024414850.454833984848.809875488834.005004883845.519897461845.519897461858.679748535842.229919434834.005004883855.389770508838.940002441845.519897461842.229919434857.034729004825.780151367845.519897461848.809875488845.519897461832.360046387840.584960938848.809875488840.584960938852.09979248\x00842.229919434848.809875488832.360046387853.744812012834.005004883842.229919434838.940002441825.780151367830.715087891852.09979248\x00843.874938965794.525512695840.584960938845.519897461845.519897461812.620300293840.584960938838.940002441834.005004883861.969726562838.940002441834.005004883827.425109863906.384155273843.874938965840.584960938838.940002441880.064453125837.29498291\x00845.519897461832.360046387830.715087891837.29498291\x00842.229919434840.584960938822.49017334\x00838.940002441842.229919434835.650024414858.679748535832.360046387852.09979248\x00834.005004883847.164855957847.164855957847.164855957847.164855957820.845214844845.519897461857.034729004834.005004883814.265258789845.519897461855.389770508834.005004883809.330322266848.809875488847.164855957829.070068359820.845214844847.164855957850.454833984830.715087891858.679748535845.519897461845.519897461835.650024414868.549621582845.519897461830.715087891847.164855957827.425109863843.874938965842.229919434838.940002441827.425109863845.519897461845.519897461834.005004883860.324707031845.519897461845.519897461840.584960938835.650024414847.164855957845.519897461845.519897461871.839599609847.164855957843.874938965838.940002441842.229919434848.809875488845.519897461840.584960938827.425109863857.034729004840.584960938835.650024414868.549621582850.454833984850.454833984832.360046387829.070068359847.164855957853.744812012835.650024414830.715087891858.679748535838.940002441834.005004883868.549621582850.454833984838.940002441838.940002441855.389770508845.519897461842.229919434843.874938965853.744812012850.454833984840.584960938848.809875488861.969726562855.389770508845.519897461837.29498291\x00842.229919434863.614685059838.940002441840.584960938815.91027832\x00871.839599609845.519897461838.940002441840.584960938868.549621582852.09979248\x00838.940002441853.744812012855.389770508847.164855957845.519897461863.614685059860.324707031845.519897461837.29498291\x00855.389770508863.614685059842.229919434850.454833984832.360046387870.194580078848.809875488855.389770508817.555236816878.419494629850.454833984850.454833984820.845214844870.194580078843.874938965845.519897461843.874938965865.259643555842.229919434838.940002441853.744812012871.839599609838.940002441845.519897461847.164855957868.549621582850.454833984840.584960938878.419494629868.549621582852.09979248\x00842.229919434861.969726562865.259643555847.164855957845.519897461845.519897461863.614685059848.809875488838.940002441830.715087891871.839599609850.454833984848.809875488814.265258789860.324707031853.744812012845.519897461857.034729004861.969726562857.034729004829.070068359850.454833984881.709472656847.164855957837.29498291\x00861.969726562870.194580078866.904663086843.874938965857.034729004886.64440918\x00857.034729004847.164855957825.780151367875.129516602853.744812012848.809875488837.29498291\x00860.324707031863.614685059850.454833984842.229919434868.549621582842.229919434845.519897461815.91027832\x00866.904663086860.324707031843.874938965843.874938965871.839599609857.034729004840.584960938863.614685059865.259643555852.09979248\x00843.874938965842.229919434866.904663086861.969726562850.454833984827.425109863871.839599609853.744812012855.389770508838.940002441860.324707031857.034729004847.164855957852.09979248\x00876.774536133855.389770508845.519897461870.194580078866.904663086861.969726562850.454833984850.454833984863.614685059868.549621582863.614685059838.940002441865.259643555866.904663086855.389770508837.29498291\x00873.484558105861.969726562852.09979248\x00848.809875488868.549621582860.324707031850.454833984847.164855957865.259643555863.614685059850.454833984810.975280762870.194580078860.324707031863.614685059840.584960938873.484558105860.324707031852.09979248\x00875.129516602865.259643555850.454833984850.454833984884.999450684858.679748535842.229919434855.389770508870.194580078863.614685059853.744812012847.164855957850.454833984868.549621582853.744812012852.09979248\x00812.620300293876.774536133853.744812012850.454833984843.874938965880.064453125852.09979248\x00855.389770508865.259643555868.549621582858.679748535858.679748535863.614685059875.129516602858.679748535855.389770508827.425109863875.129516602852.09979248\x00850.454833984815.91027832\x00870.194580078845.519897461843.874938965880.064453125866.904663086840.584960938842.229919434858.679748535870.194580078853.744812012840.584960938842.229919434870.194580078858.679748535837.29498291\x00845.519897461871.839599609857.034729004834.005004883835.650024414863.614685059843.874938965850.454833984863.614685059857.034729004850.454833984863.614685059883.354431152863.614685059870.194580078857.034729004835.650024414863.614685059870.194580078832.360046387830.715087891868.549621582852.09979248\x00824.135131836834.005004883871.839599609845.519897461825.780151367814.265258789876.774536133843.874938965830.715087891804.395385742889.934387207848.809875488824.135131836797.815490723894.86932373\x00853.744812012802.750427246819.200195312906.384155273843.874938965804.395385742810.975280762901.44921875\x00852.09979248\x00799.460449219810.975280762903.094238281843.874938965804.395385742824.135131836911.319091797842.229919434804.395385742814.265258789903.094238281842.229919434797.815490723802.750427246904.739196777834.005004883815.91027832\x00797.815490723908.029174805847.164855957810.975280762806.040344238906.384155273858.679748535817.555236816809.330322266911.319091797852.09979248\x00832.360046387774.785766602899.804260254852.09979248\x00820.845214844801.105407715889.934387207852.09979248\x00820.845214844834.005004883891.579345703850.454833984825.780151367817.555236816884.999450684858.679748535810.975280762845.519897461876.774536133858.679748535820.845214844829.070068359883.354431152843.874938965824.135131836834.005004883881.709472656855.389770508817.555236816832.360046387888.289367676848.809875488840.584960938825.780151367880.064453125850.454833984838.940002441806.040344238875.129516602853.744812012830.715087891802.750427246870.194580078858.679748535837.29498291\x00842.229919434873.484558105863.614685059829.070068359807.68536377\x00868.549621582858.679748535843.874938965837.29498291\x00860.324707031855.389770508845.519897461852.09979248\x00847.164855957853.744812012829.070068359829.070068359857.034729004857.034729004838.940002441848.809875488850.454833984855.389770508834.005004883845.519897461852.09979248\x00850.454833984837.29498291\x00829.070068359855.389770508850.454833984845.519897461817.555236816860.324707031858.679748535832.360046387832.360046387858.679748535863.614685059827.425109863824.135131836857.034729004863.614685059832.360046387845.519897461863.614685059847.164855957835.650024414860.324707031857.034729004850.454833984832.360046387829.070068359855.389770508852.09979248\x00832.360046387825.780151367863.614685059845.519897461843.874938965822.49017334\x00857.034729004843.874938965840.584960938786.300598145853.744812012850.454833984840.584960938817.555236816852.09979248\x00853.744812012834.005004883852.09979248\x00852.09979248\x00857.034729004835.650024414875.129516602848.809875488865.259643555835.650024414845.519897461855.389770508855.389770508834.005004883838.940002441837.29498291\x00847.164855957845.519897461847.164855957840.584960938850.454833984835.650024414835.650024414860.324707031840.584960938847.164855957834.005004883858.679748535838.940002441835.650024414806.040344238855.389770508853.744812012835.650024414804.395385742837.29498291\x00861.969726562847.164855957814.265258789843.874938965852.09979248\x00842.229919434834.005004883847.164855957855.389770508845.519897461860.324707031838.940002441861.969726562845.519897461843.874938965848.809875488853.744812012832.360046387825.780151367838.940002441857.034729004838.940002441817.555236816842.229919434857.034729004834.005004883809.330322266848.809875488842.229919434830.715087891853.744812012825.780151367853.744812012835.650024414861.969726562819.200195312847.164855957840.584960938817.555236816830.715087891852.09979248\x00834.005004883835.650024414837.29498291\x00855.389770508842.229919434853.744812012837.29498291\x00855.389770508840.584960938838.940002441845.519897461855.389770508834.005004883843.874938965827.425109863855.389770508838.940002441827.425109863832.360046387852.09979248\x00840.584960938817.555236816834.005004883861.969726562852.09979248\x00827.425109863825.780151367861.969726562845.519897461837.29498291\x00825.780151367858.679748535835.650024414852.09979248\x00824.135131836868.549621582838.940002441855.389770508832.360046387847.164855957838.940002441837.29498291\x00824.135131836847.164855957847.164855957810.975280762832.360046387853.744812012840.584960938804.395385742824.135131836852.09979248\x00838.940002441842.229919434834.005004883853.744812012838.940002441865.259643555845.519897461837.29498291\x00838.940002441863.614685059827.425109863842.229919434832.360046387858.679748535830.715087891852.09979248\x00835.650024414834.005004883822.49017334\x00855.389770508835.650024414815.91027832\x00817.555236816861.969726562850.454833984822.49017334\x00827.425109863861.969726562847.164855957857.034729004827.425109863850.454833984837.29498291\x00865.259643555820.845214844845.519897461840.584960938858.679748535825.780151367852.09979248\x00842.229919434847.164855957835.650024414847.164855957848.809875488807.68536377\x00829.070068359852.09979248\x00852.09979248\x00819.200195312838.940002441850.454833984852.09979248\x00824.135131836832.360046387857.034729004855.389770508835.650024414832.360046387853.744812012850.454833984873.484558105827.425109863861.969726562848.809875488857.034729004812.620300293858.679748535847.164855957847.164855957814.265258789845.519897461840.584960938824.135131836812.620300293857.034729004857.034729004807.68536377\x00822.49017334\x00868.549621582853.744812012840.584960938830.715087891861.969726562852.09979248\x00860.324707031830.715087891853.744812012847.164855957848.809875488832.360046387853.744812012829.070068359852.09979248\x00820.845214844855.389770508835.650024414845.519897461817.555236816857.034729004838.940002441817.555236816832.360046387865.259643555853.744812012825.780151367830.715087891857.034729004850.454833984812.620300293843.874938965850.454833984858.679748535791.235534668822.49017334\x00855.389770508855.389770508860.324707031817.555236816855.389770508852.09979248\x00866.904663086819.200195312858.679748535850.454833984861.969726562814.265258789848.809875488848.809875488845.519897461810.975280762861.969726562847.164855957829.070068359822.49017334\x00861.969726562852.09979248\x00853.744812012830.715087891861.969726562848.809875488865.259643555829.070068359857.034729004861.969726562853.744812012820.845214844858.679748535876.774536133822.49017334\x00797.815490723880.064453125858.679748535812.620300293804.395385742876.774536133840.584960938855.389770508829.070068359853.744812012829.070068359857.034729004834.005004883852.09979248\x00832.360046387848.809875488832.360046387842.229919434840.584960938829.070068359845.519897461860.324707031824.135131836807.68536377\x00865.259643555865.259643555819.200195312814.265258789875.129516602855.389770508814.265258789824.135131836880.064453125842.229919434824.135131836819.200195312855.389770508848.809875488814.265258789810.975280762850.454833984855.389770508810.975280762806.040344238860.324707031840.584960938817.555236816791.235534668848.809875488845.519897461820.845214844819.200195312843.874938965853.744812012820.845214844824.135131836852.09979248\x00858.679748535822.49017334\x00825.780151367847.164855957855.389770508832.360046387830.715087891860.324707031863.614685059830.715087891801.105407715850.454833984860.324707031835.650024414786.300598145834.005004883860.324707031837.29498291\x00812.620300293809.330322266868.549621582832.360046387830.715087891842.229919434863.614685059840.584960938860.324707031847.164855957850.454833984837.29498291\x00863.614685059870.194580078852.09979248\x00840.584960938855.389770508868.549621582858.679748535822.49017334\x00842.229919434855.389770508852.09979248\x00815.91027832\x00840.584960938852.09979248\x00838.940002441801.105407715834.005004883861.969726562830.715087891787.945556641837.29498291\x00865.259643555815.91027832\x00783.010620117850.454833984848.809875488806.040344238748.466064453857.034729004861.969726562784.655639648708.98651123\x00865.259643555878.419494629756.690979004684.311828613865.259643555884.999450684722.146362305657.992126465873.484558105911.319091797692.536743164648.122253418861.969726562906.384155273677.731872559628.382507324858.679748535893.224304199671.151977539605.352783203843.874938965957.378540039653.057189941606.997741699835.650024414960.668518066656.347167969618.512634277858.679748535977.118347168657.992126465616.867614746853.744812012954.088623047656.347167969623.447570801917.899047852945.863708496661.282104492653.057189941883.354431152950.79864502\x00679.37689209\x00667.861999512852.09979248\x00939.283752441695.826660156694.18170166\x00871.839599609891.579345703725.436340332710.631530762832.360046387878.419494629727.081298828723.791320801847.164855957949.153686523755.045959473735.306213379832.360046387912.964111328766.560852051751.75604248\x00827.425109863906.384155273774.785766602781.365661621840.584960938843.874938965801.105407715786.300598145855.389770508822.49017334\x00809.330322266807.68536377\x00848.809875488834.005004883822.49017334\x00820.845214844799.460449219868.549621582842.229919434837.29498291\x00776.430725098848.809875488853.744812012837.29498291\x00812.620300293853.744812012829.070068359843.874938965870.194580078832.360046387850.454833984855.389770508835.650024414796.170471191865.259643555865.259643555827.425109863806.040344238861.969726562881.709472656830.715087891769.850830078880.064453125883.354431152815.91027832\x00768.205810547894.86932373\x00880.064453125825.780151367768.205810547889.934387207886.64440918\x00850.454833984738.596191406899.804260254898.159240723758.3359375\x00\x00718.856384277914.609069824911.319091797794.525512695738.596191406921.188964844901.44921875\x00883.354431152720.501403809914.609069824906.384155273847.164855957715.566467285916.25402832\x00911.319091797843.874938965700.76159668\x00914.609069824908.029174805817.555236816649.767211914916.25402832\x00911.319091797804.395385742623.447570801931.058898926927.768920898824.135131836608.642700195934.348815918922.833984375825.780151367600.41784668\x00935.993835449921.188964844810.975280762559.293334961932.703857422926.123962402817.555236816562.583251953927.768920898914.609069824819.200195312598.772827148926.123962402926.123962402789.590576172595.482910156926.123962402927.768920898807.68536377\x00597.127868652937.638793945921.188964844834.005004883587.257995605927.768920898911.319091797861.969726562592.192932129919.544006348919.544006348876.774536133593.837890625914.609069824921.188964844837.29498291\x00608.642700195912.964111328912.964111328824.135131836610.287719727909.674133301911.319091797830.715087891606.997741699909.674133301906.384155273817.555236816626.737487793912.964111328916.25402832\x00812.620300293625.092529297921.188964844909.674133301824.135131836631.672424316912.964111328916.25402832\x00832.360046387636.607421875914.609069824901.44921875\x00842.229919434643.187316895909.674133301893.224304199840.584960938672.796936035903.094238281899.804260254845.519897461672.796936035901.44921875\x00889.934387207832.360046387679.37689209\x00893.224304199891.579345703830.715087891677.731872559899.804260254898.159240723820.845214844676.086914062899.804260254899.804260254819.200195312674.441955566903.094238281889.934387207827.425109863674.441955566898.159240723893.224304199824.135131836700.76159668\x00893.224304199886.64440918\x00848.809875488708.98651123\x00886.64440918\x00883.354431152838.940002441707.341552734891.579345703886.64440918\x00832.360046387704.051574707886.64440918\x00884.999450684829.070068359700.76159668\x00884.999450684888.289367676830.715087891715.566467285889.934387207883.354431152832.360046387732.016235352889.934387207884.999450684820.845214844743.53112793\x00893.224304199875.129516602832.360046387732.016235352894.86932373\x00873.484558105845.519897461753.401000977881.709472656886.64440918\x00845.519897461745.176086426884.999450684881.709472656845.519897461736.951171875883.354431152883.354431152822.49017334\x00738.596191406883.354431152878.419494629820.845214844748.466064453881.709472656863.614685059822.49017334\x00751.75604248\x00876.774536133868.549621582835.650024414746.821105957871.839599609876.774536133827.425109863759.980895996876.774536133868.549621582840.584960938755.045959473868.549621582871.839599609858.679748535763.270874023870.194580078884.999450684848.809875488761.625915527886.64440918\x00870.194580078842.229919434769.850830078880.064453125861.969726562815.91027832\x00764.91583252\x00878.419494629875.129516602806.040344238764.91583252\x00878.419494629868.549621582840.584960938755.045959473871.839599609875.129516602830.715087891764.91583252\x00870.194580078871.839599609845.519897461773.14074707\x00870.194580078852.09979248\x00857.034729004794.525512695857.034729004861.969726562825.780151367791.235534668866.904663086861.969726562847.164855957774.785766602858.679748535861.969726562837.29498291\x00792.880554199858.679748535860.324707031819.200195312783.010620117861.969726562853.744812012827.425109863779.720703125863.614685059853.744812012847.164855957794.525512695858.679748535847.164855957855.389770508801.105407715858.679748535847.164855957860.324707031796.170471191857.034729004855.389770508848.809875488789.590576172861.969726562852.09979248\x00835.650024414773.14074707\x00861.969726562855.389770508820.845214844756.690979004866.904663086838.940002441842.229919434809.330322266850.454833984837.29498291\x00845.519897461822.49017334\x00845.519897461848.809875488825.780151367819.200195312857.034729004834.005004883801.105407715829.070068359852.09979248\x00850.454833984820.845214844797.815490723865.259643555848.809875488847.164855957786.300598145853.744812012848.809875488842.229919434784.655639648852.09979248\x00853.744812012845.519897461783.010620117855.389770508842.229919434827.425109863802.750427246848.809875488850.454833984848.809875488817.555236816868.549621582845.519897461855.389770508815.91027832\x00852.09979248\x00838.940002441853.744812012807.68536377\x00853.744812012845.519897461837.29498291\x00807.68536377\x00858.679748535842.229919434815.91027832\x00817.555236816850.454833984845.519897461825.780151367819.200195312852.09979248\x00857.034729004832.360046387812.620300293855.389770508847.164855957861.969726562806.040344238850.454833984850.454833984843.874938965802.750427246863.614685059845.519897461820.845214844810.975280762865.259643555842.229919434802.750427246812.620300293855.389770508838.940002441830.715087891807.68536377\x00857.034729004832.360046387858.679748535820.845214844843.874938965845.519897461843.874938965810.975280762848.809875488848.809875488837.29498291\x00802.750427246857.034729004858.679748535827.425109863806.040344238855.389770508850.454833984819.200195312809.330322266855.389770508832.360046387842.229919434812.620300293855.389770508838.940002441838.940002441827.425109863847.164855957827.425109863835.650024414842.229919434840.584960938840.584960938843.874938965827.425109863848.809875488837.29498291\x00850.454833984822.49017334\x00850.454833984837.29498291\x00834.005004883822.49017334\x00853.744812012850.454833984834.005004883802.750427246855.389770508845.519897461819.200195312792.880554199855.389770508855.389770508807.68536377\x00801.105407715853.744812012840.584960938847.164855957810.975280762848.809875488832.360046387860.324707031829.070068359837.29498291\x00847.164855957863.614685059840.584960938838.940002441845.519897461838.940002441827.425109863848.809875488848.809875488824.135131836815.91027832\x00855.389770508852.09979248\x00832.360046387809.330322266868.549621582845.519897461834.005004883814.265258789860.324707031855.389770508822.49017334\x00807.68536377\x00860.324707031863.614685059810.975280762802.750427246871.839599609843.874938965827.425109863820.845214844853.744812012848.809875488858.679748535822.49017334\x00847.164855957845.519897461883.354431152834.005004883853.744812012855.389770508873.484558105829.070068359853.744812012852.09979248\x00853.744812012827.425109863860.324707031842.229919434840.584960938809.330322266861.969726562848.809875488815.91027832\x00806.040344238857.034729004852.09979248\x00801.105407715812.620300293858.679748535852.09979248\x00837.29498291\x00809.330322266857.034729004860.324707031850.454833984801.105407715852.09979248\x00848.809875488857.034729004812.620300293850.454833984852.09979248\x00855.389770508832.360046387847.164855957861.969726562810.975280762832.360046387860.324707031855.389770508817.555236816834.005004883866.904663086845.519897461863.614685059825.780151367858.679748535847.164855957855.389770508815.91027832\x00863.614685059847.164855957842.229919434825.780151367861.969726562853.744812012835.650024414829.070068359847.164855957855.389770508837.29498291\x00804.395385742863.614685059840.584960938815.91027832\x00804.395385742860.324707031853.744812012837.29498291\x00817.555236816858.679748535852.09979248\x00847.164855957815.91027832\x00866.904663086853.744812012832.360046387819.200195312858.679748535840.584960938850.454833984819.200195312858.679748535845.519897461832.360046387815.91027832\x00866.904663086850.454833984834.005004883819.200195312866.904663086855.389770508857.034729004825.780151367860.324707031855.389770508838.940002441792.880554199868.549621582848.809875488857.034729004809.330322266857.034729004847.164855957837.29498291\x00810.975280762861.969726562857.034729004832.360046387820.845214844870.194580078848.809875488848.809875488834.005004883852.09979248\x00847.164855957848.809875488820.845214844848.809875488852.09979248\x00838.940002441814.265258789850.454833984842.229919434827.425109863812.620300293850.454833984853.744812012837.29498291\x00809.330322266855.389770508858.679748535840.584960938794.525512695860.324707031857.034729004842.229919434817.555236816852.09979248\x00848.809875488847.164855957832.360046387847.164855957843.874938965815.91027832\x00822.49017334\x00852.09979248\x00853.744812012820.845214844817.555236816857.034729004853.744812012865.259643555804.395385742852.09979248\x00858.679748535850.454833984810.975280762847.164855957852.09979248\x00845.519897461791.235534668858.679748535835.650024414852.09979248\x00830.715087891847.164855957842.229919434845.519897461837.29498291\x00847.164855957842.229919434835.650024414824.135131836852.09979248\x00845.519897461837.29498291\x00829.070068359840.584960938847.164855957827.425109863810.975280762847.164855957850.454833984832.360046387799.460449219857.034729004835.650024414834.005004883812.620300293845.519897461847.164855957832.360046387819.200195312835.650024414845.519897461847.164855957814.265258789848.809875488847.164855957845.519897461824.135131836848.809875488857.034729004866.904663086814.265258789857.034729004857.034729004848.809875488815.91027832\x00860.324707031847.164855957824.135131836810.975280762843.874938965853.744812012814.265258789825.780151367853.744812012845.519897461825.780151367829.070068359855.389770508847.164855957848.809875488817.555236816861.969726562852.09979248\x00861.969726562815.91027832\x00855.389770508853.744812012852.09979248\x00824.135131836852.09979248\x00845.519897461824.135131836827.425109863855.389770508848.809875488829.070068359837.29498291\x00848.809875488850.454833984832.360046387825.780151367861.969726562845.519897461834.005004883807.68536377\x00866.904663086840.584960938842.229919434810.975280762852.09979248\x00840.584960938853.744812012794.525512695852.09979248\x00829.070068359858.679748535824.135131836843.874938965834.005004883863.614685059842.229919434850.454833984842.229919434842.229919434835.650024414863.614685059848.809875488822.49017334\x00822.49017334\x00853.744812012852.09979248\x00814.265258789809.330322266850.454833984847.164855957834.005004883820.845214844853.744812012842.229919434850.454833984820.845214844858.679748535843.874938965843.874938965825.780151367861.969726562843.874938965855.389770508829.070068359858.679748535847.164855957834.005004883812.620300293858.679748535845.519897461822.49017334\x00815.91027832\x00866.904663086832.360046387855.389770508838.940002441858.679748535853.744812012814.265258789838.940002441853.744812012840.584960938812.620300293825.780151367852.09979248\x00835.650024414850.454833984822.49017334\x00842.229919434835.650024414860.324707031796.170471191852.09979248\x00827.425109863850.454833984801.105407715857.034729004838.940002441842.229919434822.49017334\x00855.389770508840.584960938838.940002441825.780151367858.679748535842.229919434825.780151367829.070068359855.389770508843.874938965840.584960938827.425109863853.744812012840.584960938832.360046387829.070068359857.034729004835.650024414837.29498291\x00817.555236816860.324707031842.229919434850.454833984815.91027832\x00853.744812012838.940002441850.454833984814.265258789852.09979248\x00837.29498291\x00829.070068359822.49017334\x00865.259643555848.809875488812.620300293815.91027832\x00863.614685059852.09979248\x00829.070068359801.105407715868.549621582845.519897461861.969726562815.91027832\x00860.324707031855.389770508842.229919434824.135131836860.324707031848.809875488855.389770508829.070068359857.034729004853.744812012837.29498291\x00837.29498291\x00857.034729004852.09979248\x00802.750427246834.005004883858.679748535852.09979248\x00812.620300293842.229919434857.034729004852.09979248\x00840.584960938822.49017334\x00858.679748535838.940002441843.874938965822.49017334\x00850.454833984842.229919434835.650024414824.135131836847.164855957843.874938965842.229919434806.040344238852.09979248\x00835.650024414853.744812012812.620300293842.229919434848.809875488865.259643555810.975280762858.679748535850.454833984865.259643555810.975280762853.744812012837.29498291\x00842.229919434819.200195312858.679748535852.09979248\x00815.91027832\x00822.49017334\x00866.904663086845.519897461812.620300293814.265258789860.324707031848.809875488820.845214844815.91027832\x00857.034729004845.519897461830.715087891827.425109863850.454833984852.09979248\x00855.389770508819.200195312843.874938965850.454833984855.389770508807.68536377\x00853.744812012852.09979248\x00838.940002441814.265258789861.969726562843.874938965827.425109863815.91027832\x00848.809875488830.715087891845.519897461804.395385742850.454833984845.519897461858.679748535792.880554199853.744812012840.584960938855.389770508801.105407715850.454833984845.519897461827.425109863799.460449219866.904663086847.164855957807.68536377\x00809.330322266857.034729004842.229919434832.360046387820.845214844853.744812012842.229919434830.715087891820.845214844853.744812012855.389770508843.874938965807.68536377\x00860.324707031850.454833984863.614685059806.040344238858.679748535850.454833984855.389770508812.620300293857.034729004847.164855957837.29498291\x00812.620300293861.969726562847.164855957827.425109863814.265258789855.389770508850.454833984822.49017334\x00806.040344238852.09979248\x00853.744812012824.135131836820.845214844860.324707031853.744812012850.454833984820.845214844855.389770508850.454833984860.324707031817.555236816857.034729004850.454833984845.519897461809.330322266853.744812012850.454833984837.29498291\x00824.135131836850.454833984848.809875488814.265258789832.360046387852.09979248\x00863.614685059812.620300293819.200195312865.259643555853.744812012832.360046387802.750427246875.129516602837.29498291\x00822.49017334\x00804.395385742861.969726562838.940002441845.519897461820.845214844847.164855957835.650024414852.09979248\x00834.005004883838.940002441843.874938965847.164855957819.200195312842.229919434847.164855957850.454833984815.91027832\x00842.229919434845.519897461830.715087891824.135131836850.454833984847.164855957820.845214844822.49017334\x00852.09979248\x00843.874938965829.070068359820.845214844847.164855957850.454833984852.09979248\x00812.620300293850.454833984842.229919434837.29498291\x00819.200195312853.744812012847.164855957815.91027832\x00806.040344238865.259643555858.679748535817.555236816797.815490723865.259643555810.975280762829.070068359822.49017334\x00843.874938965837.29498291\x00840.584960938822.49017334\x00840.584960938840.584960938878.419494629812.620300293838.940002441850.454833984861.969726562825.780151367860.324707031855.389770508843.874938965819.200195312855.389770508843.874938965827.425109863829.070068359845.519897461843.874938965825.780151367827.425109863843.874938965842.229919434830.715087891806.040344238848.809875488852.09979248\x00842.229919434807.68536377\x00850.454833984838.940002441848.809875488812.620300293853.744812012843.874938965838.940002441810.975280762857.034729004855.389770508827.425109863812.620300293858.679748535853.744812012819.200195312812.620300293850.454833984845.519897461827.425109863820.845214844843.874938965847.164855957861.969726562814.265258789853.744812012838.940002441857.034729004810.975280762860.324707031834.005004883871.839599609810.975280762855.389770508835.650024414848.809875488820.845214844848.809875488834.005004883838.940002441843.874938965843.874938965840.584960938845.519897461837.29498291\x00850.454833984850.454833984847.164855957830.715087891855.389770508853.744812012835.650024414809.330322266852.09979248\x00845.519897461817.555236816796.170471191843.874938965850.454833984812.620300293802.750427246855.389770508847.164855957815.91027832\x00802.750427246855.389770508848.809875488819.200195312810.975280762863.614685059848.809875488834.005004883820.845214844852.09979248\x00853.744812012875.129516602840.584960938843.874938965850.454833984873.484558105837.29498291\x00843.874938965857.034729004865.259643555817.555236816853.744812012848.809875488845.519897461819.200195312861.969726562855.389770508820.845214844820.845214844855.389770508865.259643555825.780151367825.780151367863.614685059845.519897461875.129516602829.070068359852.09979248\x00829.070068359850.454833984814.265258789852.09979248\x00830.715087891843.874938965824.135131836853.744812012837.29498291\x00848.809875488834.005004883845.519897461837.29498291\x00820.845214844850.454833984845.519897461842.229919434825.780151367829.070068359850.454833984832.360046387843.874938965827.425109863840.584960938838.940002441855.389770508837.29498291\x00842.229919434832.360046387852.09979248\x00852.09979248\x00835.650024414819.200195312852.09979248\x00850.454833984830.715087891804.395385742848.809875488852.09979248\x00815.91027832\x00787.945556641840.584960938861.969726562802.750427246781.365661621847.164855957858.679748535792.880554199763.270874023837.29498291\x00860.324707031787.945556641735.306213379852.09979248\x00845.519897461773.14074707\x00713.921447754878.419494629861.969726562740.241149902704.051574707873.484558105878.419494629722.146362305684.311828613880.064453125878.419494629692.536743164643.187316895857.034729004945.863708496664.57208252\x00621.80255127\x00843.874938965944.218688965653.057189941608.642700195875.129516602962.313476562633.317443848613.577697754888.289367676991.923156738633.317443848633.317443848878.419494629939.283752441649.767211914626.737487793894.86932373\x00934.348815918654.702148438633.317443848899.804260254924.478942871657.992126465656.347167969870.194580078898.159240723676.086914062681.021850586876.774536133942.573730469694.18170166\x00699.116638184870.194580078917.899047852699.116638184700.76159668\x00830.715087891916.25402832\x00717.211425781707.341552734848.809875488914.609069824728.726318359745.176086426850.454833984896.514282227746.821105957748.466064453815.91027832\x00927.768920898763.270874023763.270874023876.774536133927.768920898778.075683594784.655639648870.194580078871.839599609779.720703125791.235534668848.809875488848.809875488796.170471191812.620300293860.324707031838.940002441814.265258789838.940002441837.29498291\x00796.170471191834.005004883840.584960938840.584960938840.584960938840.584960938857.034729004855.389770508842.229919434858.679748535860.324707031837.29498291\x00819.200195312858.679748535865.259643555812.620300293853.744812012860.324707031881.709472656822.49017334\x00822.49017334\x00876.774536133871.839599609834.005004883807.68536377\x00878.419494629886.64440918\x00819.200195312774.785766602889.934387207899.804260254838.940002441735.306213379889.934387207896.514282227806.040344238753.401000977891.579345703901.44921875\x00834.005004883787.945556641898.159240723875.129516602861.969726562799.460449219896.514282227886.64440918\x00834.005004883773.14074707\x00901.44921875\x00899.804260254857.034729004748.466064453898.159240723901.44921875\x00827.425109863748.466064453893.224304199911.319091797819.200195312736.951171875903.094238281909.674133301822.49017334\x00728.726318359906.384155273919.544006348809.330322266708.98651123\x00916.25402832\x00926.123962402835.650024414707.341552734922.833984375911.319091797829.070068359728.726318359912.964111328914.609069824825.780151367743.53112793\x00914.609069824908.029174805842.229919434753.401000977904.739196777921.188964844830.715087891723.791320801921.188964844919.544006348835.650024414715.566467285924.478942871917.899047852835.650024414699.116638184931.058898926926.123962402804.395385742708.98651123\x00931.058898926909.674133301799.460449219733.661254883916.25402832\x00914.609069824847.164855957715.566467285912.964111328908.029174805852.09979248\x00715.566467285912.964111328912.964111328855.389770508723.791320801921.188964844916.25402832\x00842.229919434712.276489258924.478942871921.188964844832.360046387733.661254883924.478942871912.964111328815.91027832\x00743.53112793\x00909.674133301916.25402832\x00819.200195312753.401000977916.25402832\x00919.544006348819.200195312748.466064453914.609069824914.609069824817.555236816736.951171875912.964111328908.029174805857.034729004723.791320801916.25402832\x00896.514282227850.454833984712.276489258912.964111328901.44921875\x00835.650024414750.111022949916.25402832\x00914.609069824832.360046387733.661254883919.544006348906.384155273835.650024414728.726318359908.029174805903.094238281857.034729004732.016235352904.739196777889.934387207840.584960938750.111022949898.159240723884.999450684834.005004883763.270874023896.514282227894.86932373\x00822.49017334\x00778.075683594901.44921875\x00886.64440918\x00825.780151367771.495788574901.44921875\x00901.44921875\x00829.070068359753.401000977901.44921875\x00888.289367676842.229919434745.176086426891.579345703888.289367676858.679748535717.211425781891.579345703883.354431152853.744812012740.241149902893.224304199880.064453125848.809875488751.75604248\x00891.579345703871.839599609830.715087891743.53112793\x00884.999450684866.904663086835.650024414751.75604248\x00884.999450684870.194580078835.650024414750.111022949888.289367676863.614685059819.200195312763.270874023886.64440918\x00878.419494629842.229919434758.3359375\x00\x00881.709472656868.549621582848.809875488745.176086426875.129516602860.324707031852.09979248\x00746.821105957878.419494629868.549621582843.874938965755.045959473876.774536133875.129516602822.49017334\x00766.560852051875.129516602866.904663086810.975280762769.850830078868.549621582873.484558105822.49017334\x00756.690979004865.259643555861.969726562843.874938965756.690979004870.194580078860.324707031865.259643555766.560852051868.549621582870.194580078875.129516602745.176086426880.064453125868.549621582857.034729004758.3359375\x00\x00881.709472656865.259643555832.360046387778.075683594866.904663086860.324707031827.425109863773.14074707\x00868.549621582865.259643555834.005004883766.560852051866.904663086870.194580078825.780151367763.270874023871.839599609880.064453125827.425109863759.980895996886.64440918\x00865.259643555850.454833984784.655639648876.774536133853.744812012863.614685059792.880554199871.839599609861.969726562853.744812012796.170471191863.614685059860.324707031834.005004883773.14074707\x00868.549621582865.259643555832.360046387763.270874023858.679748535860.324707031837.29498291\x00778.075683594868.549621582865.259643555825.780151367779.720703125873.484558105873.484558105817.555236816784.655639648875.129516602876.774536133853.744812012763.270874023880.064453125857.034729004845.519897461797.815490723865.259643555863.614685059863.614685059797.815490723875.129516602863.614685059863.614685059806.040344238865.259643555861.969726562843.874938965797.815490723865.259643555868.549621582855.389770508789.590576172865.259643555861.969726562855.389770508778.075683594866.904663086870.194580078835.650024414781.365661621866.904663086880.064453125810.975280762771.495788574875.129516602866.904663086806.040344238761.625915527868.549621582850.454833984843.874938965791.235534668858.679748535853.744812012855.389770508796.170471191853.744812012857.034729004861.969726562792.880554199861.969726562843.874938965855.389770508814.265258789848.809875488855.389770508834.005004883806.040344238855.389770508848.809875488835.650024414801.105407715861.969726562853.744812012855.389770508786.300598145850.454833984857.034729004847.164855957784.655639648861.969726562843.874938965835.650024414791.235534668850.454833984847.164855957838.940002441802.750427246850.454833984848.809875488832.360046387797.815490723855.389770508858.679748535824.135131836778.075683594853.744812012857.034729004820.845214844792.880554199855.389770508852.09979248\x00832.360046387786.300598145868.549621582847.164855957838.940002441781.365661621861.969726562855.389770508830.715087891801.105407715860.324707031852.09979248\x00830.715087891817.555236816858.679748535842.229919434842.229919434810.975280762853.744812012847.164855957855.389770508807.68536377\x00850.454833984837.29498291\x00843.874938965801.105407715840.584960938843.874938965825.780151367801.105407715852.09979248\x00847.164855957834.005004883799.460449219858.679748535848.809875488842.229919434810.975280762855.389770508848.809875488852.09979248\x00806.040344238853.744812012847.164855957853.744812012810.975280762860.324707031855.389770508825.780151367802.750427246860.324707031848.809875488807.68536377\x00784.655639648868.549621582857.034729004835.650024414796.170471191863.614685059852.09979248\x00832.360046387820.845214844850.454833984837.29498291\x00832.360046387817.555236816852.09979248\x00843.874938965876.774536133822.49017334\x00853.744812012843.874938965855.389770508812.620300293852.09979248\x00847.164855957848.809875488824.135131836852.09979248\x00855.389770508840.584960938822.49017334\x00858.679748535853.744812012829.070068359806.040344238860.324707031845.519897461817.555236816825.780151367865.259643555845.519897461820.845214844817.555236816853.744812012843.874938965838.940002441812.620300293845.519897461855.389770508853.744812012806.040344238855.389770508850.454833984871.839599609783.010620117843.874938965840.584960938858.679748535801.105407715853.744812012840.584960938837.29498291\x00825.780151367847.164855957842.229919434814.265258789835.650024414838.940002441847.164855957829.070068359840.584960938847.164855957837.29498291\x00822.49017334\x00819.200195312853.744812012827.425109863842.229919434791.235534668852.09979248\x00835.650024414850.454833984804.395385742845.519897461842.229919434842.229919434819.200195312852.09979248\x00848.809875488827.425109863832.360046387868.549621582861.969726562822.49017334\x00830.715087891881.709472656845.519897461876.774536133802.750427246861.969726562835.650024414878.419494629807.68536377\x00840.584960938842.229919434870.194580078802.750427246842.229919434830.715087891845.519897461797.815490723842.229919434842.229919434845.519897461806.040344238852.09979248\x00845.519897461853.744812012794.525512695832.360046387840.584960938871.839599609786.300598145824.135131836843.874938965861.969726562771.495788574834.005004883843.874938965845.519897461771.495788574848.809875488848.809875488850.454833984781.365661621840.584960938853.744812012840.584960938778.075683594843.874938965860.324707031809.330322266779.720703125845.519897461876.774536133832.360046387771.495788574845.519897461863.614685059883.354431152758.3359375\x00\x00858.679748535853.744812012893.224304199779.720703125835.650024414863.614685059896.514282227796.170471191837.29498291\x00852.09979248\x00873.484558105797.815490723845.519897461850.454833984847.164855957802.750427246832.360046387852.09979248\x00837.29498291\x00781.365661621847.164855957853.744812012824.135131836787.945556641852.09979248\x00857.034729004834.005004883787.945556641845.519897461866.904663086853.744812012784.655639648852.09979248\x00861.969726562884.999450684792.880554199840.584960938853.744812012886.64440918\x00776.430725098843.874938965865.259643555861.969726562789.590576172850.454833984860.324707031835.650024414799.460449219860.324707031871.839599609820.845214844804.395385742858.679748535850.454833984834.005004883824.135131836855.389770508848.809875488840.584960938817.555236816855.389770508853.744812012871.839599609791.235534668858.679748535847.164855957881.709472656786.300598145857.034729004860.324707031860.324707031802.750427246857.034729004853.744812012860.324707031812.620300293853.744812012843.874938965840.584960938810.975280762838.940002441845.519897461835.650024414812.620300293847.164855957852.09979248\x00834.005004883810.975280762842.229919434845.519897461830.715087891814.265258789845.519897461845.519897461868.549621582804.395385742852.09979248\x00845.519897461865.259643555804.395385742842.229919434845.519897461857.034729004812.620300293843.874938965837.29498291\x00852.09979248\x00829.070068359835.650024414842.229919434842.229919434829.070068359843.874938965850.454833984850.454833984819.200195312852.09979248\x00855.389770508827.425109863814.265258789843.874938965843.874938965817.555236816817.555236816850.454833984837.29498291\x00834.005004883817.555236816838.940002441838.940002441842.229919434815.91027832\x00843.874938965842.229919434866.904663086822.49017334\x00855.389770508855.389770508863.614685059802.750427246857.034729004853.744812012848.809875488807.68536377\x00857.034729004857.034729004842.229919434812.620300293850.454833984842.229919434850.454833984827.425109863853.744812012840.584960938843.874938965838.940002441842.229919434843.874938965858.679748535832.360046387850.454833984832.360046387855.389770508824.135131836845.519897461845.519897461830.715087891837.29498291\x00842.229919434840.584960938840.584960938827.425109863847.164855957845.519897461850.454833984802.750427246850.454833984855.389770508855.389770508797.815490723855.389770508838.940002441847.164855957822.49017334\x00860.324707031837.29498291\x00847.164855957830.715087891860.324707031837.29498291\x00819.200195312847.164855957855.389770508843.874938965807.68536377\x00837.29498291\x00855.389770508858.679748535842.229919434814.265258789853.744812012843.874938965870.194580078810.975280762835.650024414829.070068359876.774536133827.425109863830.715087891842.229919434866.904663086827.425109863847.164855957834.005004883837.29498291\x00840.584960938842.229919434842.229919434824.135131836822.49017334\x00850.454833984845.519897461848.809875488812.620300293852.09979248\x00842.229919434858.679748535817.555236816847.164855957853.744812012824.135131836814.265258789850.454833984861.969726562824.135131836814.265258789853.744812012852.09979248\x00853.744812012799.460449219850.454833984845.519897461858.679748535801.105407715840.584960938840.584960938866.904663086814.265258789838.940002441842.229919434860.324707031840.584960938838.940002441852.09979248\x00830.715087891832.360046387832.360046387853.744812012837.29498291\x00822.49017334\x00843.874938965850.454833984855.389770508824.135131836847.164855957852.09979248\x00852.09979248\x00810.975280762850.454833984848.809875488871.839599609814.265258789847.164855957852.09979248\x00866.904663086814.265258789847.164855957857.034729004847.164855957787.945556641863.614685059852.09979248\x00842.229919434817.555236816850.454833984843.874938965845.519897461827.425109863845.519897461842.229919434838.940002441824.135131836852.09979248\x00840.584960938847.164855957837.29498291\x00838.940002441848.809875488852.09979248\x00824.135131836845.519897461848.809875488848.809875488824.135131836853.744812012847.164855957857.034729004817.555236816848.809875488843.874938965870.194580078809.330322266850.454833984861.969726562855.389770508801.105407715855.389770508865.259643555843.874938965806.040344238848.809875488861.969726562845.519897461824.135131836850.454833984858.679748535829.070068359822.49017334\x00861.969726562848.809875488815.91027832\x00819.200195312865.259643555842.229919434855.389770508819.200195312853.744812012842.229919434881.709472656809.330322266863.614685059848.809875488865.259643555804.395385742848.809875488843.874938965853.744812012829.070068359843.874938965847.164855957834.005004883834.005004883843.874938965843.874938965838.940002441827.425109863832.360046387843.874938965861.969726562810.975280762847.164855957853.744812012843.874938965812.620300293861.969726562853.744812012820.845214844822.49017334\x00857.034729004850.454833984827.425109863835.650024414845.519897461838.940002441834.005004883835.650024414858.679748535847.164855957843.874938965822.49017334\x00860.324707031847.164855957837.29498291\x00809.330322266857.034729004838.940002441847.164855957814.265258789853.744812012848.809875488848.809875488815.91027832\x00852.09979248\x00840.584960938850.454833984825.780151367842.229919434847.164855957837.29498291\x00827.425109863855.389770508852.09979248\x00814.265258789817.555236816855.389770508842.229919434838.940002441824.135131836852.09979248\x00848.809875488865.259643555822.49017334\x00857.034729004860.324707031861.969726562817.555236816861.969726562866.904663086863.614685059820.845214844858.679748535847.164855957848.809875488799.460449219868.549621582850.454833984838.940002441810.975280762865.259643555845.519897461835.650024414845.519897461852.09979248\x00857.034729004827.425109863829.070068359855.389770508863.614685059837.29498291\x00822.49017334\x00852.09979248\x00857.034729004845.519897461812.620300293855.389770508848.809875488861.969726562809.330322266863.614685059857.034729004868.549621582824.135131836860.324707031857.034729004858.679748535822.49017334\x00850.454833984855.389770508855.389770508814.265258789860.324707031850.454833984838.940002441812.620300293853.744812012855.389770508835.650024414819.200195312858.679748535842.229919434840.584960938817.555236816863.614685059852.09979248\x00838.940002441815.91027832\x00852.09979248\x00855.389770508832.360046387810.975280762850.454833984855.389770508840.584960938819.200195312858.679748535871.839599609835.650024414801.105407715865.259643555860.324707031830.715087891787.945556641858.679748535850.454833984850.454833984822.49017334\x00850.454833984847.164855957840.584960938837.29498291\x00853.744812012845.519897461847.164855957843.874938965848.809875488842.229919434857.034729004822.49017334\x00850.454833984853.744812012827.425109863806.040344238847.164855957843.874938965838.940002441817.555236816847.164855957853.744812012838.940002441819.200195312853.744812012861.969726562829.070068359812.620300293858.679748535842.229919434835.650024414802.750427246857.034729004860.324707031845.519897461787.945556641847.164855957845.519897461848.809875488817.555236816852.09979248\x00845.519897461829.070068359840.584960938852.09979248\x00860.324707031838.940002441838.940002441845.519897461837.29498291\x00857.034729004825.780151367842.229919434845.519897461848.809875488801.105407715852.09979248\x00847.164855957857.034729004812.620300293848.809875488835.650024414822.49017334\x00827.425109863843.874938965845.519897461825.780151367827.425109863847.164855957850.454833984852.09979248\x00820.845214844850.454833984840.584960938838.940002441796.170471191845.519897461857.034729004830.715087891799.460449219860.324707031850.454833984827.425109863817.555236816848.809875488842.229919434845.519897461810.975280762848.809875488863.614685059845.519897461802.750427246865.259643555845.519897461842.229919434830.715087891852.09979248\x00825.780151367850.454833984837.29498291\x00842.229919434829.070068359850.454833984847.164855957825.780151367832.360046387838.940002441834.005004883840.584960938834.005004883829.070068359817.555236816853.744812012832.360046387814.265258789815.91027832\x00852.09979248\x00822.49017334\x00812.620300293824.135131836857.034729004817.555236816825.780151367852.09979248\x00838.940002441822.49017334\x00832.360046387830.715087891842.229919434814.265258789814.265258789835.650024414850.454833984812.620300293814.265258789861.969726562848.809875488809.330322266810.975280762863.614685059848.809875488817.555236816809.330322266873.484558105840.584960938827.425109863814.265258789863.614685059840.584960938834.005004883825.780151367842.229919434853.744812012834.005004883804.395385742829.070068359852.09979248\x00838.940002441801.105407715824.135131836847.164855957835.650024414807.68536377\x00832.360046387858.679748535827.425109863787.945556641832.360046387857.034729004824.135131836835.650024414835.650024414857.034729004825.780151367837.29498291\x00845.519897461850.454833984835.650024414842.229919434842.229919434857.034729004838.940002441855.389770508840.584960938850.454833984840.584960938837.29498291\x00843.874938965860.324707031838.940002441838.940002441829.070068359871.839599609843.874938965835.650024414817.555236816852.09979248\x00847.164855957822.49017334\x00822.49017334\x00863.614685059852.09979248\x00815.91027832\x00814.265258789866.904663086852.09979248\x00809.330322266822.49017334\x00871.839599609840.584960938819.200195312852.09979248\x00875.129516602848.809875488835.650024414850.454833984861.969726562842.229919434842.229919434850.454833984861.969726562850.454833984857.034729004824.135131836865.259643555853.744812012843.874938965806.040344238871.839599609847.164855957835.650024414810.975280762876.774536133847.164855957837.29498291\x00832.360046387865.259643555852.09979248\x00822.49017334\x00843.874938965860.324707031855.389770508832.360046387830.715087891855.389770508858.679748535843.874938965827.425109863857.034729004843.874938965822.49017334\x00834.005004883853.744812012842.229919434830.715087891824.135131836855.389770508848.809875488838.940002441809.330322266861.969726562834.005004883827.425109863825.780151367857.034729004840.584960938832.360046387834.005004883838.940002441842.229919434843.874938965832.360046387845.519897461838.940002441842.229919434840.584960938843.874938965843.874938965842.229919434820.845214844848.809875488842.229919434832.360046387809.330322266861.969726562848.809875488830.715087891822.49017334\x00858.679748535845.519897461838.940002441812.620300293855.389770508850.454833984853.744812012799.460449219855.389770508852.09979248\x00847.164855957829.070068359857.034729004845.519897461812.620300293837.29498291\x00855.389770508852.09979248\x00820.845214844830.715087891865.259643555853.744812012858.679748535812.620300293853.744812012845.519897461850.454833984807.68536377\x00857.034729004855.389770508873.484558105809.330322266857.034729004863.614685059853.744812012817.555236816858.679748535843.874938965829.070068359845.519897461855.389770508852.09979248\x00855.389770508829.070068359855.389770508848.809875488850.454833984820.845214844865.259643555853.744812012840.584960938822.49017334\x00863.614685059861.969726562830.715087891809.330322266858.679748535853.744812012832.360046387815.91027832\x00860.324707031848.809875488835.650024414825.780151367852.09979248\x00838.940002441857.034729004815.91027832\x00858.679748535840.584960938843.874938965832.360046387863.614685059840.584960938822.49017334\x00834.005004883852.09979248\x00845.519897461855.389770508825.780151367848.809875488848.809875488863.614685059797.815490723848.809875488840.584960938861.969726562810.975280762837.29498291\x00847.164855957853.744812012820.845214844845.519897461843.874938965832.360046387825.780151367858.679748535855.389770508812.620300293822.49017334\x00860.324707031842.229919434822.49017334\x00825.780151367852.09979248\x00830.715087891863.614685059834.005004883842.229919434838.940002441861.969726562829.070068359840.584960938827.425109863873.484558105819.200195312840.584960938843.874938965848.809875488809.330322266845.519897461835.650024414819.200195312829.070068359827.425109863827.425109863843.874938965850.454833984832.360046387830.715087891863.614685059832.360046387837.29498291\x00814.265258789843.874938965835.650024414822.49017334\x00817.555236816850.454833984838.940002441817.555236816796.170471191853.744812012835.650024414807.68536377\x00794.525512695855.389770508855.389770508807.68536377\x00771.495788574857.034729004857.034729004792.880554199758.3359375\x00\x00855.389770508866.904663086771.495788574738.596191406848.809875488873.484558105743.53112793\x00705.696594238847.164855957871.839599609718.856384277694.18170166\x00886.64440918\x00858.679748535707.341552734657.992126465901.44921875\x00878.419494629679.37689209\x00610.287719727909.674133301935.993835449628.382507324610.287719727911.319091797952.443603516621.80255127\x00593.837890625896.514282227935.993835449613.577697754605.352783203884.999450684917.899047852618.512634277620.157592773912.964111328917.899047852628.382507324606.997741699912.964111328940.928771973625.092529297608.642700195898.159240723909.674133301616.867614746616.867614746917.899047852916.25402832\x00621.80255127\x00618.512634277881.709472656944.218688965626.737487793631.672424316875.129516602947.508666992633.317443848646.477294922893.224304199954.088623047649.767211914669.507019043858.679748535901.44921875\x00662.927062988674.441955566917.899047852852.09979248\x00685.956787109705.696594238922.833984375896.514282227695.826660156713.921447754903.094238281896.514282227718.856384277748.466064453848.809875488861.969726562741.886108398764.91583252\x00817.555236816847.164855957774.785766602768.205810547891.579345703832.360046387794.525512695789.590576172889.934387207829.070068359789.590576172807.68536377\x00880.064453125797.815490723807.68536377\x00820.845214844870.194580078820.845214844817.555236816838.940002441783.010620117812.620300293834.005004883838.940002441860.324707031796.170471191848.809875488838.940002441886.64440918\x00804.395385742840.584960938860.324707031847.164855957766.560852051843.874938965855.389770508876.774536133789.590576172857.034729004875.129516602840.584960938786.300598145875.129516602883.354431152789.590576172779.720703125888.289367676888.289367676825.780151367773.14074707\x00883.354431152893.224304199850.454833984769.850830078891.579345703898.159240723830.715087891783.010620117888.289367676912.964111328802.750427246766.560852051898.159240723911.319091797829.070068359779.720703125906.384155273909.674133301829.070068359784.655639648911.319091797904.739196777832.360046387783.010620117908.029174805906.384155273875.129516602761.625915527911.319091797919.544006348830.715087891745.176086426921.188964844917.899047852825.780151367751.75604248\x00931.058898926909.674133301824.135131836787.945556641926.123962402917.899047852830.715087891781.365661621922.833984375921.188964844801.105407715766.560852051919.544006348926.123962402817.555236816751.75604248\x00924.478942871927.768920898838.940002441746.821105957922.833984375919.544006348817.555236816773.14074707\x00931.058898926929.413879395827.425109863779.720703125927.768920898926.123962402830.715087891783.010620117922.833984375927.768920898804.395385742771.495788574931.058898926922.833984375815.91027832\x00773.14074707\x00927.768920898927.768920898837.29498291\x00773.14074707\x00935.993835449932.703857422827.425109863766.560852051939.283752441932.703857422835.650024414776.430725098935.993835449944.218688965843.874938965787.945556641932.703857422924.478942871845.519897461786.300598145927.768920898926.123962402838.940002441781.365661621934.348815918927.768920898817.555236816763.270874023942.573730469926.123962402815.91027832\x00753.401000977929.413879395926.123962402819.200195312771.495788574922.833984375919.544006348838.940002441787.945556641921.188964844916.25402832\x00825.780151367797.815490723911.319091797909.674133301842.229919434796.170471191912.964111328919.544006348865.259643555783.010620117914.609069824912.964111328845.519897461792.880554199908.029174805904.739196777829.070068359794.525512695917.899047852909.674133301837.29498291\x00794.525512695921.188964844911.319091797827.425109863794.525512695912.964111328901.44921875\x00830.715087891786.300598145911.319091797906.384155273835.650024414779.720703125898.159240723901.44921875\x00834.005004883768.205810547904.739196777891.579345703832.360046387784.655639648911.319091797906.384155273832.360046387801.105407715901.44921875\x00888.289367676825.780151367799.460449219898.159240723881.709472656838.940002441806.040344238888.289367676884.999450684820.845214844796.170471191898.159240723880.064453125827.425109863802.750427246898.159240723881.709472656850.454833984806.040344238898.159240723884.999450684837.29498291\x00791.235534668888.289367676888.289367676863.614685059794.525512695884.999450684888.289367676857.034729004797.815490723891.579345703886.64440918\x00815.91027832\x00797.815490723886.64440918\x00875.129516602784.655639648791.235534668899.804260254875.129516602824.135131836810.975280762894.86932373\x00873.484558105868.549621582809.330322266891.579345703881.709472656870.194580078804.395385742886.64440918\x00875.129516602868.549621582817.555236816883.354431152875.129516602835.650024414812.620300293876.774536133873.484558105829.070068359807.68536377\x00876.774536133876.774536133837.29498291\x00815.91027832\x00881.709472656881.709472656845.519897461794.525512695875.129516602865.259643555827.425109863797.815490723876.774536133860.324707031837.29498291\x00830.715087891871.839599609875.129516602825.780151367819.200195312878.419494629871.839599609829.070068359809.330322266881.709472656866.904663086865.259643555822.49017334\x00860.324707031858.679748535850.454833984825.780151367861.969726562858.679748535853.744812012817.555236816861.969726562860.324707031820.845214844822.49017334\x00868.549621582870.194580078837.29498291\x00810.975280762876.774536133848.809875488850.454833984806.040344238865.259643555858.679748535842.229919434802.750427246858.679748535860.324707031814.265258789789.590576172875.129516602857.034729004822.49017334\x00817.555236816870.194580078861.969726562858.679748535820.845214844858.679748535858.679748535852.09979248\x00825.780151367861.969726562855.389770508850.454833984822.49017334\x00861.969726562852.09979248\x00835.650024414822.49017334\x00866.904663086853.744812012829.070068359819.200195312855.389770508845.519897461830.715087891830.715087891860.324707031848.809875488812.620300293819.200195312861.969726562845.519897461840.584960938809.330322266850.454833984835.650024414853.744812012815.91027832\x00857.034729004843.874938965855.389770508815.91027832\x00847.164855957852.09979248\x00858.679748535801.105407715847.164855957843.874938965829.070068359802.750427246860.324707031843.874938965829.070068359819.200195312866.904663086850.454833984820.845214844827.425109863861.969726562847.164855957837.29498291\x00829.070068359870.194580078838.940002441866.904663086827.425109863855.389770508842.229919434850.454833984817.555236816852.09979248\x00842.229919434834.005004883822.49017334\x00866.904663086848.809875488830.715087891834.005004883858.679748535848.809875488847.164855957810.975280762858.679748535847.164855957853.744812012812.620300293848.809875488857.034729004842.229919434829.070068359845.519897461857.034729004806.040344238830.715087891858.679748535863.614685059789.590576172825.780151367866.904663086848.809875488850.454833984810.975280762858.679748535853.744812012880.064453125814.265258789858.679748535845.519897461868.549621582802.750427246863.614685059847.164855957861.969726562815.91027832\x00857.034729004855.389770508838.940002441830.715087891850.454833984842.229919434829.070068359820.845214844850.454833984842.229919434822.49017334\x00842.229919434853.744812012848.809875488820.845214844820.845214844858.679748535838.940002441832.360046387807.68536377\x00848.809875488848.809875488850.454833984806.040344238855.389770508845.519897461868.549621582820.845214844847.164855957837.29498291\x00843.874938965817.555236816855.389770508835.650024414827.425109863814.265258789842.229919434848.809875488842.229919434824.135131836847.164855957847.164855957837.29498291\x00820.845214844852.09979248\x00834.005004883820.845214844829.070068359848.809875488840.584960938837.29498291\x00829.070068359855.389770508835.650024414843.874938965820.845214844848.809875488838.940002441842.229919434824.135131836858.679748535858.679748535835.650024414827.425109863855.389770508848.809875488829.070068359810.975280762852.09979248\x00848.809875488858.679748535804.395385742848.809875488847.164855957855.389770508806.040344238847.164855957855.389770508827.425109863815.91027832\x00866.904663086855.389770508837.29498291\x00824.135131836860.324707031852.09979248\x00848.809875488832.360046387858.679748535852.09979248\x00840.584960938827.425109863857.034729004848.809875488850.454833984827.425109863855.389770508853.744812012815.91027832\x00830.715087891857.034729004850.454833984820.845214844832.360046387857.034729004853.744812012861.969726562814.265258789860.324707031853.744812012860.324707031807.68536377\x00860.324707031853.744812012847.164855957819.200195312858.679748535857.034729004835.650024414834.005004883858.679748535860.324707031835.650024414840.584960938870.194580078861.969726562838.940002441835.650024414866.904663086848.809875488835.650024414824.135131836855.389770508840.584960938847.164855957827.425109863866.904663086845.519897461847.164855957832.360046387857.034729004857.034729004838.940002441822.49017334\x00857.034729004855.389770508848.809875488819.200195312861.969726562843.874938965850.454833984829.070068359852.09979248\x00848.809875488815.91027832\x00843.874938965860.324707031857.034729004812.620300293842.229919434871.839599609863.614685059835.650024414824.135131836861.969726562861.969726562852.09979248\x00822.49017334\x00863.614685059840.584960938865.259643555825.780151367857.034729004835.650024414860.324707031815.91027832\x00857.034729004848.809875488845.519897461817.555236816863.614685059837.29498291\x00829.070068359842.229919434857.034729004838.940002441827.425109863843.874938965858.679748535842.229919434817.555236816842.229919434855.389770508843.874938965835.650024414832.360046387853.744812012855.389770508847.164855957810.975280762855.389770508843.874938965853.744812012824.135131836853.744812012843.874938965838.940002441835.650024414850.454833984847.164855957797.815490723830.715087891855.389770508838.940002441832.360046387814.265258789857.034729004843.874938965848.809875488814.265258789857.034729004837.29498291\x00843.874938965829.070068359865.259643555837.29498291\x00855.389770508829.070068359857.034729004848.809875488825.780151367824.135131836850.454833984857.034729004810.975280762819.200195312857.034729004843.874938965820.845214844801.105407715863.614685059842.229919434857.034729004794.525512695861.969726562837.29498291\x00861.969726562845.519897461852.09979248\x00835.650024414868.549621582847.164855957843.874938965845.519897461857.034729004842.229919434852.09979248\x00853.744812012827.425109863835.650024414853.744812012852.09979248\x00824.135131836812.620300293865.259643555848.809875488843.874938965817.555236816861.969726562847.164855957817.555236816838.940002441860.324707031850.454833984819.200195312830.715087891871.839599609853.744812012858.679748535812.620300293868.549621582852.09979248\x00852.09979248\x00830.715087891860.324707031857.034729004852.09979248\x00840.584960938863.614685059847.164855957848.809875488834.005004883866.904663086845.519897461829.070068359835.650024414860.324707031852.09979248\x00827.425109863817.555236816865.259643555852.09979248\x00866.904663086814.265258789857.034729004853.744812012830.715087891824.135131836860.324707031850.454833984822.49017334\x00829.070068359863.614685059837.29498291\x00842.229919434840.584960938850.454833984830.715087891853.744812012848.809875488858.679748535838.940002441861.969726562829.070068359853.744812012840.584960938842.229919434819.200195312861.969726562829.070068359819.200195312822.49017334\x00860.324707031845.519897461806.040344238827.425109863852.09979248\x00843.874938965825.780151367835.650024414853.744812012847.164855957827.425109863815.91027832\x00845.519897461843.874938965834.005004883832.360046387852.09979248\x00840.584960938850.454833984829.070068359863.614685059835.650024414845.519897461822.49017334\x00868.549621582837.29498291\x00835.650024414820.845214844858.679748535837.29498291\x00817.555236816825.780151367857.034729004838.940002441825.780151367829.070068359870.194580078842.229919434843.874938965834.005004883857.034729004830.715087891843.874938965838.940002441842.229919434837.29498291\x00838.940002441825.780151367845.519897461834.005004883835.650024414824.135131836835.650024414847.164855957829.070068359815.91027832\x00858.679748535845.519897461847.164855957797.815490723853.744812012840.584960938829.070068359802.750427246835.650024414852.09979248\x00819.200195312814.265258789838.940002441847.164855957850.454833984814.265258789847.164855957857.034729004858.679748535804.395385742860.324707031855.389770508857.034729004809.330322266852.09979248\x00845.519897461850.454833984802.750427246848.809875488865.259643555838.940002441796.170471191855.389770508855.389770508840.584960938804.395385742852.09979248\x00852.09979248\x00858.679748535814.265258789857.034729004858.679748535855.389770508812.620300293858.679748535870.194580078829.070068359824.135131836860.324707031868.549621582835.650024414822.49017334\x00861.969726562868.549621582842.229919434804.395385742853.744812012853.744812012845.519897461829.070068359858.679748535857.034729004852.09979248\x00820.845214844855.389770508855.389770508843.874938965824.135131836858.679748535858.679748535832.360046387817.555236816858.679748535852.09979248\x00834.005004883797.815490723858.679748535838.940002441863.614685059827.425109863863.614685059845.519897461853.744812012827.425109863857.034729004852.09979248\x00853.744812012830.715087891848.809875488845.519897461850.454833984825.780151367852.09979248\x00858.679748535832.360046387806.040344238853.744812012837.29498291\x00825.780151367817.555236816857.034729004835.650024414838.940002441824.135131836857.034729004845.519897461845.519897461827.425109863852.09979248\x00845.519897461847.164855957824.135131836847.164855957845.519897461857.034729004815.91027832\x00843.874938965840.584960938838.940002441835.650024414848.809875488843.874938965843.874938965820.845214844860.324707031845.519897461842.229919434819.200195312850.454833984842.229919434840.584960938812.620300293850.454833984848.809875488834.005004883802.750427246852.09979248\x00845.519897461829.070068359806.040344238838.940002441838.940002441853.744812012829.070068359845.519897461847.164855957850.454833984829.070068359847.164855957845.519897461838.940002441832.360046387835.650024414855.389770508824.135131836825.780151367843.874938965843.874938965822.49017334\x00825.780151367853.744812012840.584960938843.874938965815.91027832\x00852.09979248\x00855.389770508848.809875488801.105407715865.259643555855.389770508838.940002441819.200195312861.969726562850.454833984830.715087891824.135131836852.09979248\x00842.229919434837.29498291\x00830.715087891848.809875488840.584960938858.679748535837.29498291\x00837.29498291\x00848.809875488848.809875488822.49017334\x00847.164855957861.969726562834.005004883822.49017334\x00853.744812012850.454833984819.200195312812.620300293858.679748535857.034729004832.360046387815.91027832\x00865.259643555860.324707031853.744812012806.040344238863.614685059858.679748535853.744812012812.620300293858.679748535857.034729004855.389770508835.650024414857.034729004843.874938965845.519897461837.29498291\x00855.389770508847.164855957835.650024414847.164855957852.09979248\x00847.164855957827.425109863834.005004883848.809875488845.519897461824.135131836817.555236816847.164855957853.744812012819.200195312802.750427246853.744812012853.744812012835.650024414802.750427246858.679748535848.809875488848.809875488814.265258789852.09979248\x00829.070068359848.809875488810.975280762855.389770508840.584960938845.519897461824.135131836853.744812012843.874938965835.650024414824.135131836857.034729004850.454833984825.780151367822.49017334\x00863.614685059838.940002441825.780151367815.91027832\x00842.229919434852.09979248\x00822.49017334\x00820.845214844855.389770508843.874938965838.940002441825.780151367848.809875488847.164855957840.584960938807.68536377\x00861.969726562840.584960938848.809875488817.555236816852.09979248\x00832.360046387845.519897461819.200195312858.679748535845.519897461812.620300293822.49017334\x00848.809875488850.454833984830.715087891825.780151367852.09979248\x00840.584960938848.809875488817.555236816857.034729004837.29498291\x00857.034729004817.555236816845.519897461840.584960938853.744812012810.975280762855.389770508847.164855957845.519897461809.330322266848.809875488840.584960938832.360046387802.750427246857.034729004840.584960938827.425109863819.200195312868.549621582840.584960938843.874938965827.425109863852.09979248\x00834.005004883848.809875488838.940002441855.389770508838.940002441840.584960938835.650024414860.324707031848.809875488835.650024414815.91027832\x00860.324707031845.519897461837.29498291\x00815.91027832\x00861.969726562848.809875488835.650024414822.49017334\x00857.034729004842.229919434834.005004883830.715087891845.519897461835.650024414848.809875488827.425109863843.874938965845.519897461852.09979248\x00829.070068359860.324707031835.650024414855.389770508820.845214844857.034729004835.650024414858.679748535824.135131836845.519897461838.940002441850.454833984825.780151367855.389770508843.874938965837.29498291\x00812.620300293838.940002441848.809875488829.070068359806.040344238847.164855957843.874938965834.005004883806.040344238852.09979248\x00840.584960938837.29498291\x00824.135131836843.874938965845.519897461819.200195312829.070068359852.09979248\x00845.519897461830.715087891817.555236816840.584960938847.164855957861.969726562830.715087891852.09979248\x00840.584960938848.809875488838.940002441850.454833984838.940002441857.034729004827.425109863848.809875488837.29498291\x00840.584960938827.425109863848.809875488838.940002441829.070068359814.265258789853.744812012838.940002441830.715087891814.265258789855.389770508843.874938965806.040344238810.975280762847.164855957848.809875488814.265258789799.460449219845.519897461842.229919434868.549621582810.975280762845.519897461832.360046387873.484558105832.360046387842.229919434835.650024414889.934387207824.135131836857.034729004829.070068359845.519897461834.005004883847.164855957837.29498291\x00819.200195312825.780151367842.229919434842.229919434835.650024414814.265258789847.164855957848.809875488850.454833984829.070068359843.874938965853.744812012827.425109863817.555236816858.679748535847.164855957806.040344238825.780151367861.969726562848.809875488843.874938965822.49017334\x00865.259643555837.29498291\x00843.874938965810.975280762865.259643555843.874938965850.454833984797.815490723850.454833984845.519897461850.454833984797.815490723857.034729004843.874938965830.715087891843.874938965847.164855957852.09979248\x00837.29498291\x00842.229919434848.809875488855.389770508830.715087891835.650024414857.034729004847.164855957835.650024414832.360046387848.809875488852.09979248\x00857.034729004815.91027832\x00855.389770508845.519897461853.744812012817.555236816855.389770508843.874938965855.389770508815.91027832\x00852.09979248\x00850.454833984840.584960938817.555236816852.09979248\x00842.229919434835.650024414819.200195312855.389770508847.164855957840.584960938829.070068359850.454833984858.679748535837.29498291\x00822.49017334\x00853.744812012847.164855957822.49017334\x00810.975280762857.034729004853.744812012814.265258789814.265258789845.519897461845.519897461848.809875488837.29498291\x00845.519897461850.454833984863.614685059819.200195312855.389770508845.519897461852.09979248\x00819.200195312848.809875488858.679748535850.454833984815.91027832\x00861.969726562853.744812012843.874938965817.555236816866.904663086848.809875488857.034729004815.91027832\x00852.09979248\x00853.744812012863.614685059814.265258789840.584960938852.09979248\x00840.584960938825.780151367845.519897461855.389770508834.005004883822.49017334\x00850.454833984858.679748535842.229919434832.360046387857.034729004850.454833984847.164855957825.780151367855.389770508845.519897461842.229919434815.91027832\x00845.519897461852.09979248\x00843.874938965814.265258789853.744812012857.034729004838.940002441804.395385742852.09979248\x00855.389770508825.780151367801.105407715858.679748535852.09979248\x00840.584960938815.91027832\x00852.09979248\x00843.874938965860.324707031827.425109863848.809875488837.29498291\x00858.679748535832.360046387852.09979248\x00843.874938965868.549621582824.135131836848.809875488834.005004883835.650024414825.780151367847.164855957847.164855957824.135131836822.49017334\x00855.389770508845.519897461843.874938965825.780151367852.09979248\x00838.940002441832.360046387820.845214844852.09979248\x00842.229919434840.584960938814.265258789852.09979248\x00832.360046387855.389770508814.265258789845.519897461843.874938965855.389770508817.555236816853.744812012837.29498291\x00852.09979248\x00827.425109863858.679748535843.874938965830.715087891825.780151367857.034729004840.584960938838.940002441815.91027832\x00858.679748535829.070068359834.005004883814.265258789853.744812012832.360046387848.809875488820.845214844847.164855957830.715087891830.715087891825.780151367843.874938965835.650024414825.780151367822.49017334\x00835.650024414842.229919434860.324707031820.845214844834.005004883835.650024414850.454833984817.555236816840.584960938830.715087891848.809875488820.845214844850.454833984838.940002441835.650024414814.265258789852.09979248\x00843.874938965838.940002441802.750427246852.09979248\x00838.940002441847.164855957824.135131836850.454833984829.070068359830.715087891843.874938965861.969726562832.360046387847.164855957838.940002441847.164855957837.29498291\x00845.519897461832.360046387845.519897461835.650024414845.519897461827.425109863838.940002441843.874938965838.940002441814.265258789834.005004883852.09979248\x00837.29498291\x00825.780151367845.519897461842.229919434857.034729004809.330322266840.584960938848.809875488857.034729004822.49017334\x00847.164855957837.29498291\x00857.034729004852.09979248\x00840.584960938830.715087891843.874938965848.809875488819.200195312810.975280762847.164855957845.519897461820.845214844802.750427246847.164855957838.940002441810.975280762791.235534668853.744812012847.164855957802.750427246768.205810547861.969726562848.809875488781.365661621753.401000977866.904663086858.679748535759.980895996717.211425781868.549621582838.940002441722.146362305699.116638184870.194580078857.034729004704.051574707671.151977539875.129516602866.904663086687.601806641644.832275391878.419494629852.09979248\x00653.057189941605.352783203921.188964844940.928771973630.02746582\x00577.388122559924.478942871955.733581543606.997741699582.323059082908.029174805934.348815918598.772827148585.612976074909.674133301917.899047852610.287719727588.902954102847.164855957950.79864502\x00611.932678223605.352783203880.064453125950.79864502\x00616.867614746602.062805176906.384155273935.993835449628.382507324615.22265625\x00911.319091797922.833984375631.672424316625.092529297957.378540039919.544006348653.057189941643.187316895883.354431152962.313476562666.217041016672.796936035880.064453125954.088623047684.311828613684.311828613904.739196777916.25402832\x00707.341552734707.341552734875.129516602861.969726562735.306213379720.501403809860.324707031868.549621582748.466064453750.111022949829.070068359908.029174805768.205810547766.560852051806.040344238871.839599609784.655639648773.14074707\x00842.229919434866.904663086802.750427246794.525512695871.839599609848.809875488814.265258789801.105407715868.549621582863.614685059819.200195312830.715087891847.164855957863.614685059832.360046387845.519897461825.780151367834.005004883847.164855957850.454833984778.075683594817.555236816860.324707031858.679748535832.360046387756.690979004881.709472656853.744812012865.259643555759.980895996873.484558105863.614685059857.034729004830.715087891871.839599609881.709472656819.200195312852.09979248\x00875.129516602899.804260254796.170471191830.715087891889.934387207898.159240723827.425109863806.040344238896.514282227904.739196777834.005004883786.300598145896.514282227911.319091797860.324707031783.010620117906.384155273903.094238281834.005004883774.785766602911.319091797924.478942871842.229919434750.111022949917.899047852926.123962402838.940002441753.401000977922.833984375912.964111328792.880554199784.655639648924.478942871911.319091797819.200195312797.815490723912.964111328919.544006348838.940002441792.880554199924.478942871927.768920898855.389770508781.365661621916.25402832\x00931.058898926838.940002441764.91583252\x00921.188964844927.768920898797.815490723759.980895996926.123962402932.703857422806.040344238766.560852051921.188964844919.544006348819.200195312773.14074707\x00927.768920898922.833984375815.91027832\x00778.075683594926.123962402921.188964844822.49017334\x00794.525512695926.123962402922.833984375829.070068359776.430725098924.478942871927.768920898832.360046387773.14074707\x00926.123962402940.928771973814.265258789791.235534668934.348815918931.058898926827.425109863783.010620117927.768920898922.833984375847.164855957779.720703125929.413879395934.348815918819.200195312771.495788574932.703857422914.609069824843.874938965781.365661621919.544006348935.993835449838.940002441784.655639648934.348815918914.609069824838.940002441783.010620117922.833984375911.319091797857.034729004794.525512695906.384155273911.319091797848.809875488768.205810547926.123962402908.029174805842.229919434791.235534668916.25402832\x00909.674133301840.584960938794.525512695903.094238281909.674133301834.005004883792.880554199903.094238281909.674133301806.040344238789.590576172904.739196777903.094238281810.975280762786.300598145909.674133301906.384155273824.135131836766.560852051926.123962402894.86932373\x00840.584960938787.945556641906.384155273896.514282227834.005004883807.68536377\x00888.289367676894.86932373\x00835.650024414794.525512695891.579345703898.159240723863.614685059802.750427246889.934387207896.514282227865.259643555786.300598145896.514282227888.289367676855.389770508773.14074707\x00901.44921875\x00891.579345703848.809875488794.525512695893.224304199893.224304199837.29498291\x00796.170471191880.064453125884.999450684843.874938965791.235534668884.999450684886.64440918\x00845.519897461801.105407715886.64440918\x00883.354431152834.005004883807.68536377\x00889.934387207878.419494629832.360046387791.235534668894.86932373\x00884.999450684827.425109863794.525512695876.774536133881.709472656822.49017334\x00806.040344238871.839599609878.419494629842.229919434789.590576172878.419494629873.484558105834.005004883807.68536377\x00870.194580078870.194580078855.389770508806.040344238881.709472656875.129516602840.584960938796.170471191878.419494629883.354431152815.91027832\x00789.590576172883.354431152871.839599609830.715087891814.265258789880.064453125858.679748535843.874938965814.265258789868.549621582870.194580078834.005004883807.68536377\x00873.484558105865.259643555837.29498291\x00817.555236816883.354431152868.549621582852.09979248\x00799.460449219891.579345703868.549621582848.809875488801.105407715873.484558105853.744812012860.324707031792.880554199857.034729004860.324707031842.229919434789.590576172861.969726562857.034729004820.845214844796.170471191868.549621582853.744812012835.650024414806.040344238871.839599609860.324707031857.034729004806.040344238870.194580078860.324707031868.549621582806.040344238868.549621582865.259643555860.324707031806.040344238866.904663086866.904663086830.715087891806.040344238878.419494629850.454833984814.265258789802.750427246868.549621582853.744812012834.005004883797.815490723860.324707031858.679748535837.29498291\x00784.655639648866.904663086852.09979248\x00837.29498291\x00797.815490723866.904663086863.614685059837.29498291\x00814.265258789860.324707031850.454833984835.650024414809.330322266858.679748535852.09979248\x00852.09979248\x00809.330322266863.614685059843.874938965837.29498291\x00801.105407715847.164855957838.940002441852.09979248\x00796.170471191860.324707031853.744812012837.29498291\x00799.460449219868.549621582855.389770508830.715087891802.750427246868.549621582861.969726562806.040344238815.91027832\x00873.484558105857.034729004825.780151367807.68536377\x00868.549621582865.259643555868.549621582807.68536377\x00870.194580078848.809875488855.389770508807.68536377\x00868.549621582850.454833984852.09979248\x00809.330322266863.614685059860.324707031840.584960938802.750427246860.324707031852.09979248\x00835.650024414802.750427246853.744812012861.969726562838.940002441799.460449219857.034729004857.034729004837.29498291\x00794.525512695865.259643555850.454833984838.940002441806.040344238858.679748535855.389770508850.454833984807.68536377\x00857.034729004855.389770508857.034729004812.620300293863.614685059863.614685059830.715087891806.040344238861.969726562850.454833984796.170471191801.105407715861.969726562850.454833984855.389770508797.815490723861.969726562845.519897461893.224304199797.815490723852.09979248\x00842.229919434870.194580078809.330322266847.164855957843.874938965863.614685059814.265258789848.809875488848.809875488830.715087891810.975280762857.034729004847.164855957824.135131836801.105407715842.229919434860.324707031840.584960938797.815490723852.09979248\x00850.454833984848.809875488796.170471191852.09979248\x00848.809875488827.425109863806.040344238850.454833984855.389770508814.265258789810.975280762847.164855957837.29498291\x00855.389770508802.750427246847.164855957850.454833984861.969726562817.555236816845.519897461848.809875488857.034729004820.845214844843.874938965840.584960938858.679748535820.845214844852.09979248\x00843.874938965843.874938965820.845214844848.809875488850.454833984827.425109863810.975280762857.034729004861.969726562847.164855957807.68536377\x00860.324707031848.809875488852.09979248\x00804.395385742857.034729004855.389770508853.744812012796.170471191853.744812012852.09979248\x00843.874938965809.330322266855.389770508853.744812012829.070068359810.975280762863.614685059865.259643555824.135131836830.715087891855.389770508852.09979248\x00845.519897461829.070068359857.034729004840.584960938871.839599609807.68536377\x00853.744812012850.454833984873.484558105807.68536377\x00853.744812012857.034729004848.809875488824.135131836868.549621582860.324707031832.360046387822.49017334\x00866.904663086855.389770508842.229919434819.200195312860.324707031850.454833984843.874938965815.91027832\x00868.549621582853.744812012847.164855957806.040344238861.969726562861.969726562824.135131836819.200195312857.034729004863.614685059829.070068359824.135131836861.969726562848.809875488852.09979248\x00815.91027832\x00857.034729004848.809875488838.940002441814.265258789842.229919434853.744812012835.650024414829.070068359852.09979248\x00845.519897461848.809875488829.070068359847.164855957848.809875488871.839599609822.49017334\x00847.164855957852.09979248\x00863.614685059799.460449219853.744812012832.360046387850.454833984792.880554199847.164855957850.454833984848.809875488819.200195312853.744812012842.229919434815.91027832\x00829.070068359860.324707031838.940002441829.070068359838.940002441853.744812012848.809875488875.129516602834.005004883847.164855957834.005004883850.454833984830.715087891848.809875488838.940002441853.744812012830.715087891845.519897461837.29498291\x00860.324707031820.845214844848.809875488843.874938965809.330322266814.265258789848.809875488837.29498291\x00819.200195312810.975280762852.09979248\x00832.360046387865.259643555814.265258789847.164855957837.29498291\x00883.354431152815.91027832\x00850.454833984845.519897461855.389770508824.135131836852.09979248\x00837.29498291\x00852.09979248\x00824.135131836852.09979248\x00830.715087891837.29498291\x00817.555236816855.389770508837.29498291\x00815.91027832\x00827.425109863853.744812012842.229919434843.874938965814.265258789848.809875488850.454833984847.164855957815.91027832\x00853.744812012838.940002441838.940002441817.555236816852.09979248\x00838.940002441827.425109863815.91027832\x00852.09979248\x00852.09979248\x00855.389770508806.040344238848.809875488852.09979248\x00845.519897461827.425109863843.874938965842.229919434852.09979248\x00835.650024414853.744812012843.874938965855.389770508832.360046387850.454833984858.679748535824.135131836822.49017334\x00863.614685059853.744812012840.584960938807.68536377\x00865.259643555852.09979248\x00853.744812012801.105407715848.809875488834.005004883842.229919434810.975280762850.454833984835.650024414850.454833984832.360046387837.29498291\x00848.809875488848.809875488832.360046387840.584960938848.809875488838.940002441827.425109863852.09979248\x00845.519897461843.874938965825.780151367847.164855957847.164855957837.29498291\x00822.49017334\x00847.164855957835.650024414853.744812012820.845214844835.650024414847.164855957834.005004883817.555236816848.809875488842.229919434847.164855957824.135131836847.164855957845.519897461848.809875488804.395385742853.744812012845.519897461840.584960938812.620300293842.229919434843.874938965863.614685059814.265258789832.360046387855.389770508837.29498291\x00810.975280762835.650024414850.454833984827.425109863815.91027832\x00842.229919434845.519897461852.09979248\x00829.070068359843.874938965850.454833984847.164855957820.845214844852.09979248\x00834.005004883838.940002441810.975280762852.09979248\x00847.164855957847.164855957830.715087891847.164855957838.940002441842.229919434822.49017334\x00848.809875488848.809875488840.584960938810.975280762852.09979248\x00852.09979248\x00829.070068359807.68536377\x00858.679748535853.744812012825.780151367799.460449219853.744812012848.809875488852.09979248\x00812.620300293845.519897461832.360046387880.064453125820.845214844840.584960938829.070068359852.09979248\x00824.135131836848.809875488840.584960938842.229919434824.135131836847.164855957830.715087891827.425109863815.91027832\x00848.809875488834.005004883820.845214844824.135131836842.229919434842.229919434830.715087891809.330322266848.809875488842.229919434820.845214844810.975280762853.744812012843.874938965837.29498291\x00820.845214844843.874938965843.874938965852.09979248\x00819.200195312848.809875488843.874938965837.29498291\x00810.975280762855.389770508837.29498291\x00843.874938965814.265258789852.09979248\x00832.360046387845.519897461835.650024414845.519897461829.070068359843.874938965825.780151367848.809875488830.715087891858.679748535829.070068359847.164855957837.29498291\x00829.070068359825.780151367847.164855957838.940002441819.200195312810.975280762843.874938965837.29498291\x00840.584960938830.715087891840.584960938845.519897461843.874938965822.49017334\x00850.454833984847.164855957835.650024414812.620300293858.679748535838.940002441848.809875488809.330322266855.389770508842.229919434842.229919434815.91027832\x00853.744812012838.940002441832.360046387827.425109863853.744812012847.164855957847.164855957830.715087891852.09979248\x00848.809875488843.874938965814.265258789855.389770508852.09979248\x00848.809875488807.68536377\x00848.809875488848.809875488845.519897461820.845214844845.519897461850.454833984827.425109863827.425109863860.324707031850.454833984819.200195312824.135131836858.679748535855.389770508825.780151367814.265258789847.164855957847.164855957863.614685059794.525512695857.034729004858.679748535873.484558105802.750427246857.034729004847.164855957866.904663086837.29498291\x00847.164855957855.389770508845.519897461840.584960938853.744812012861.969726562824.135131836825.780151367858.679748535847.164855957842.229919434825.780151367861.969726562850.454833984858.679748535801.105407715857.034729004852.09979248\x00848.809875488819.200195312850.454833984847.164855957847.164855957812.620300293837.29498291\x00835.650024414843.874938965812.620300293838.940002441835.650024414853.744812012810.975280762847.164855957832.360046387850.454833984815.91027832\x00838.940002441842.229919434845.519897461829.070068359840.584960938845.519897461815.91027832\x00832.360046387843.874938965843.874938965835.650024414820.845214844848.809875488848.809875488850.454833984802.750427246847.164855957835.650024414845.519897461809.330322266842.229919434832.360046387855.389770508815.91027832\x00840.584960938848.809875488845.519897461797.815490723842.229919434838.940002441843.874938965814.265258789857.034729004848.809875488842.229919434838.940002441843.874938965834.005004883843.874938965825.780151367855.389770508815.91027832\x00829.070068359848.809875488847.164855957834.005004883825.780151367838.940002441845.519897461832.360046387834.005004883825.780151367853.744812012829.070068359822.49017334\x00840.584960938847.164855957827.425109863815.91027832\x00837.29498291\x00850.454833984829.070068359815.91027832\x00832.360046387860.324707031830.715087891814.265258789840.584960938848.809875488840.584960938810.975280762838.940002441861.969726562838.940002441809.330322266853.744812012860.324707031853.744812012815.91027832\x00834.005004883857.034729004845.519897461832.360046387824.135131836863.614685059842.229919434842.229919434827.425109863861.969726562857.034729004850.454833984845.519897461858.679748535848.809875488840.584960938847.164855957863.614685059845.519897461832.360046387837.29498291\x00860.324707031847.164855957832.360046387804.395385742866.904663086840.584960938817.555236816824.135131836857.034729004845.519897461809.330322266848.809875488860.324707031855.389770508838.940002441855.389770508852.09979248\x00845.519897461871.839599609853.744812012848.809875488842.229919434865.259643555834.005004883855.389770508850.454833984847.164855957834.005004883855.389770508848.809875488824.135131836825.780151367852.09979248\x00845.519897461819.200195312824.135131836853.744812012837.29498291\x00825.780151367827.425109863852.09979248\x00848.809875488832.360046387812.620300293850.454833984827.425109863843.874938965824.135131836853.744812012840.584960938837.29498291\x00830.715087891847.164855957850.454833984850.454833984832.360046387853.744812012832.360046387850.454833984827.425109863853.744812012847.164855957857.034729004804.395385742845.519897461827.425109863853.744812012804.395385742845.519897461842.229919434843.874938965834.005004883848.809875488842.229919434847.164855957834.005004883860.324707031837.29498291\x00838.940002441832.360046387847.164855957838.940002441852.09979248\x00827.425109863852.09979248\x00838.940002441830.715087891824.135131836845.519897461845.519897461834.005004883834.005004883842.229919434840.584960938842.229919434829.070068359857.034729004830.715087891843.874938965820.845214844847.164855957834.005004883848.809875488820.845214844847.164855957834.005004883840.584960938830.715087891857.034729004853.744812012814.265258789820.845214844857.034729004842.229919434812.620300293817.555236816852.09979248\x00838.940002441834.005004883819.200195312865.259643555843.874938965852.09979248\x00838.940002441858.679748535840.584960938855.389770508832.360046387865.259643555848.809875488853.744812012822.49017334\x00855.389770508840.584960938829.070068359830.715087891845.519897461848.809875488835.650024414806.040344238857.034729004843.874938965855.389770508817.555236816860.324707031855.389770508824.135131836848.809875488871.839599609848.809875488830.715087891840.584960938861.969726562825.780151367838.940002441840.584960938852.09979248\x00830.715087891845.519897461850.454833984848.809875488838.940002441835.650024414843.874938965860.324707031830.715087891842.229919434842.229919434853.744812012848.809875488824.135131836832.360046387861.969726562847.164855957817.555236816819.200195312866.904663086837.29498291\x00838.940002441835.650024414863.614685059848.809875488827.425109863843.874938965870.194580078850.454833984817.555236816850.454833984878.419494629848.809875488829.070068359842.229919434865.259643555865.259643555837.29498291\x00824.135131836865.259643555855.389770508832.360046387825.780151367875.129516602852.09979248\x00825.780151367835.650024414873.484558105852.09979248\x00838.940002441843.874938965875.129516602858.679748535837.29498291\x00832.360046387878.419494629863.614685059842.229919434825.780151367881.709472656868.549621582845.519897461834.005004883873.484558105855.389770508837.29498291\x00843.874938965880.064453125853.744812012853.744812012853.744812012873.484558105861.969726562848.809875488832.360046387861.969726562855.389770508842.229919434820.845214844873.484558105861.969726562824.135131836832.360046387870.194580078863.614685059843.874938965835.650024414871.839599609866.904663086847.164855957827.425109863883.354431152868.549621582829.070068359824.135131836881.709472656861.969726562834.005004883825.780151367883.354431152852.09979248\x00829.070068359843.874938965861.969726562853.744812012830.715087891870.194580078868.549621582866.904663086840.584960938840.584960938871.839599609865.259643555824.135131836817.555236816866.904663086847.164855957827.425109863814.265258789871.839599609852.09979248\x00853.744812012824.135131836858.679748535848.809875488835.650024414824.135131836863.614685059842.229919434848.809875488842.229919434860.324707031858.679748535861.969726562830.715087891866.904663086850.454833984840.584960938837.29498291\x00857.034729004855.389770508845.519897461832.360046387861.969726562855.389770508825.780151367824.135131836855.389770508850.454833984804.395385742832.360046387858.679748535847.164855957827.425109863824.135131836866.904663086840.584960938848.809875488820.845214844860.324707031843.874938965850.454833984827.425109863858.679748535842.229919434855.389770508825.780151367860.324707031847.164855957855.389770508820.845214844847.164855957861.969726562842.229919434820.845214844861.969726562840.584960938830.715087891825.780151367860.324707031845.519897461809.330322266834.005004883863.614685059842.229919434830.715087891835.650024414861.969726562847.164855957852.09979248\x00815.91027832\x00863.614685059850.454833984840.584960938797.815490723868.549621582857.034729004820.845214844815.91027832\x00855.389770508857.034729004847.164855957835.650024414852.09979248\x00843.874938965843.874938965830.715087891853.744812012855.389770508835.650024414812.620300293860.324707031843.874938965824.135131836812.620300293865.259643555835.650024414832.360046387820.845214844855.389770508845.519897461855.389770508835.650024414845.519897461837.29498291\x00855.389770508840.584960938843.874938965840.584960938842.229919434830.715087891858.679748535845.519897461834.005004883822.49017334\x00853.744812012843.874938965852.09979248\x00822.49017334\x00847.164855957838.940002441853.744812012830.715087891845.519897461853.744812012835.650024414815.91027832\x00855.389770508845.519897461814.265258789822.49017334\x00858.679748535847.164855957832.360046387829.070068359845.519897461847.164855957850.454833984817.555236816850.454833984848.809875488822.49017334\x00832.360046387838.940002441858.679748535820.845214844819.200195312853.744812012827.425109863832.360046387810.975280762845.519897461835.650024414838.940002441804.395385742850.454833984838.940002441835.650024414822.49017334\x00857.034729004840.584960938852.09979248\x00825.780151367845.519897461847.164855957842.229919434824.135131836850.454833984834.005004883829.070068359832.360046387842.229919434847.164855957843.874938965824.135131836848.809875488838.940002441843.874938965827.425109863845.519897461840.584960938842.229919434830.715087891843.874938965842.229919434835.650024414810.975280762848.809875488837.29498291\x00827.425109863806.040344238845.519897461838.940002441832.360046387815.91027832\x00855.389770508845.519897461819.200195312827.425109863853.744812012842.229919434834.005004883829.070068359848.809875488845.519897461875.129516602817.555236816853.744812012848.809875488858.679748535819.200195312852.09979248\x00840.584960938852.09979248\x00817.555236816845.519897461853.744812012847.164855957830.715087891850.454833984847.164855957834.005004883817.555236816852.09979248\x00834.005004883825.780151367812.620300293855.389770508837.29498291\x00830.715087891830.715087891852.09979248\x00834.005004883842.229919434820.845214844850.454833984848.809875488850.454833984802.750427246860.324707031848.809875488852.09979248\x00799.460449219860.324707031845.519897461834.005004883829.070068359853.744812012843.874938965829.070068359834.005004883850.454833984852.09979248\x00832.360046387838.940002441853.744812012847.164855957843.874938965825.780151367861.969726562842.229919434842.229919434802.750427246871.839599609847.164855957825.780151367832.360046387855.389770508842.229919434853.744812012822.49017334\x00847.164855957838.940002441853.744812012820.845214844853.744812012845.519897461843.874938965810.975280762848.809875488842.229919434840.584960938806.040344238845.519897461840.584960938852.09979248\x00810.975280762848.809875488845.519897461840.584960938817.555236816852.09979248\x00840.584960938835.650024414837.29498291\x00852.09979248\x00845.519897461820.845214844824.135131836861.969726562845.519897461815.91027832\x00825.780151367860.324707031840.584960938840.584960938815.91027832\x00853.744812012848.809875488845.519897461802.750427246861.969726562838.940002441843.874938965834.005004883838.940002441838.940002441852.09979248\x00825.780151367852.09979248\x00848.809875488847.164855957817.555236816853.744812012843.874938965848.809875488817.555236816855.389770508840.584960938845.519897461810.975280762855.389770508848.809875488819.200195312817.555236816857.034729004848.809875488827.425109863815.91027832\x00866.904663086857.034729004832.360046387824.135131836860.324707031855.389770508840.584960938812.620300293861.969726562838.940002441845.519897461837.29498291\x00840.584960938842.229919434845.519897461838.940002441848.809875488837.29498291\x00848.809875488834.005004883845.519897461827.425109863853.744812012827.425109863827.425109863825.780151367850.454833984807.68536377\x00850.454833984802.750427246857.034729004824.135131836820.845214844802.750427246853.744812012855.389770508809.330322266797.815490723852.09979248\x00848.809875488807.68536377\x00771.495788574858.679748535847.164855957779.720703125743.53112793\x00873.484558105852.09979248\x00759.980895996705.696594238870.194580078889.934387207732.016235352692.536743164865.259643555886.64440918\x00695.826660156661.282104492819.200195312906.384155273681.021850586639.897338867824.135131836891.579345703662.927062988616.867614746891.579345703901.44921875\x00630.02746582\x00598.772827148929.413879395962.313476562618.512634277597.127868652906.384155273937.638793945608.642700195602.062805176891.579345703924.478942871605.352783203610.287719727893.224304199912.964111328620.157592773616.867614746908.029174805912.964111328631.672424316634.962402344901.44921875\x00945.863708496638.252380371651.412231445857.034729004919.544006348664.57208252\x00667.861999512942.573730469884.999450684664.57208252\x00684.311828613914.609069824866.904663086676.086914062700.76159668\x00912.964111328898.159240723707.341552734722.146362305934.348815918884.999450684727.081298828740.241149902865.259643555878.419494629746.821105957776.430725098838.940002441848.809875488769.850830078791.235534668850.454833984807.68536377\x00789.590576172807.68536377\x00848.809875488814.265258789806.040344238817.555236816863.614685059802.750427246812.620300293834.005004883924.478942871771.495788574814.265258789848.809875488899.804260254784.655639648834.005004883852.09979248\x00812.620300293801.105407715845.519897461863.614685059784.655639648791.235534668860.324707031873.484558105878.419494629809.330322266876.774536133878.419494629880.064453125786.300598145881.709472656889.934387207875.129516602761.625915527888.289367676901.44921875\x00898.159240723756.690979004898.159240723898.159240723829.070068359784.655639648893.224304199906.384155273819.200195312791.235534668896.514282227906.384155273852.09979248\x00792.880554199906.384155273909.674133301822.49017334\x00799.460449219911.319091797927.768920898806.040344238774.785766602921.188964844922.833984375822.49017334\x00774.785766602926.123962402901.44921875\x00866.904663086783.010620117912.964111328906.384155273850.454833984791.235534668917.899047852908.029174805853.744812012787.945556641921.188964844924.478942871843.874938965792.880554199927.768920898932.703857422830.715087891774.785766602932.703857422931.058898926824.135131836756.690979004926.123962402921.188964844815.91027832\x00783.010620117926.123962402934.348815918819.200195312791.235534668931.058898926922.833984375822.49017334\x00792.880554199934.348815918922.833984375832.360046387781.365661621945.863708496929.413879395865.259643555787.945556641932.703857422909.674133301832.360046387789.590576172926.123962402922.833984375829.070068359784.655639648940.928771973919.544006348843.874938965797.815490723927.768920898919.544006348842.229919434773.14074707\x00929.413879395919.544006348843.874938965778.075683594922.833984375919.544006348817.555236816797.815490723922.833984375916.25402832\x00815.91027832\x00783.010620117922.833984375914.609069824825.780151367781.365661621908.029174805906.384155273838.940002441796.170471191898.159240723903.094238281852.09979248\x00784.655639648904.739196777912.964111328809.330322266792.880554199911.319091797903.094238281847.164855957792.880554199912.964111328903.094238281888.289367676778.075683594908.029174805888.289367676855.389770508773.14074707\x00903.094238281888.289367676842.229919434796.170471191914.609069824903.094238281847.164855957806.040344238901.44921875\x00896.514282227837.29498291\x00814.265258789888.289367676886.64440918\x00855.389770508807.68536377\x00889.934387207891.579345703852.09979248\x00801.105407715896.514282227891.579345703832.360046387801.105407715898.159240723893.224304199830.715087891812.620300293893.224304199906.384155273784.655639648804.395385742889.934387207906.384155273783.010620117810.975280762898.159240723898.159240723886.64440918\x00804.395385742896.514282227903.094238281893.224304199801.105407715886.64440918\x00880.064453125914.609069824810.975280762888.289367676881.709472656870.194580078796.170471191898.159240723889.934387207822.49017334\x00778.075683594896.514282227876.774536133835.650024414787.945556641891.579345703876.774536133857.034729004810.975280762881.709472656871.839599609847.164855957842.229919434883.354431152876.774536133825.780151367835.650024414886.64440918\x00883.354431152832.360046387819.200195312871.839599609883.354431152830.715087891804.395385742876.774536133870.194580078804.395385742807.68536377\x00876.774536133865.259643555850.454833984827.425109863886.64440918\x00861.969726562880.064453125819.200195312875.129516602870.194580078830.715087891804.395385742880.064453125860.324707031860.324707031791.235534668876.774536133860.324707031850.454833984817.555236816870.194580078860.324707031834.005004883830.715087891876.774536133858.679748535855.389770508820.845214844866.904663086858.679748535845.519897461819.200195312880.064453125873.484558105822.49017334\x00807.68536377\x00884.999450684891.579345703815.91027832\x00822.49017334\x00896.514282227863.614685059850.454833984832.360046387871.839599609850.454833984880.064453125820.845214844853.744812012860.324707031870.194580078812.620300293857.034729004858.679748535871.839599609796.170471191863.614685059866.904663086838.940002441794.525512695873.484558105865.259643555827.425109863801.105407715871.839599609853.744812012814.265258789810.975280762860.324707031852.09979248\x00822.49017334\x00815.91027832\x00860.324707031876.774536133837.29498291\x00809.330322266870.194580078861.969726562857.034729004789.590576172873.484558105855.389770508883.354431152787.945556641870.194580078866.904663086858.679748535802.750427246861.969726562873.484558105838.940002441804.395385742870.194580078863.614685059815.91027832\x00822.49017334\x00866.904663086857.034729004829.070068359804.395385742866.904663086863.614685059845.519897461792.880554199863.614685059860.324707031848.809875488827.425109863857.034729004853.744812012875.129516602827.425109863860.324707031858.679748535871.839599609820.845214844866.904663086861.969726562840.584960938825.780151367861.969726562853.744812012842.229919434807.68536377\x00871.839599609866.904663086843.874938965819.200195312866.904663086853.744812012817.555236816832.360046387860.324707031853.744812012838.940002441812.620300293861.969726562863.614685059858.679748535801.105407715857.034729004865.259643555850.454833984796.170471191863.614685059860.324707031842.229919434806.040344238871.839599609857.034729004837.29498291\x00830.715087891861.969726562868.549621582838.940002441829.070068359860.324707031853.744812012827.425109863822.49017334\x00857.034729004858.679748535810.975280762827.425109863860.324707031863.614685059842.229919434817.555236816861.969726562858.679748535860.324707031819.200195312863.614685059852.09979248\x00868.549621582822.49017334\x00857.034729004860.324707031866.904663086801.105407715863.614685059852.09979248\x00843.874938965817.555236816853.744812012858.679748535827.425109863807.68536377\x00861.969726562857.034729004832.360046387812.620300293866.904663086850.454833984835.650024414827.425109863847.164855957850.454833984809.330322266838.940002441850.454833984850.454833984806.040344238838.940002441855.389770508840.584960938850.454833984822.49017334\x00847.164855957840.584960938857.034729004814.265258789860.324707031840.584960938863.614685059824.135131836853.744812012840.584960938861.969726562827.425109863850.454833984838.940002441838.940002441820.845214844857.034729004845.519897461809.330322266801.105407715860.324707031852.09979248\x00801.105407715812.620300293861.969726562840.584960938835.650024414815.91027832\x00853.744812012838.940002441855.389770508825.780151367853.744812012840.584960938871.839599609825.780151367853.744812012840.584960938871.839599609835.650024414850.454833984852.09979248\x00852.09979248\x00822.49017334\x00857.034729004855.389770508824.135131836807.68536377\x00868.549621582842.229919434837.29498291\x00817.555236816860.324707031853.744812012819.200195312820.845214844860.324707031848.809875488827.425109863810.975280762873.484558105842.229919434876.774536133804.395385742871.839599609852.09979248\x00865.259643555810.975280762858.679748535847.164855957860.324707031837.29498291\x00857.034729004861.969726562827.425109863843.874938965860.324707031865.259643555822.49017334\x00832.360046387863.614685059858.679748535845.519897461806.040344238875.129516602855.389770508871.839599609820.845214844861.969726562843.874938965855.389770508829.070068359857.034729004850.454833984824.135131836812.620300293860.324707031858.679748535817.555236816804.395385742863.614685059848.809875488857.034729004789.590576172866.904663086850.454833984860.324707031822.49017334\x00857.034729004843.874938965848.809875488848.809875488861.969726562852.09979248\x00830.715087891834.005004883852.09979248\x00860.324707031817.555236816827.425109863861.969726562848.809875488840.584960938819.200195312861.969726562845.519897461840.584960938804.395385742857.034729004853.744812012819.200195312797.815490723858.679748535838.940002441871.839599609799.460449219838.940002441834.005004883871.839599609820.845214844843.874938965845.519897461870.194580078829.070068359853.744812012842.229919434845.519897461842.229919434850.454833984855.389770508810.975280762820.845214844847.164855957848.809875488834.005004883789.590576172861.969726562857.034729004830.715087891794.525512695863.614685059852.09979248\x00829.070068359832.360046387857.034729004842.229919434865.259643555835.650024414843.874938965838.940002441884.999450684832.360046387842.229919434834.005004883873.484558105834.005004883848.809875488845.519897461848.809875488812.620300293860.324707031852.09979248\x00829.070068359814.265258789860.324707031852.09979248\x00810.975280762814.265258789861.969726562860.324707031819.200195312806.040344238861.969726562858.679748535873.484558105812.620300293857.034729004858.679748535863.614685059829.070068359860.324707031848.809875488889.934387207827.425109863848.809875488855.389770508855.389770508820.845214844860.324707031857.034729004825.780151367809.330322266866.904663086868.549621582843.874938965804.395385742873.484558105868.549621582843.874938965822.49017334\x00865.259643555866.904663086865.259643555804.395385742860.324707031871.839599609865.259643555810.975280762873.484558105858.679748535861.969726562832.360046387866.904663086860.324707031835.650024414829.070068359876.774536133865.259643555852.09979248\x00829.070068359868.549621582863.614685059860.324707031812.620300293860.324707031863.614685059858.679748535799.460449219860.324707031861.969726562858.679748535810.975280762870.194580078861.969726562829.070068359817.555236816871.839599609861.969726562835.650024414825.780151367866.904663086863.614685059819.200195312838.940002441860.324707031855.389770508824.135131836830.715087891858.679748535861.969726562850.454833984819.200195312858.679748535860.324707031857.034729004799.460449219868.549621582850.454833984871.839599609802.750427246863.614685059855.389770508855.389770508815.91027832\x00860.324707031843.874938965843.874938965834.005004883863.614685059850.454833984843.874938965840.584960938866.904663086853.744812012852.09979248\x00819.200195312860.324707031853.744812012832.360046387825.780151367847.164855957853.744812012815.91027832\x00815.91027832\x00857.034729004843.874938965822.49017334\x00824.135131836853.744812012857.034729004858.679748535825.780151367861.969726562850.454833984857.034729004810.975280762857.034729004850.454833984852.09979248\x00801.105407715852.09979248\x00855.389770508852.09979248\x00814.265258789853.744812012843.874938965837.29498291\x00819.200195312853.744812012850.454833984835.650024414802.750427246857.034729004855.389770508834.005004883809.330322266855.389770508832.360046387865.259643555819.200195312852.09979248\x00845.519897461853.744812012843.874938965845.519897461842.229919434838.940002441843.874938965842.229919434837.29498291\x00842.229919434819.200195312842.229919434843.874938965857.034729004807.68536377\x00845.519897461843.874938965871.839599609814.265258789857.034729004847.164855957868.549621582812.620300293840.584960938857.034729004845.519897461809.330322266853.744812012850.454833984834.005004883827.425109863861.969726562835.650024414855.389770508822.49017334\x00850.454833984838.940002441875.129516602829.070068359857.034729004847.164855957847.164855957824.135131836863.614685059847.164855957838.940002441812.620300293857.034729004850.454833984843.874938965832.360046387838.940002441845.519897461868.549621582835.650024414838.940002441838.940002441847.164855957817.555236816840.584960938842.229919434861.969726562799.460449219848.809875488840.584960938858.679748535791.235534668860.324707031847.164855957845.519897461804.395385742852.09979248\x00852.09979248\x00825.780151367814.265258789845.519897461848.809875488840.584960938801.105407715853.744812012857.034729004857.034729004801.105407715857.034729004847.164855957857.034729004822.49017334\x00840.584960938842.229919434880.064453125824.135131836837.29498291\x00847.164855957838.940002441840.584960938850.454833984834.005004883850.454833984837.29498291\x00847.164855957838.940002441866.904663086814.265258789853.744812012843.874938965843.874938965809.330322266852.09979248\x00832.360046387845.519897461812.620300293838.940002441840.584960938827.425109863820.845214844843.874938965838.940002441860.324707031824.135131836840.584960938835.650024414847.164855957829.070068359845.519897461843.874938965842.229919434824.135131836853.744812012842.229919434863.614685059810.975280762853.744812012838.940002441860.324707031815.91027832\x00848.809875488842.229919434866.904663086820.845214844848.809875488835.650024414852.09979248\x00822.49017334\x00847.164855957842.229919434824.135131836820.845214844852.09979248\x00843.874938965850.454833984834.005004883860.324707031847.164855957843.874938965832.360046387845.519897461853.744812012809.330322266822.49017334\x00852.09979248\x00835.650024414792.880554199819.200195312850.454833984843.874938965842.229919434819.200195312842.229919434837.29498291\x00888.289367676843.874938965852.09979248\x00842.229919434903.094238281830.715087891840.584960938843.874938965883.354431152820.845214844852.09979248\x00837.29498291\x00848.809875488830.715087891850.454833984840.584960938842.229919434819.200195312850.454833984838.940002441845.519897461817.555236816848.809875488845.519897461824.135131836809.330322266843.874938965850.454833984819.200195312804.395385742860.324707031837.29498291\x00824.135131836807.68536377\x00845.519897461855.389770508812.620300293835.650024414848.809875488835.650024414847.164855957832.360046387842.229919434835.650024414861.969726562842.229919434840.584960938845.519897461868.549621582830.715087891853.744812012830.715087891865.259643555829.070068359857.034729004843.874938965829.070068359822.49017334\x00847.164855957837.29498291\x00827.425109863820.845214844845.519897461850.454833984847.164855957809.330322266858.679748535853.744812012838.940002441807.68536377\x00850.454833984847.164855957819.200195312801.105407715853.744812012850.454833984840.584960938812.620300293855.389770508843.874938965855.389770508850.454833984842.229919434842.229919434845.519897461852.09979248\x00850.454833984837.29498291\x00858.679748535838.940002441848.809875488832.360046387861.969726562829.070068359837.29498291\x00843.874938965847.164855957807.68536377\x00845.519897461845.519897461858.679748535801.105407715840.584960938840.584960938829.070068359814.265258789838.940002441850.454833984802.750427246806.040344238845.519897461842.229919434840.584960938829.070068359842.229919434827.425109863858.679748535829.070068359837.29498291\x00837.29498291\x00865.259643555822.49017334\x00837.29498291\x00830.715087891848.809875488832.360046387834.005004883840.584960938830.715087891827.425109863837.29498291\x00842.229919434830.715087891827.425109863837.29498291\x00837.29498291\x00845.519897461810.975280762840.584960938840.584960938835.650024414815.91027832\x00843.874938965842.229919434835.650024414809.330322266838.940002441837.29498291\x00835.650024414825.780151367835.650024414837.29498291\x00838.940002441829.070068359837.29498291\x00834.005004883857.034729004819.200195312834.005004883847.164855957840.584960938799.460449219847.164855957842.229919434834.005004883815.91027832\x00834.005004883830.715087891848.809875488819.200195312825.780151367834.005004883830.715087891834.005004883829.070068359837.29498291\x00842.229919434830.715087891835.650024414832.360046387858.679748535820.845214844827.425109863834.005004883852.09979248\x00810.975280762830.715087891830.715087891843.874938965814.265258789832.360046387824.135131836830.715087891820.845214844830.715087891834.005004883843.874938965827.425109863830.715087891838.940002441842.229919434830.715087891830.715087891837.29498291\x00832.360046387819.200195312834.005004883843.874938965865.259643555807.68536377\x00842.229919434838.940002441858.679748535815.91027832\x00838.940002441825.780151367860.324707031819.200195312842.229919434827.425109863842.229919434819.200195312834.005004883825.780151367810.975280762812.620300293827.425109863835.650024414817.555236816809.330322266840.584960938834.005004883865.259643555822.49017334\x00837.29498291\x00837.29498291\x00858.679748535830.715087891835.650024414835.650024414837.29498291\x00830.715087891838.940002441830.715087891832.360046387815.91027832\x00834.005004883847.164855957845.519897461809.330322266835.650024414837.29498291\x00850.454833984824.135131836842.229919434837.29498291\x00838.940002441827.425109863845.519897461834.005004883832.360046387824.135131836835.650024414834.005004883830.715087891809.330322266847.164855957837.29498291\x00840.584960938815.91027832\x00845.519897461842.229919434842.229919434812.620300293842.229919434843.874938965812.620300293822.49017334\x00838.940002441837.29498291\x00827.425109863829.070068359853.744812012845.519897461850.454833984822.49017334\x00847.164855957843.874938965847.164855957804.395385742858.679748535827.425109863857.034729004796.170471191850.454833984845.519897461838.940002441787.945556641860.324707031827.425109863822.49017334\x00817.555236816848.809875488835.650024414829.070068359860.324707031837.29498291\x00847.164855957830.715087891848.809875488855.389770508843.874938965819.200195312845.519897461850.454833984847.164855957830.715087891819.200195312858.679748535855.389770508835.650024414824.135131836863.614685059845.519897461847.164855957817.555236816855.389770508827.425109863834.005004883814.265258789853.744812012843.874938965837.29498291\x00809.330322266860.324707031845.519897461835.650024414825.780151367865.259643555843.874938965824.135131836829.070068359853.744812012848.809875488829.070068359819.200195312863.614685059838.940002441858.679748535825.780151367858.679748535845.519897461853.744812012827.425109863855.389770508848.809875488842.229919434842.229919434855.389770508857.034729004817.555236816824.135131836853.744812012848.809875488806.040344238822.49017334\x00865.259643555845.519897461837.29498291\x00840.584960938866.904663086847.164855957842.229919434834.005004883873.484558105855.389770508842.229919434834.005004883866.904663086857.034729004822.49017334\x00817.555236816863.614685059858.679748535845.519897461792.880554199870.194580078865.259643555855.389770508810.975280762870.194580078866.904663086834.005004883825.780151367868.549621582868.549621582817.555236816838.940002441861.969726562858.679748535820.845214844850.454833984871.839599609860.324707031853.744812012835.650024414878.419494629868.549621582843.874938965834.005004883883.354431152870.194580078827.425109863827.425109863884.999450684863.614685059817.555236816837.29498291\x00876.774536133876.774536133845.519897461830.715087891873.484558105870.194580078850.454833984812.620300293881.709472656886.64440918\x00842.229919434801.105407715884.999450684868.549621582842.229919434809.330322266888.289367676863.614685059834.005004883840.584960938883.354431152868.549621582824.135131836842.229919434881.709472656865.259643555824.135131836825.780151367883.354431152860.324707031829.070068359806.040344238876.774536133852.09979248\x00832.360046387820.845214844863.614685059857.034729004848.809875488834.005004883860.324707031863.614685059845.519897461832.360046387860.324707031858.679748535832.360046387820.845214844863.614685059853.744812012838.940002441810.975280762863.614685059842.229919434838.940002441807.68536377\x00860.324707031835.650024414824.135131836812.620300293866.904663086845.519897461799.460449219824.135131836861.969726562830.715087891810.975280762855.389770508855.389770508832.360046387814.265258789857.034729004850.454833984834.005004883835.650024414853.744812012847.164855957830.715087891855.389770508834.005004883838.940002441843.874938965832.360046387801.105407715853.744812012847.164855957819.200195312806.040344238847.164855957838.940002441845.519897461830.715087891850.454833984824.135131836857.034729004840.584960938852.09979248\x00837.29498291\x00848.809875488834.005004883847.164855957834.005004883834.005004883822.49017334\x00855.389770508837.29498291\x00822.49017334\x00822.49017334\x00855.389770508840.584960938830.715087891814.265258789853.744812012835.650024414829.070068359807.68536377\x00858.679748535835.650024414794.525512695820.845214844861.969726562843.874938965799.460449219840.584960938865.259643555830.715087891858.679748535853.744812012850.454833984815.91027832\x00861.969726562850.454833984837.29498291\x00832.360046387858.679748535832.360046387840.584960938840.584960938847.164855957814.265258789847.164855957850.454833984829.070068359827.425109863857.034729004837.29498291\x00824.135131836837.29498291\x00857.034729004827.425109863845.519897461840.584960938853.744812012840.584960938843.874938965822.49017334\x00855.389770508840.584960938837.29498291\x00819.200195312860.324707031840.584960938837.29498291\x00847.164855957852.09979248\x00847.164855957843.874938965819.200195312863.614685059840.584960938827.425109863837.29498291\x00858.679748535853.744812012853.744812012843.874938965848.809875488861.969726562861.969726562822.49017334\x00860.324707031834.005004883843.874938965835.650024414858.679748535827.425109863850.454833984853.744812012842.229919434817.555236816850.454833984840.584960938830.715087891809.330322266853.744812012838.940002441820.845214844796.170471191855.389770508845.519897461806.040344238786.300598145861.969726562850.454833984804.395385742773.14074707\x00860.324707031866.904663086794.525512695743.53112793\x00866.904663086858.679748535759.980895996720.501403809881.709472656853.744812012738.596191406695.826660156866.904663086850.454833984713.921447754661.282104492881.709472656832.360046387689.246765137643.187316895904.739196777870.194580078651.412231445623.447570801865.259643555876.774536133636.607421875606.997741699858.679748535898.159240723633.317443848600.41784668\x00926.123962402959.02355957\x00611.932678223603.707763672932.703857422932.703857422623.447570801605.352783203944.218688965899.804260254621.80255127\x00618.512634277894.86932373\x00931.058898926634.962402344651.412231445847.164855957861.969726562667.861999512644.832275391886.64440918\x00855.389770508677.731872559653.057189941855.389770508973.828369141662.927062988671.151977539893.224304199939.283752441694.18170166\x00684.311828613881.709472656937.638793945713.921447754713.921447754863.614685059921.188964844732.016235352738.596191406914.609069824842.229919434748.466064453755.045959473860.324707031832.360046387756.690979004769.850830078837.29498291\x00855.389770508774.785766602784.655639648832.360046387835.650024414812.620300293797.815490723848.809875488840.584960938820.845214844807.68536377\x00853.744812012871.839599609819.200195312812.620300293830.715087891834.005004883827.425109863834.005004883848.809875488822.49017334\x00840.584960938834.005004883820.845214844817.555236816858.679748535847.164855957840.584960938815.91027832\x00858.679748535860.324707031853.744812012810.975280762866.904663086853.744812012840.584960938819.200195312876.774536133871.839599609834.005004883807.68536377\x00883.354431152871.839599609825.780151367842.229919434893.224304199883.354431152845.519897461827.425109863891.579345703888.289367676817.555236816819.200195312893.224304199894.86932373\x00830.715087891806.040344238908.029174805896.514282227822.49017334\x00802.750427246919.544006348912.964111328819.200195312791.235534668911.319091797898.159240723842.229919434794.525512695906.384155273901.44921875\x00843.874938965787.945556641912.964111328893.224304199832.360046387802.750427246908.029174805888.289367676863.614685059796.170471191904.739196777901.44921875\x00832.360046387773.14074707\x00917.899047852901.44921875\x00806.040344238804.395385742914.609069824898.159240723804.395385742799.460449219917.899047852911.319091797809.330322266797.815490723919.544006348912.964111328840.584960938786.300598145924.478942871908.029174805853.744812012774.785766602924.478942871914.609069824824.135131836797.815490723926.123962402916.25402832\x00787.945556641789.590576172927.768920898909.674133301817.555236816794.525512695914.609069824914.609069824857.034729004779.720703125919.544006348906.384155273873.484558105764.91583252\x00926.123962402903.094238281852.09979248\x00779.720703125919.544006348908.029174805824.135131836768.205810547911.319091797909.674133301812.620300293768.205810547911.319091797908.029174805827.425109863794.525512695914.609069824903.094238281824.135131836797.815490723916.25402832\x00901.44921875\x00810.975280762791.235534668919.544006348889.934387207815.91027832\x00773.14074707\x00908.029174805899.804260254845.519897461774.785766602901.44921875\x00899.804260254845.519897461771.495788574917.899047852891.579345703858.679748535774.785766602906.384155273888.289367676858.679748535791.235534668896.514282227888.289367676827.425109863784.655639648901.44921875\x00898.159240723817.555236816784.655639648908.029174805889.934387207830.715087891786.300598145911.319091797889.934387207830.715087891784.655639648906.384155273889.934387207838.940002441797.815490723888.289367676884.999450684845.519897461797.815490723883.354431152880.064453125838.940002441802.750427246898.159240723888.289367676835.650024414792.880554199896.514282227878.419494629843.874938965802.750427246886.64440918\x00880.064453125820.845214844794.525512695899.804260254881.709472656827.425109863806.040344238898.159240723880.064453125863.614685059804.395385742881.709472656873.484558105850.454833984794.525512695883.354431152880.064453125866.904663086779.720703125880.064453125880.064453125834.005004883763.270874023881.709472656866.904663086820.845214844797.815490723886.64440918\x00871.839599609832.360046387815.91027832\x00876.774536133873.484558105815.91027832\x00815.91027832\x00875.129516602865.259643555822.49017334\x00810.975280762881.709472656866.904663086824.135131836794.525512695886.64440918\x00871.839599609832.360046387802.750427246876.774536133863.614685059861.969726562799.460449219870.194580078868.549621582830.715087891791.235534668876.774536133880.064453125842.229919434787.945556641875.129516602866.904663086850.454833984783.010620117880.064453125866.904663086810.975280762799.460449219880.064453125865.259643555840.584960938806.040344238878.419494629858.679748535863.614685059814.265258789875.129516602873.484558105853.744812012822.49017334\x00876.774536133861.969726562866.904663086812.620300293873.484558105863.614685059835.650024414799.460449219888.289367676865.259643555807.68536377\x00812.620300293871.839599609865.259643555822.49017334\x00791.235534668866.904663086858.679748535850.454833984769.850830078868.549621582853.744812012858.679748535787.945556641860.324707031848.809875488832.360046387801.105407715871.839599609847.164855957820.845214844812.620300293861.969726562847.164855957815.91027832\x00804.395385742853.744812012843.874938965850.454833984794.525512695848.809875488842.229919434855.389770508799.460449219852.09979248\x00845.519897461842.229919434812.620300293857.034729004855.389770508815.91027832\x00806.040344238861.969726562848.809875488829.070068359806.040344238855.389770508845.519897461871.839599609792.880554199845.519897461830.715087891843.874938965804.395385742850.454833984834.005004883842.229919434796.170471191860.324707031830.715087891827.425109863810.975280762850.454833984835.650024414842.229919434812.620300293838.940002441840.584960938857.034729004799.460449219837.29498291\x00842.229919434834.005004883792.880554199838.940002441843.874938965829.070068359779.720703125850.454833984842.229919434822.49017334\x00801.105407715847.164855957843.874938965853.744812012791.235534668834.005004883834.005004883858.679748535771.495788574845.519897461847.164855957837.29498291\x00799.460449219850.454833984845.519897461806.040344238814.265258789861.969726562838.940002441838.940002441824.135131836853.744812012853.744812012843.874938965807.68536377\x00853.744812012850.454833984850.454833984794.525512695848.809875488843.874938965838.940002441807.68536377\x00848.809875488858.679748535829.070068359807.68536377\x00857.034729004843.874938965868.549621582799.460449219850.454833984853.744812012868.549621582786.300598145848.809875488852.09979248\x00858.679748535797.815490723850.454833984852.09979248\x00807.68536377\x00822.49017334\x00855.389770508861.969726562794.525512695812.620300293857.034729004860.324707031835.650024414791.235534668863.614685059860.324707031855.389770508789.590576172860.324707031853.744812012875.129516602791.235534668860.324707031842.229919434858.679748535822.49017334\x00853.744812012853.744812012832.360046387825.780151367845.519897461853.744812012832.360046387812.620300293857.034729004845.519897461842.229919434807.68536377\x00857.034729004852.09979248\x00852.09979248\x00814.265258789855.389770508852.09979248\x00842.229919434809.330322266860.324707031855.389770508817.555236816810.975280762857.034729004853.744812012837.29498291\x00802.750427246868.549621582850.454833984865.259643555806.040344238865.259643555852.09979248\x00850.454833984806.040344238860.324707031845.519897461843.874938965806.040344238858.679748535848.809875488850.454833984834.005004883853.744812012858.679748535835.650024414817.555236816861.969726562858.679748535824.135131836830.715087891852.09979248\x00860.324707031817.555236816814.265258789863.614685059850.454833984843.874938965791.235534668866.904663086842.229919434857.034729004838.940002441853.744812012842.229919434875.129516602824.135131836852.09979248\x00853.744812012857.034729004812.620300293858.679748535848.809875488838.940002441819.200195312858.679748535848.809875488843.874938965806.040344238858.679748535837.29498291\x00837.29498291\x00824.135131836852.09979248\x00852.09979248\x00829.070068359812.620300293853.744812012855.389770508820.845214844794.525512695873.484558105852.09979248\x00830.715087891819.200195312857.034729004852.09979248\x00840.584960938810.975280762848.809875488850.454833984848.809875488807.68536377\x00855.389770508850.454833984852.09979248\x00819.200195312855.389770508853.744812012845.519897461834.005004883863.614685059857.034729004842.229919434840.584960938860.324707031842.229919434820.845214844825.780151367865.259643555847.164855957845.519897461819.200195312858.679748535852.09979248\x00870.194580078809.330322266853.744812012850.454833984837.29498291\x00822.49017334\x00848.809875488850.454833984824.135131836804.395385742852.09979248\x00845.519897461845.519897461797.815490723860.324707031845.519897461848.809875488829.070068359861.969726562845.519897461865.259643555840.584960938852.09979248\x00852.09979248\x00853.744812012850.454833984848.809875488860.324707031842.229919434825.780151367852.09979248\x00852.09979248\x00845.519897461814.265258789860.324707031857.034729004847.164855957817.555236816866.904663086853.744812012838.940002441814.265258789852.09979248\x00835.650024414837.29498291\x00797.815490723853.744812012848.809875488843.874938965807.68536377\x00843.874938965842.229919434838.940002441817.555236816850.454833984845.519897461843.874938965817.555236816848.809875488863.614685059860.324707031842.229919434858.679748535847.164855957852.09979248\x00827.425109863850.454833984857.034729004858.679748535825.780151367847.164855957850.454833984843.874938965834.005004883857.034729004848.809875488822.49017334\x00819.200195312853.744812012857.034729004847.164855957824.135131836858.679748535848.809875488848.809875488824.135131836853.744812012850.454833984806.040344238806.040344238861.969726562847.164855957834.005004883791.235534668853.744812012848.809875488850.454833984799.460449219858.679748535837.29498291\x00845.519897461819.200195312860.324707031842.229919434878.419494629829.070068359852.09979248\x00843.874938965853.744812012837.29498291\x00838.940002441845.519897461852.09979248\x00824.135131836850.454833984845.519897461827.425109863827.425109863855.389770508843.874938965842.229919434825.780151367858.679748535842.229919434842.229919434802.750427246853.744812012842.229919434822.49017334\x00812.620300293852.09979248\x00850.454833984829.070068359817.555236816853.744812012850.454833984832.360046387812.620300293858.679748535843.874938965860.324707031827.425109863853.744812012857.034729004875.129516602822.49017334\x00848.809875488850.454833984837.29498291\x00829.070068359855.389770508860.324707031830.715087891815.91027832\x00858.679748535853.744812012850.454833984810.975280762861.969726562848.809875488848.809875488807.68536377\x00855.389770508853.744812012857.034729004804.395385742848.809875488848.809875488838.940002441820.845214844853.744812012858.679748535835.650024414834.005004883853.744812012860.324707031840.584960938825.780151367852.09979248\x00853.744812012847.164855957830.715087891852.09979248\x00853.744812012837.29498291\x00822.49017334\x00853.744812012850.454833984822.49017334\x00820.845214844855.389770508848.809875488819.200195312832.360046387861.969726562850.454833984827.425109863827.425109863861.969726562845.519897461868.549621582802.750427246850.454833984847.164855957870.194580078779.720703125847.164855957837.29498291\x00857.034729004814.265258789842.229919434838.940002441837.29498291\x00840.584960938847.164855957838.940002441832.360046387848.809875488861.969726562850.454833984838.940002441842.229919434853.744812012837.29498291\x00842.229919434819.200195312845.519897461855.389770508824.135131836802.750427246848.809875488840.584960938834.005004883817.555236816845.519897461847.164855957832.360046387825.780151367853.744812012852.09979248\x00853.744812012807.68536377\x00863.614685059843.874938965842.229919434820.845214844843.874938965855.389770508840.584960938796.170471191861.969726562845.519897461842.229919434812.620300293857.034729004847.164855957832.360046387835.650024414855.389770508838.940002441855.389770508842.229919434852.09979248\x00840.584960938855.389770508834.005004883847.164855957848.809875488847.164855957820.845214844861.969726562850.454833984824.135131836791.235534668855.389770508845.519897461835.650024414810.975280762852.09979248\x00843.874938965852.09979248\x00837.29498291\x00847.164855957845.519897461842.229919434817.555236816848.809875488855.389770508847.164855957820.845214844858.679748535845.519897461845.519897461819.200195312860.324707031843.874938965845.519897461822.49017334\x00865.259643555852.09979248\x00837.29498291\x00840.584960938858.679748535857.034729004830.715087891825.780151367860.324707031850.454833984847.164855957789.590576172858.679748535855.389770508863.614685059792.880554199853.744812012847.164855957843.874938965840.584960938858.679748535845.519897461835.650024414829.070068359860.324707031855.389770508845.519897461829.070068359858.679748535853.744812012847.164855957824.135131836861.969726562843.874938965852.09979248\x00829.070068359858.679748535853.744812012845.519897461830.715087891857.034729004843.874938965840.584960938815.91027832\x00853.744812012858.679748535835.650024414804.395385742853.744812012866.904663086830.715087891806.040344238857.034729004848.809875488832.360046387824.135131836857.034729004853.744812012850.454833984812.620300293857.034729004853.744812012863.614685059804.395385742865.259643555847.164855957853.744812012817.555236816863.614685059860.324707031822.49017334\x00824.135131836863.614685059858.679748535820.845214844835.650024414860.324707031863.614685059837.29498291\x00812.620300293870.194580078861.969726562837.29498291\x00810.975280762870.194580078860.324707031842.229919434820.845214844865.259643555852.09979248\x00843.874938965830.715087891870.194580078852.09979248\x00853.744812012820.845214844866.904663086861.969726562850.454833984804.395385742865.259643555857.034729004824.135131836810.975280762861.969726562857.034729004832.360046387824.135131836863.614685059853.744812012857.034729004837.29498291\x00857.034729004848.809875488852.09979248\x00812.620300293860.324707031853.744812012868.549621582824.135131836858.679748535848.809875488847.164855957824.135131836865.259643555861.969726562843.874938965837.29498291\x00868.549621582848.809875488843.874938965843.874938965858.679748535843.874938965840.584960938827.425109863861.969726562842.229919434832.360046387822.49017334\x00860.324707031845.519897461820.845214844809.330322266863.614685059847.164855957835.650024414824.135131836858.679748535848.809875488845.519897461820.845214844848.809875488843.874938965830.715087891832.360046387852.09979248\x00850.454833984838.940002441822.49017334\x00857.034729004845.519897461829.070068359820.845214844855.389770508'
tb.