cnumpy.core.multiarray
_reconstruct
p1
(cnumpy
ndarray
p2
(I0
tS'b'
tRp3
(I1
(I132
I4
tcnumpy
dtype
p4
(S'S15'
I0
I1
tRp5
(I3
S'|'
NNNI15
I1
I0
tbI00
S'0.35219052434\x00\x000.112096361816\x000.134396672249\x000.416887551546\x000.35219052434\x00\x000.09309296309950.136894196272\x000.411598473787\x000.35219052434\x00\x000.07678528875110.137304201722\x000.396948993206\x000.35219052434\x00\x000.06559856235980.136912375689\x000.39408582449\x00\x000.35219052434\x00\x000.06029282137750.135856792331\x000.4007345438\x00\x00\x000.35219052434\x00\x000.05860869213940.134831115603\x000.402561962605\x000.35219052434\x00\x000.05848926305770.134126186371\x000.402561962605\x000.35219052434\x00\x000.05995298549530.134126186371\x000.402561962605\x000.35219052434\x00\x000.06139954552050.138549938798\x000.402561962605\x000.35219052434\x00\x000.06309004873040.142314523458\x000.402561962605\x000.35219052434\x00\x000.06511836498980.145131990314\x000.405711323023\x000.35219052434\x00\x000.06780716031790.146322652698\x000.410269349813\x000.35219052434\x00\x000.07099168747660.145689487457\x000.416791915894\x000.35219052434\x00\x000.07410643994810.143923848867\x000.424951344728\x000.35219052434\x00\x000.07604059576990.141800642014\x000.433260381222\x000.35219052434\x00\x000.07492343336340.138680055737\x000.439095407724\x000.35219052434\x00\x000.069326736033\x000.133286550641\x000.440386384726\x000.35219052434\x00\x000.05912090837960.126085549593\x000.440386384726\x000.35219052434\x00\x000.06650251895190.126085549593\x000.440386384726\x000.35219052434\x00\x000.094266064465\x000.126085549593\x000.440386384726\x000.35219052434\x00\x000.127735972404\x000.126085549593\x000.440386384726\x000.35219052434\x00\x000.155088663101\x000.126085549593\x000.440386384726\x000.35219052434\x00\x000.150686889887\x000.126085549593\x000.440386384726\x000.211124822497\x000.142988786101\x000.140182614326\x000.171839207411\x000.200064510107\x000.134697288275\x000.128053814173\x000.162475958467\x000.200064510107\x000.127246230841\x000.128053814173\x000.161342814565\x000.200064510107\x000.120929971337\x000.128053814173\x000.161342814565\x000.200064510107\x000.117189258337\x000.128053814173\x000.161342814565\x000.200064510107\x000.118954636157\x000.128053814173\x000.161342814565\x000.200064510107\x000.127003386617\x000.128053814173\x000.161342814565\x000.200064510107\x000.140749514103\x000.128053814173\x000.161342814565\x000.200064510107\x000.156954139471\x000.128053814173\x000.161342814565\x000.200064510107\x000.168953761458\x000.128053814173\x000.161342814565\x000.200064510107\x000.179637819529\x000.128053814173\x000.161342814565\x000.200064510107\x000.182724490762\x000.128053814173\x000.161342814565\x000.210187494755\x000.178587526083\x000.111946173012\x000.153296396136\x000.210187494755\x000.173312872648\x000.111946173012\x000.15020558238\x00\x000.210187494755\x000.170259609818\x000.111946173012\x000.15020558238\x00\x000.210187494755\x000.170398622751\x000.111946173012\x000.15020558238\x00\x000.210187494755\x000.171772629023\x000.111946173012\x000.15020558238\x00\x000.210187494755\x000.173207864165\x000.111946173012\x000.15020558238\x00\x000.210187494755\x000.175732880831\x000.111946173012\x000.15020558238\x00\x000.210187494755\x000.178479015827\x000.111946173012\x000.15020558238\x00\x000.221996918321\x000.179134681821\x000.223262175918\x000.238630801439\x000.221996918321\x000.174866840243\x000.223262175918\x000.238630801439\x000.221996918321\x000.165329322219\x000.223262175918\x000.238630801439\x000.221996918321\x000.156994730234\x000.223262175918\x000.238630801439\x000.221996918321\x000.145632490516\x000.223262175918\x000.238630801439\x000.221996918321\x000.139960706234\x000.223262175918\x000.238630801439\x000.221996918321\x000.140817180276\x000.223262175918\x000.238630801439\x000.221996918321\x000.142493337393\x000.223262175918\x000.238630801439\x000.221996918321\x000.142188712955\x000.223262175918\x000.238630801439\x000.221996918321\x000.13891877234\x00\x000.223262175918\x000.238630801439\x000.221996918321\x000.133750140667\x000.223262175918\x000.238630801439\x000.221996918321\x000.128056898713\x000.223262175918\x000.238630801439\x000.221996918321\x000.122160673141\x000.223262175918\x000.238630801439\x000.221996918321\x000.116228215396\x000.223262175918\x000.238630801439\x000.221996918321\x000.11025043577\x00\x000.223262175918\x000.238630801439\x000.221996918321\x000.103523500264\x000.223262175918\x000.238630801439\x000.221996918321\x000.09596301615240.223262175918\x000.238630801439\x000.221996918321\x000.08841112256050.02035679295660.238630801439\x000.206273540854\x000.085374109447\x000.02346502244470.312421351671\x000.196055680513\x000.07735136151310.02470624074340.28296405077\x00\x000.196055680513\x000.066702477634\x000.03093894943590.28296405077\x00\x000.196055680513\x000.05359126999970.03093894943590.28296405077\x00\x000.196055680513\x000.04299539700150.03093894943590.28296405077\x00\x000.196055680513\x000.04328374564650.03093894943590.28296405077\x00\x000.196055680513\x000.05774575471880.03093894943590.28296405077\x00\x000.196055680513\x000.07883374392990.03093894943590.28296405077\x00\x000.196055680513\x000.09653416275980.03093894943590.28296405077\x00\x000.196055680513\x000.107486076653\x000.03093894943590.28296405077\x00\x000.196055680513\x000.112759873271\x000.03093894943590.28296405077\x00\x000.196055680513\x000.115091867745\x000.03508922830220.28296405077\x00\x000.195337697864\x000.116415373981\x000.038873527199\x000.293669879436\x000.195337697864\x000.117798216641\x000.04246552661060.293669879436\x000.195337697864\x000.119036331773\x000.04486602172260.293669879436\x000.195337697864\x000.119786143303\x000.04917368665340.293669879436\x000.195337697864\x000.119678758085\x000.054801389575\x000.293669879436\x000.195337697864\x000.119290262461\x000.05300845205780.293669879436\x000.195337697864\x000.118397846818\x000.05497558042410.293669879436\x000.195337697864\x000.116538658738\x000.05497558042410.293669879436\x000.195337697864\x000.113498672843\x000.05497558042410.293669879436\x000.195337697864\x000.112712971866\x000.05497558042410.293669879436\x000.195337697864\x000.117458038032\x000.05497558042410.293669879436\x000.195337697864\x000.128029465675\x000.05497558042410.293669879436\x000.195337697864\x000.14292833209\x00\x000.05497558042410.293669879436\x000.195337697864\x000.155439987779\x000.05497558042410.293669879436\x000.195337697864\x000.161558121443\x000.05497558042410.293669879436\x000.195337697864\x000.162814855576\x000.05497558042410.293669879436\x000.195337697864\x000.162366807461\x000.05497558042410.293669879436\x000.195337697864\x000.162521511316\x000.05855349078770.293669879436\x000.195337697864\x000.16361862421\x00\x000.05855349078770.293669879436\x000.195337697864\x000.165156513453\x000.05855349078770.293669879436\x000.195337697864\x000.166681036353\x000.05855349078770.293669879436\x000.195337697864\x000.167695820332\x000.05855349078770.293669879436\x000.195337697864\x000.167807102203\x000.02777028642590.293669879436\x000.195337697864\x000.165572330356\x000.03717911615970.293669879436\x000.195337697864\x000.158304855227\x000.03717911615970.293669879436\x000.195337697864\x000.144229531288\x000.03717911615970.293669879436\x000.195337697864\x000.124444298446\x000.03717911615970.293669879436\x000.195337697864\x000.105874240398\x000.03717911615970.293669879436\x000.195337697864\x000.09347910434010.03717911615970.293669879436\x000.195337697864\x000.09131759405140.03717911615970.293669879436\x000.195337697864\x000.09387436509130.03717911615970.293669879436\x000.195337697864\x000.09597112238410.03717911615970.293669879436\x000.195337697864\x000.09574887156490.03717911615970.293669879436\x000.195337697864\x000.09482979774480.03717911615970.293669879436\x000.195337697864\x000.09402690827850.04275816306470.293669879436\x000.195337697864\x000.09345659613610.04275816306470.293669879436\x000.195337697864\x000.09303034096960.04275816306470.293669879436\x000.195337697864\x000.09277475625280.04275816306470.293669879436\x000.195337697864\x000.09297231584790.04275816306470.293669879436\x000.195337697864\x000.09418930113320.03071472980080.293669879436\x000.195337697864\x000.09695258736610.04440784454350.293669879436\x000.413210809231\x000.100683607161\x000.059896748513\x000.296841114759\x000.420066982508\x000.104034505785\x000.07258447259660.334903389215\x000.420066982508\x000.107030667365\x000.08276531100270.334903389215\x000.420066982508\x000.110448926687\x000.08276531100270.334903389215\x000.420066982508\x000.116405077279\x000.08276531100270.334903389215\x000.420066982508\x000.125972479582\x000.08276531100270.334903389215\x000.420066982508\x000.136411383748\x000.08276531100270.334903389215\x000.420066982508\x000.145362794399\x000.08276531100270.334903389215\x000.420066982508\x000.150257766247\x000.08276531100270.334903389215\x000.420066982508\x000.151860564947\x000.08276531100270.334903389215\x000.420066982508\x000.151804819703\x000.08813135325910.334903389215\x000.420066982508\x000.151024982333\x000.09274090081450.334903389215\x000.445048540831\x000.149852335453\x000.09730168432\x00\x000.370763987303\x000.445048540831\x000.148297190666\x000.101576700807\x000.370763987303\x000.445048540831\x000.142476499081\x000.109872996807\x000.370763987303\x000.445048540831\x000.133304044604\x000.126609012485\x000.370763987303\x000.445048540831\x000.125156968832\x000.149780854583\x000.370763987303\x000.445048540831\x000.119289234281\x000.173083797097\x000.370763987303\x00'
tb.