cnumpy.core.multiarray
_reconstruct
p1
(cnumpy
ndarray
p2
(I0
tS'b'
tRp3
(I1
(I85
I4
tcnumpy
dtype
p4
(S'S15'
I0
I1
tRp5
(I3
S'|'
NNNI15
I1
I0
tbI00
S'0.203510507941\x000.111931204796\x000.346704125404\x000.188594311476\x000.19637311995\x00\x000.12344019115\x00\x000.362552911043\x000.18363340199\x00\x000.185448259115\x000.140073463321\x000.378236889839\x000.179675385356\x000.175799384713\x000.160154253244\x000.393173158169\x000.180392533541\x000.169966131449\x000.1791369766\x00\x00\x000.405687779188\x000.185250356793\x000.167489618063\x000.192780822515\x000.412157833576\x000.191838487983\x000.167085036635\x000.200221538544\x000.408210843801\x000.19619782269\x00\x000.167642518878\x000.204442307353\x000.390347361565\x000.192019343376\x000.16683010757\x00\x000.209054380655\x000.356825172901\x000.178041011095\x000.166105285287\x000.214857116342\x000.305704265833\x000.155878350139\x000.166105285287\x000.224496006966\x000.250241339207\x000.155878350139\x000.166105285287\x000.236138105392\x000.215830743313\x000.155878350139\x000.166105285287\x000.247901365161\x000.215830743313\x000.155878350139\x000.166105285287\x000.259739279747\x000.215830743313\x000.155878350139\x000.166105285287\x000.271567463875\x000.215830743313\x000.155878350139\x000.166105285287\x000.282143443823\x000.215830743313\x000.155878350139\x000.3035145998\x00\x00\x000.289223819971\x000.215830743313\x000.38900783658\x00\x000.30255779624\x00\x000.291630238295\x000.215830743313\x000.402367085218\x000.309423655272\x000.290979772806\x000.215830743313\x000.412425607443\x000.323887884617\x000.288851350546\x000.412545979023\x000.421951681376\x000.339582890272\x000.285620570183\x000.413029700518\x000.428718358278\x000.349680691957\x000.283323019743\x000.412761360407\x000.432379215956\x000.35771432519\x00\x000.284178763628\x000.410321086645\x000.430020451546\x000.357637733221\x000.288146644831\x000.405189275742\x000.422023147345\x000.360025554895\x000.293944507837\x000.396429985762\x000.411121726036\x000.36241170764\x00\x000.298270195723\x000.38369551301\x00\x000.399719804525\x000.363225400448\x000.302032262087\x000.367230057716\x000.390380203724\x000.359856933355\x000.300806164742\x000.349300175905\x000.38483196497\x00\x000.359593689442\x000.295658886433\x000.332931905985\x000.388877898455\x000.357337445021\x000.286011815071\x000.320054769516\x000.388689666986\x000.363999933004\x000.272008746862\x000.320054769516\x000.387685388327\x000.372921854258\x000.25412145257\x00\x000.320294082165\x000.3809235394\x00\x00\x000.382442653179\x000.238503947854\x000.314467072487\x000.368769139051\x000.389798372984\x000.228554010391\x000.305108577013\x000.351172834635\x000.392513722181\x000.231302544475\x000.291057288647\x000.333091646433\x000.390939831734\x000.247011438012\x000.273584187031\x000.309383332729\x000.385467201471\x000.262933284044\x000.253474771976\x000.284053832293\x000.374123752117\x000.270819365978\x000.231253296137\x000.263419449329\x000.357021898031\x000.268829107285\x000.20354577899\x00\x000.258617907763\x000.331630945206\x000.260628253222\x000.168264359236\x000.270591646433\x000.300918281078\x000.25135961175\x00\x000.127130523324\x000.29551038146\x00\x000.300918281078\x000.243989944458\x000.082051359117\x000.29551038146\x00\x000.300918281078\x000.239074647427\x000.05123419314620.29551038146\x00\x000.300918281078\x000.235387742519\x000.036577410996\x000.29551038146\x00\x000.300918281078\x000.231767520308\x000.02284618653360.29551038146\x00\x000.300918281078\x000.228300943971\x000.02434939146040.29551038146\x00\x000.300918281078\x000.223911508918\x000.02776407822970.29551038146\x00\x000.07125821709630.215704575181\x000.03302876278760.127795055509\x000.083168938756\x000.199776083231\x000.03989181667570.122370876372\x000.116383165121\x000.173847123981\x000.04926160722970.155699372292\x000.159570738673\x000.141400203109\x000.06284265220170.209478914738\x000.200695723295\x000.105705149472\x000.07969386875630.263000279665\x000.238858953118\x000.06866262108090.09656836092470.311775565147\x000.238858953118\x000.04010776430370.108614988625\x000.311775565147\x000.238858953118\x000.03105075843630.108614988625\x000.311775565147\x000.238858953118\x000.04202522337440.108614988625\x000.311775565147\x000.238858953118\x000.07004123926160.112939149141\x000.311775565147\x000.238858953118\x000.105133868754\x000.118928797543\x000.311775565147\x000.238858953118\x000.13856074214\x00\x000.124705828726\x000.311775565147\x000.24861240387\x00\x000.16397421062\x00\x000.130420058966\x000.323269635439\x000.259385555983\x000.177374660969\x000.13650842011\x00\x000.336363822222\x000.271329909563\x000.180453240871\x000.144077762961\x000.351642429829\x000.285769224167\x000.178408309817\x000.154177561402\x000.370768070221\x000.303229033947\x000.175823420286\x000.167932987213\x000.393879204988\x000.303229033947\x000.174560219049\x000.185382768512\x000.393879204988\x000.303229033947\x000.174688562751\x000.199796870351\x000.393879204988\x000.303229033947\x000.176077440381\x000.191172108054\x000.393879204988\x000.303229033947\x000.178506582975\x000.159967020154\x000.393879204988\x000.303229033947\x000.180424064398\x000.124542213976\x000.393879204988\x000.303229033947\x000.180071488023\x000.121890254319\x000.393879204988\x000.303229033947\x000.175372853875\x000.143988758326\x000.393879204988\x000.303229033947\x000.166250810027\x000.189810439944\x000.393879204988\x000.303229033947\x000.154178008437\x000.241936817765\x000.393879204988\x000.495801538229\x000.14056892693\x00\x000.284498780966\x000.393879204988\x000.514493465424\x000.133902460337\x000.311690598726\x000.393879204988\x000.517498493195\x000.135812118649\x000.323945939541\x000.393879204988\x000.511926233768\x000.143625289202\x000.326493352652\x000.393879204988\x000.490310579538\x000.153857648373\x000.324831962585\x000.393879204988\x000.454105496407\x000.162082016468\x000.321108520031\x000.393879204988\x000.448134839535\x000.167106226087\x000.31456938386\x00\x000.393879204988\x000.468780517578\x000.169934228063\x000.3125192523\x00\x00\x000.393879204988\x000.494675457478\x000.171277150512\x000.310501635075\x000.393879204988\x000.508107244968\x000.17192748189\x00\x000.310025632381\x000.393879204988\x000.510402560234\x000.173667341471\x000.310469567776\x000.393879204988\x000.505613207817\x000.176912650466\x000.310152739286\x000.393879204988\x00'
tb.