cnumpy.core.multiarray
_reconstruct
p1
(cnumpy
ndarray
p2
(I0
tS'b'
tRp3
(I1
(I132
I4
tcnumpy
dtype
p4
(S'S14'
I0
I1
tRp5
(I3
S'|'
NNNI14
I1
I0
tbI00
S'0.33134829998\x000.4563474655150.3782264292240.2792786359790.33134829998\x000.4605026841160.3782264292240.2792786359790.33134829998\x000.4369988143440.3782264292240.2792786359790.33134829998\x000.40063983202\x000.3782264292240.2792786359790.33134829998\x000.3681167662140.3782264292240.2792786359790.33134829998\x000.3681167662140.3782264292240.2792786359790.33134829998\x000.3681167662140.3782264292240.2792786359790.33134829998\x000.3681167662140.3782264292240.2792786359790.33134829998\x000.3681167662140.3782264292240.2792786359790.33134829998\x000.3681167662140.3782264292240.2792786359790.33134829998\x000.3681167662140.3782264292240.2792786359790.33134829998\x000.3681167662140.3782264292240.2792786359790.33134829998\x000.3681167662140.3782264292240.2792786359790.33134829998\x000.3681167662140.3782264292240.2792786359790.33134829998\x000.3681167662140.3782264292240.2792786359790.33134829998\x000.3681167662140.3782264292240.2792786359790.33134829998\x000.3681167662140.3782264292240.2792786359790.33134829998\x000.3681167662140.3782264292240.2792786359790.33134829998\x000.3681167662140.3782264292240.2792786359790.33134829998\x000.3681167662140.3782264292240.2792786359790.33134829998\x000.3681167662140.3782264292240.2792786359790.33134829998\x000.42642891407\x000.3782264292240.2792786359790.33134829998\x000.4370825886730.3782264292240.2792786359790.33134829998\x000.44974476099\x000.3782264292240.2792786359790.33134829998\x000.4589955508710.3782264292240.2792786359790.33134829998\x000.4641134738920.3782264292240.2792786359790.33134829998\x000.46898651123\x000.3782264292240.2792786359790.33134829998\x000.4765807390210.3782264292240.2792786359790.33134829998\x000.4859011769290.3782264292240.2792786359790.33134829998\x000.4936608672140.3782264292240.2792786359790.33134829998\x000.4971937835220.3782264292240.2792786359790.33134829998\x000.4962846636770.3162013888360.2792786359790.33134829998\x000.4928575754170.3169760704040.2792786359790.33134829998\x000.4926413297650.3169760704040.2792786359790.33134829998\x000.4973183870320.3169760704040.2792786359790.33134829998\x000.5044558644290.3169760704040.2792786359790.33134829998\x000.5020855665210.3169760704040.2792786359790.33134829998\x000.4774754643440.3169760704040.2792786359790.33134829998\x000.43243059516\x000.3169760704040.2792786359790.33134829998\x000.38193243742\x000.3169760704040.2792786359790.33134829998\x000.3390054404740.3169760704040.2792786359790.33134829998\x000.3058969974520.3169760704040.2792786359790.33134829998\x000.2798058390620.3169760704040.2792786359790.33134829998\x000.2584357261660.3033071458340.2792786359790.33134829998\x000.2416877001520.3033071458340.2792786359790.33134829998\x000.2306138575080.3033071458340.2792786359790.33134829998\x000.22564291954\x000.3033071458340.2792786359790.33134829998\x000.2252492457630.3033071458340.2792786359790.33134829998\x000.2269864827390.63618761301\x000.2792786359790.33134829998\x000.2292314171790.6443812847140.2792786359790.33134829998\x000.2338949739930.6482062339780.2792786359790.2135128229860.2446161657570.6502057313920.2373749464750.2314320504670.2637438178060.6508464217190.2410561442380.2314320504670.2919453680520.6441563963890.2410561442380.2314320504670.3280076682570.6441563963890.2410561442380.2314320504670.3650940060620.6441563963890.2410561442380.2314320504670.3906353414060.6441563963890.2410561442380.2314320504670.3913207650180.6441563963890.2410561442380.2314320504670.3706821501260.6441563963890.2410561442380.2314320504670.3472928404810.6441563963890.2410561442380.2314320504670.3321013450620.6569166183470.2410561442380.2314320504670.32633382082\x000.66262614727\x000.2410561442380.2314320504670.3257529437540.66429489851\x000.2410561442380.2569387555120.3255078494550.66271007061\x000.2433152943850.2569387555120.3230834603310.6595602035520.2433152943850.2569387555120.3188121318820.6595602035520.2433152943850.2569387555120.3131456375120.6595602035520.2433152943850.2569387555120.3067082166670.6595602035520.2433152943850.2569387555120.3023278117180.6595602035520.2433152943850.2569387555120.3032876551150.5656759142880.2433152943850.3677686750890.3118731081490.4992157816890.2906290888790.2994807064530.32909283042\x000.4246081709860.2906290888790.2994807064530.35077598691\x000.4246081709860.2906290888790.2994807064530.3709319829940.4246081709860.2906290888790.2994807064530.3772146403790.4246081709860.2906290888790.2994807064530.3676404356960.4246081709860.2906290888790.2994807064530.3500918149950.4246081709860.2906290888790.2994807064530.33633428812\x000.4246081709860.2906290888790.2994807064530.3291383683680.4246081709860.2906290888790.2994807064530.3290014863010.4246081709860.2906290888790.2994807064530.3312577605250.4246081709860.2906290888790.2994807064530.33175137639\x000.3806083500390.2906290888790.2934330105780.3290200233460.3328633308410.2906290888790.2934330105780.3237742185590.3328633308410.2906290888790.2934330105780.3174474239350.3328633308410.2906290888790.2934330105780.3108147680760.3328633308410.2906290888790.2934330105780.3036983311180.3328633308410.2906290888790.2934330105780.29788506031\x000.4043934941290.2906290888790.3696675598620.2971337437630.4199424088\x00\x000.4021183252330.3825236558910.3067444860940.4398007392880.3980312049390.3825236558910.3280695974830.4535450339320.3980312049390.3825236558910.3583814501760.4535450339320.3980312049390.3825236558910.3929156959060.4535450339320.3980312049390.3825236558910.4010629355910.4535450339320.3980312049390.3825236558910.34273481369\x000.4535450339320.3980312049390.3825236558910.2743861973290.4535450339320.3980312049390.3825236558910.2286504060030.4535450339320.3980312049390.3825236558910.2051410079\x00\x000.4535450339320.3980312049390.3825236558910.1946270465850.4535450339320.3980312049390.3825236558910.1898620128630.4617401063440.3980312049390.4146402180190.1854849308730.4771255254750.4114258289340.4146402180190.17955802381\x000.5008845329280.4114258289340.4146402180190.1726386398080.5008845329280.4114258289340.4146402180190.1660050302740.5008845329280.4114258289340.4146402180190.1616681665180.5008845329280.4114258289340.4146402180190.1602585911750.5008845329280.4114258289340.4146402180190.16265887022\x000.6627938747410.4114258289340.4146402180190.1685471236710.6636469960210.3023492395880.2288784980770.1786070168020.6511494517330.3325733840470.2457379549740.1946155130860.6279087066650.3533842563630.2614357173440.2192608267070.5995778441430.3640622198580.2729931473730.2550679445270.5738525986670.3676387369630.2775605022910.3008728921410.5563439130780.3634395599370.27417910099\x000.3475622236730.5486144423480.3569777905940.2656141519550.3852499425410.55163949728\x000.3538837134840.2590973675250.4141505956650.5597797036170.3524651825430.2590973675250.4409535527230.5579167604450.3524651825430.2590973675250.4608697891240.5579167604450.3524651825430.2590973675250.4660978019240.5592735409740.3524651825430.2590973675250.44395840168\x000.5542829036710.3692279756070.2688830196860.40109333396\x000.5410850048070.38263258338\x000.2756337225440.3515877723690.5228931307790.3905134499070.28181874752\x000.3113512396810.5072064995770.3915006220340.2854928672310.2866845726970.5002955198290.3864221274850.2846218347550.27558618784\x000.50752466917\x000.3781309723850.2800091803070.2755360305310.5297187566760.3699147701260.2755345702170.2836061418060.5635895729060.3623756766320.2755345702170.2967558205130.60083591938\x000.3623756766320.2755345702170.3112772405150.60083591938\x000.3623756766320.2755345702170.3236519396310.60083591938\x000.3623756766320.2755345702170.3318265974520.60083591938\x000.3623756766320.2755345702170.3361182212830.60083591938\x000.362375676632'
tb.