cnumpy.core.multiarray
_reconstruct
p1
(cnumpy
ndarray
p2
(I0
tS'b'
tRp3
(I1
(I109
I4
tcnumpy
dtype
p4
(S'S15'
I0
I1
tRp5
(I3
S'|'
NNNI15
I1
I0
tbI00
S'0.113196238875\x000.261310905218\x000.339820533991\x000.110385835171\x000.113196238875\x000.261443078518\x000.33529406786\x00\x000.110385835171\x000.113196238875\x000.261252462864\x000.337666213512\x000.110385835171\x000.113196238875\x000.260648488998\x000.339313536882\x000.110385835171\x000.113196238875\x000.260238200426\x000.345416873693\x000.110385835171\x000.178646370769\x000.261246055365\x000.325769424438\x000.223785728216\x000.169498831034\x000.265002012253\x000.277935922146\x000.194054484367\x000.154761224985\x000.271772861481\x000.226042687893\x000.168519020081\x000.132496967912\x000.281741082668\x000.190231129527\x000.144502967596\x000.132496967912\x000.293856471777\x000.190231129527\x000.144502967596\x000.132496967912\x000.304090261459\x000.190231129527\x000.144502967596\x000.132496967912\x000.307386547327\x000.190231129527\x000.144502967596\x000.132496967912\x000.301684916019\x000.190231129527\x000.144502967596\x000.132496967912\x000.291261941195\x000.190231129527\x000.144502967596\x000.132496967912\x000.281008839607\x000.190231129527\x000.144502967596\x000.132496967912\x000.271174103022\x000.186219349504\x000.144502967596\x000.132496967912\x000.264850139618\x000.176716163754\x000.144502967596\x000.129424974322\x000.262278884649\x000.159845739603\x000.1401822716\x00\x00\x000.12663424015\x00\x000.262149095535\x000.136484324932\x000.137600168586\x000.122959062457\x000.263460963964\x000.111472547054\x000.135505542159\x000.122959062457\x000.266192138195\x000.111472547054\x000.135505542159\x000.122959062457\x000.269327163696\x000.111472547054\x000.135505542159\x000.122959062457\x000.272390574217\x000.111472547054\x000.135505542159\x000.122959062457\x000.270413905382\x000.111472547054\x000.135505542159\x000.122959062457\x000.261331915855\x000.111472547054\x000.135505542159\x000.122959062457\x000.250316232443\x000.111472547054\x000.135505542159\x000.08187406510110.238456919789\x000.111472547054\x000.194686621428\x000.08006893098350.230316534638\x000.111472547054\x000.166103005409\x000.07996158301830.229656070471\x000.270102292299\x000.139400213957\x000.08073073625560.236473664641\x000.250169247389\x000.123037293553\x000.08186589181420.247336864471\x000.232535094023\x000.11677108705\x00\x000.08357757329940.25823751092\x00\x000.221176087856\x000.115543037653\x000.08605117350820.266332089901\x000.216043964028\x000.117120243609\x000.08914785087110.27077677846\x00\x000.215239867568\x000.12067399174\x00\x000.09258140623570.271948516369\x000.216144919395\x000.126094847918\x000.09585180133580.271316498518\x000.217216894031\x000.133063778281\x000.09585180133580.2709441185\x00\x00\x000.217882692814\x000.133063778281\x000.09585180133580.272565484047\x000.216626003385\x000.133063778281\x000.09482823312280.275193661451\x000.216626003385\x000.131955265999\x000.096865221858\x000.276573210955\x000.216626003385\x000.129168584943\x000.103967562318\x000.273672938347\x000.206674650311\x000.126013070345\x000.113119356334\x000.265984147787\x000.195831120014\x000.12444896996\x00\x000.121138222516\x000.261704027653\x000.186016455293\x000.126385465264\x000.127755865455\x000.260838896036\x000.181258574128\x000.133711323142\x000.134251877666\x000.260586231947\x000.185324311256\x000.148666098714\x000.142474472523\x000.258234113455\x000.202173188329\x000.173514917493\x000.152267023921\x000.251992583275\x000.229465082288\x000.207479014993\x000.152267023921\x000.239723518491\x000.254841446877\x000.207479014993\x000.152267023921\x000.22232106328\x00\x000.265900760889\x000.207479014993\x000.152267023921\x000.204920947552\x000.200847879052\x000.207479014993\x000.152267023921\x000.190755069256\x000.168622836471\x000.207479014993\x000.152267023921\x000.180479794741\x000.146714374423\x000.207479014993\x000.152267023921\x000.173601910472\x000.135135248303\x000.207479014993\x000.07459259778260.169653877616\x000.133211493492\x000.05103626102210.05731370300050.168014541268\x000.129888877273\x000.03271312266590.04733374714850.168736919761\x000.12422991544\x00\x000.02454395033420.04367090761660.171958014369\x000.119118690491\x000.02108921855690.043460637331\x000.176986336708\x000.115694910288\x000.02002200298010.04482221975920.180499479175\x000.114533051848\x000.02051760070030.04673990234730.179792881012\x000.115772977471\x000.022168116644\x000.04855920001860.181263208389\x000.119309894741\x000.02460094913840.05022089928390.187696918845\x000.124872729182\x000.02736314758660.05174614489080.198592633009\x000.131501212716\x000.029936671257\x000.05312248319390.215658888221\x000.137958750129\x000.03197484835980.05413074046370.238204732537\x000.141297891736\x000.033481772989\x000.052648242563\x000.263035744429\x000.145843997598\x000.033564273268\x000.05162667483090.284006565809\x000.149954512715\x000.03451376408340.05095531791450.296706408262\x000.151776000857\x000.03673834353690.051051363349\x000.298367679119\x000.15091471374\x00\x000.04100167378780.05186162889\x00\x000.292149752378\x000.149922862649\x000.04827362671490.05349422246220.280719906092\x000.151052549481\x000.06038703396920.05603063479070.270293623209\x000.156925499439\x000.08102463930850.06055937707420.263786554337\x000.165154531598\x000.109902821481\x000.06257563084360.260876119137\x000.169604972005\x000.140077695251\x000.06104680895810.260449498892\x000.17018507421\x00\x000.155895113945\x000.05906556546690.257170170546\x000.167250454426\x000.158697277308\x000.056908659637\x000.244479417801\x000.161120533943\x000.156868889928\x000.05457284674050.228532671928\x000.152415126562\x000.153426617384\x000.05205139145260.215101838112\x000.142126694322\x000.152354031801\x000.04960075020790.204357206821\x000.132121428847\x000.15522660315\x00\x000.04728997126220.196216896176\x000.123861804605\x000.161713585258\x000.04477703198790.19079375267\x00\x000.117686092854\x000.169056221843\x000.04194869473580.18848541379\x00\x000.114273190498\x000.173077866435\x000.04194869473580.189715594053\x000.114543415606\x000.173077866435\x000.04194869473580.193905130029\x000.114543415606\x000.173077866435\x000.04194869473580.199265256524\x000.114543415606\x000.173077866435\x000.04194869473580.203674644232\x000.114543415606\x000.173077866435\x000.04194869473580.20636382699\x00\x000.114543415606\x000.173077866435\x000.04194869473580.208006516099\x000.221993803978\x000.173077866435\x000.133312359452\x000.210950195789\x000.235867753625\x000.15076880157\x00\x000.123570904136\x000.217297524214\x000.250552386045\x000.137938946486\x000.116843514144\x000.229151725769\x000.263985276222\x000.125633686781\x000.113388389349\x000.250073492527\x000.275659739971\x000.116284117103\x000.11286881566\x00\x000.289476037025\x000.286396205425\x000.11092979461\x00\x000.114630907774\x000.342116296291\x000.295838296413\x000.10949537158\x00\x000.117548324168\x000.390620142221\x000.303991556168\x000.110282249749\x000.116745479405\x000.407432407141\x000.301859050989\x000.106273829937\x000.116745479405\x000.405206471682\x000.301859050989\x000.106273829937\x000.116745479405\x000.395446836948\x000.301859050989\x000.106273829937\x000.116745479405\x000.383499950171\x000.301859050989\x000.106273829937\x000.116745479405\x000.390250653028\x000.313590735197\x000.106273829937\x000.114714287221\x000.400110244751\x000.333444297314\x000.101717680693\x000.112572394311\x000.410965144634\x000.357540696859\x000.09582057595250.111048609018\x000.419168800116\x000.37873390317\x00\x000.08918405324220.111250720918\x000.421152383089\x000.392376154661\x000.08351875841620.115126125515\x000.414528757334\x000.39736995101\x00\x000.08114188164470.123468242586\x000.398213267326\x000.395783871412\x000.08367334306240.134790807962\x000.372176229954\x000.389485687017\x000.09206122159960.134790807962\x000.338593840599\x000.389485687017\x000.0920612215996'
tb.