cnumpy.core.multiarray
_reconstruct
p1
(cnumpy
ndarray
p2
(I0
tS'b'
tRp3
(I1
(I65
I4
tcnumpy
dtype
p4
(S'S15'
I0
I1
tRp5
(I3
S'|'
NNNI15
I1
I0
tbI00
S'0.265681803226\x000.241754591465\x000.1317255795\x00\x00\x000.28597715497\x00\x000.270949065685\x000.24625338614\x00\x000.157668963075\x000.289600044489\x000.274844616652\x000.257770061493\x000.221766412258\x000.290347605944\x000.277438104153\x000.295675069094\x000.344951212406\x000.288662910461\x000.279863268137\x000.358027070761\x000.480495423079\x000.286412805319\x000.28281340003\x00\x000.427828609943\x000.579215288162\x000.284841537476\x000.285940557718\x000.483487427235\x000.639125525951\x000.286577224731\x000.288203775883\x000.516824066639\x000.665881574154\x000.288662612438\x000.294051885605\x000.518200516701\x000.670915305614\x000.295596212149\x000.315241098404\x000.500586152077\x000.683251798153\x000.314547628164\x000.361681461334\x000.492685616016\x000.706850588322\x000.345924764872\x000.420967489481\x000.503817141056\x000.728637814522\x000.366360366344\x000.420967489481\x000.521873414516\x000.741624891758\x000.366360366344\x000.420967489481\x000.541540503502\x000.747123777866\x000.366360366344\x000.420967489481\x000.559384584427\x000.747972846031\x000.366360366344\x000.420967489481\x000.572258293629\x000.746952056885\x000.366360366344\x000.420967489481\x000.579564034939\x000.745342433453\x000.366360366344\x000.420967489481\x000.582030415535\x000.74297952652\x00\x000.366360366344\x000.420967489481\x000.580036461353\x000.739891648293\x000.366360366344\x000.420967489481\x000.573942303658\x000.735675871372\x000.366360366344\x000.420967489481\x000.563596129417\x000.730466544628\x000.366360366344\x000.420967489481\x000.549484908581\x000.72401458025\x00\x000.366360366344\x000.420967489481\x000.533794939518\x000.718308031559\x000.366360366344\x000.420967489481\x000.520111203194\x000.713137328625\x000.366360366344\x000.492344409227\x000.505986392498\x000.706449866295\x000.431709289551\x000.4807716012\x00\x00\x000.490210354328\x000.695128083229\x000.425247818232\x000.472615897655\x000.481012910604\x000.674343287945\x000.415816694498\x000.468626648188\x000.477823406458\x000.63200968504\x00\x000.405276864767\x000.46982011199\x00\x000.457720696926\x000.55645942688\x00\x000.396273940802\x000.474179267883\x000.396891027689\x000.43708756566\x00\x000.388950914145\x000.478102564812\x000.287074774504\x000.302708685398\x000.38268455863\x00\x000.479506254196\x000.193206176162\x000.221465453506\x000.377135425806\x000.477940887213\x000.147953465581\x000.192021727562\x000.371890455484\x000.474241822958\x000.141409367323\x000.186012610793\x000.366962820292\x000.469767123461\x000.150404334068\x000.178242668509\x000.362488687038\x000.466211944818\x000.162278413773\x000.162867829204\x000.359632104635\x000.471396178007\x000.171588629484\x000.139849290252\x000.359288960695\x000.493563860655\x000.178449630737\x000.116454437375\x000.377041339874\x000.516695797443\x000.185049578547\x000.098320491612\x000.40705960989\x00\x000.538964152336\x000.199706688523\x000.08554434031250.414552748203\x000.550823390484\x000.243782803416\x000.07482673972850.418318539858\x000.565890729427\x000.306944608688\x000.06594180315730.426026970148\x000.578071773052\x000.375727087259\x000.06284615397450.433167129755\x000.581897199154\x000.43951305747\x00\x000.06990525871520.444230765104\x000.579250514507\x000.495831400156\x000.08533869683740.457562297583\x000.571648061275\x000.534792661667\x000.102851055562\x000.464622557163\x000.564239144325\x000.558978199959\x000.116645962\x00\x00\x00\x000.47194570303\x00\x000.561467587948\x000.571566522121\x000.125025510788\x000.481597065926\x000.564758658409\x000.57602417469\x00\x000.129324391484\x000.496049672365\x000.574205160141\x000.57586067915\x00\x000.132666528225\x000.515266239643\x000.574205160141\x000.573802292347\x000.136178925633\x000.515266239643\x000.574205160141\x000.572026312351\x000.140774786472\x000.515266239643\x000.574205160141\x000.571232199669\x000.146941766143\x000.515266239643\x000.574205160141\x000.571392297745\x000.154493033886\x000.515266239643\x000.574205160141\x000.571750938892\x000.163054645061\x000.515266239643\x000.581243216991\x000.570470809937\x000.172107413411\x000.606113791466\x000.587452113628\x000.566091120243\x000.181049048901\x000.609337151051\x000.581525325775\x000.55532336235\x00\x000.188476666808\x000.602980911732\x000.565635025501\x000.532749354839\x000.19122838974\x00\x000.590374052525\x000.529825747013\x000.505336284637\x000.188829019666\x000.566030561924\x000.529825747013\x000.459493011236\x000.194710433483\x000.566030561924\x000.529825747013\x000.394685894251\x000.235755488276\x000.566030561924\x000.529825747013\x000.346875071526\x000.330582588911\x000.566030561924\x000.529825747013\x000.364729017019\x000.433336049318\x000.566030561924\x000.529825747013\x000.413864403963\x000.511581480503\x000.566030561924\x00'
tb.