cnumpy.core.multiarray
_reconstruct
p1
(cnumpy
ndarray
p2
(I0
tS'b'
tRp3
(I1
(I87
I4
tcnumpy
dtype
p4
(S'S15'
I0
I1
tRp5
(I3
S'|'
NNNI15
I1
I0
tbI00
S'0.257935225964\x000.08545373380180.038724873215\x000.34274277091\x00\x000.259736090899\x000.07660049200060.03150704503060.339086741209\x000.270400524139\x000.06862896680830.027111986652\x000.331629484892\x000.284626603127\x000.06211568042640.02480434253810.322580724955\x000.2879550457\x00\x00\x000.05720537155870.02392034791410.309224128723\x000.274582773447\x000.05346342921260.02398250065740.291554957628\x000.274582773447\x000.05050670728090.024554701522\x000.291554957628\x000.274582773447\x000.04838037490840.02526059746740.291554957628\x000.274582773447\x000.04612655192610.02586369775240.291554957628\x000.274582773447\x000.04411223158240.02634516358380.291554957628\x000.274582773447\x000.04137752950190.02702043764290.291554957628\x000.274582773447\x000.03730794042350.02837823145090.291554957628\x000.274582773447\x000.03253177553420.03084093518560.291554957628\x000.274582773447\x000.03131896629930.03533187881110.291554957628\x000.274582773447\x000.03046578168870.04325479269030.291554957628\x000.274582773447\x000.03019498847420.05605722963810.291554957628\x000.274582773447\x000.03058003261690.07523439824580.291554957628\x000.274582773447\x000.03131188452240.09937883913520.291554957628\x000.274582773447\x000.03176134079690.119523748755\x000.291554957628\x000.274582773447\x000.03163880109790.126958891749\x000.291554957628\x000.274582773447\x000.03217022866010.12663950026\x00\x000.291554957628\x000.274582773447\x000.03353009000420.125924944878\x000.291554957628\x000.274582773447\x000.03526971489190.126943945885\x000.291554957628\x000.274582773447\x000.03688509762290.129533439875\x000.291554957628\x000.274582773447\x000.03705872222780.132437050343\x000.291554957628\x000.274582773447\x000.035791028291\x000.134635224938\x000.291554957628\x000.274582773447\x000.03450192883610.135370701551\x000.291554957628\x000.274582773447\x000.03463289886710.134129270911\x000.291554957628\x000.274582773447\x000.03100586310030.130857348442\x000.291554957628\x000.274582773447\x000.02956558763980.127555057406\x000.291554957628\x000.274582773447\x000.02956232987340.12670712173\x00\x000.291554957628\x000.274582773447\x000.03038230538370.129898115993\x000.291554957628\x000.274582773447\x000.03150655329230.136382758617\x000.291554957628\x000.274582773447\x000.03270948305730.146960228682\x000.291554957628\x000.274582773447\x000.03451498597860.159623220563\x000.291554957628\x000.274582773447\x000.03535842522980.170022174716\x000.291554957628\x000.274582773447\x000.03568543121220.174338892102\x000.291554957628\x000.274582773447\x000.03587345778940.173144429922\x000.291554957628\x000.294077426195\x000.03648976236580.169243484735\x000.252936393023\x000.303460419178\x000.03792535141110.165221393108\x000.246804818511\x000.299586653709\x000.04135423153640.16397434473\x00\x000.240996643901\x000.287627726793\x000.04860401153560.167608082294\x000.234177485108\x000.267359882593\x000.06302808970210.178794056177\x000.230492770672\x000.246028423309\x000.09017486125230.199348211288\x000.230988174677\x000.229737818241\x000.133220538497\x000.223855480552\x000.235889196396\x000.220707297325\x000.178015485406\x000.245574370027\x000.240645721555\x000.217381954193\x000.206667512655\x000.261475622654\x000.243463993073\x000.214853227139\x000.219807744026\x000.272237360477\x000.242395162582\x000.20766967535\x00\x000.225183799863\x000.278890073299\x000.23739567399\x00\x000.1885407269\x00\x00\x000.230754375458\x000.278599828482\x000.226042196155\x000.155428498983\x000.234841018915\x000.274438381195\x000.209666460752\x000.119912438095\x000.237324804068\x000.275599360466\x000.187691614032\x000.09357348829510.236722886562\x000.279130965471\x000.169413387775\x000.07717259973290.234286189079\x000.283082604408\x000.155247062445\x000.06770335137840.233019500971\x000.282598525286\x000.146838471293\x000.06233277171850.233502164483\x000.277867496014\x000.143440812826\x000.05984519049530.23336802423\x00\x000.274198412895\x000.140966713428\x000.05809043720360.228849098086\x000.272018522024\x000.139720708132\x000.05676024407150.208960995078\x000.268694967031\x000.137489646673\x000.05540104210380.162423208356\x000.25993975997\x00\x000.13440901041\x00\x000.05367929115890.10962908715\x00\x000.239359602332\x000.130630150437\x000.05164594575760.07220095396040.208780869842\x000.12634165585\x00\x000.04967780038710.05115957930680.177804887295\x000.121760889888\x000.04823796823620.04023753479120.153772264719\x000.117286458611\x000.047729820013\x000.03458136692640.137649178505\x000.113161467016\x000.04842046648260.03156673908230.126873284578\x000.110089369118\x000.05058351904150.02990447916090.118688195944\x000.109623886645\x000.05389638245110.02906830608840.110301166773\x000.113123767078\x000.05389638245110.02899865061040.100749991834\x000.113123767078\x000.05389638245110.02960451319810.093363083899\x000.113123767078\x000.05389638245110.03081342950460.08811721950770.113123767078\x000.05389638245110.03217879682780.08663421124220.113123767078\x000.05389638245110.03346311673520.08662395924330.113123767078\x000.05389638245110.034411650151\x000.08552578836680.113123767078\x000.05389638245110.03534621372820.08177869766950.113123767078\x000.05389638245110.03696184232830.07776141166690.113123767078\x000.05389638245110.04023046791550.07534843683240.113123767078\x000.05389638245110.04579348862170.07593760639430.113123767078\x000.05389638245110.05366978421810.07971811294560.113123767078\x000.05389638245110.06226610392330.08548779785630.113123767078\x000.05389638245110.06871171295640.09122533351180.113123767078\x000.05389638245110.07173428684470.09538134932520.113123767078\x000.05389638245110.07266248762610.09833892434840.113123767078\x000.05389638245110.07263396680360.100604131818\x000.113123767078\x000.05389638245110.07282837480310.10271088779\x00\x000.113123767078\x000.05389638245110.07331062853340.104214943945\x000.113123767078\x000.102203853428\x000.07402528077360.10508659482\x00\x000.253320336342\x00'
tb.