cnumpy.core.multiarray
_reconstruct
p1
(cnumpy
ndarray
p2
(I0
tS'b'
tRp3
(I1
(I64
I4
tcnumpy
dtype
p4
(S'S15'
I0
I1
tRp5
(I3
S'|'
NNNI15
I1
I0
tbI00
S'0.159705847502\x000.090418279171\x000.234633892775\x000.183014079928\x000.155790269375\x000.09796451032160.285669833422\x000.17676101625\x00\x000.155790269375\x000.103482298553\x000.299703359604\x000.17676101625\x00\x000.155790269375\x000.107329748571\x000.296848416328\x000.17676101625\x00\x000.155790269375\x000.09744758903980.274147391319\x000.17676101625\x00\x000.155790269375\x000.08089257776740.241444885731\x000.17676101625\x00\x000.156969234347\x000.06566741317510.205409601331\x000.17676101625\x00\x000.156231507659\x000.05495764687660.173196718097\x000.17264573276\x00\x000.152937561274\x000.04816251620650.148565351963\x000.168185383081\x000.150363773108\x000.04419547691940.131734952331\x000.164211794734\x000.149895057082\x000.04262905195360.120441637933\x000.160782188177\x000.15150770545\x00\x000.04265583679080.110535025597\x000.156655535102\x000.155293956399\x000.04294867441060.09892922639850.151563227177\x000.155293956399\x000.04214119538660.08461450040340.151563227177\x000.155293956399\x000.040245115757\x000.07113391906020.151563227177\x000.155293956399\x000.03811539709570.06035283580420.151563227177\x000.155293956399\x000.03661106154320.05273627489810.151563227177\x000.155293956399\x000.036064196378\x000.04752036184070.151563227177\x000.155293956399\x000.03662085905670.04437745362520.151563227177\x000.155293956399\x000.03840781375770.04280733689670.151563227177\x000.155293956399\x000.04161963984370.04230141267180.151563227177\x000.155293956399\x000.04626535624270.042135681957\x000.151563227177\x000.155293956399\x000.05177825689320.04112340882420.151563227177\x000.155293956399\x000.05621569603680.03829783946280.151563227177\x000.155293956399\x000.05798872932790.03418029472230.151563227177\x000.155293956399\x000.05725301429630.03008942864840.151563227177\x000.155293956399\x000.05569947138430.02688743174080.151563227177\x000.155293956399\x000.05481321364640.02475838549440.151563227177\x000.155293956399\x000.05496313050390.023088613525\x000.151563227177\x000.155293956399\x000.05538992211220.02134418115020.151563227177\x000.155293956399\x000.054505739361\x000.01915592327710.151563227177\x000.155293956399\x000.05083421245220.01698910444970.151563227177\x000.155293956399\x000.04503848031160.015289850533\x000.151563227177\x000.155293956399\x000.039836589247\x000.01442034263160.151563227177\x000.155293956399\x000.03619566932320.01429931726310.151563227177\x000.155293956399\x000.03390066325660.01457107439640.151563227177\x000.155293956399\x000.032491505146\x000.014954244718\x000.151563227177\x000.155293956399\x000.03178579732780.01538102887570.151563227177\x000.155293956399\x000.03208829835060.016001291573\x000.151563227177\x000.155293956399\x000.03388498723510.01705245487390.151563227177\x000.155293956399\x000.03742370381950.01865028776230.151563227177\x000.155293956399\x000.04222307354210.02063698694110.151563227177\x000.155293956399\x000.04683288186790.02271772176030.151563227177\x000.155293956399\x000.05120214447380.02489237673580.07110831886530.155293956399\x000.05673290044070.027715338394\x000.07110831886530.155293956399\x000.06639512628320.03165074065330.07110831886530.155293956399\x000.08133269101380.036043394357\x000.07110831886530.155293956399\x000.101103127003\x000.03966876864430.07110831886530.155293956399\x000.11649645865\x00\x000.03963028267030.07110831886530.155293956399\x000.119872540236\x000.035421051085\x000.07110831886530.155293956399\x000.113778747618\x000.02985226921740.07110831886530.155293956399\x000.105718530715\x000.02551712468270.07110831886530.155293956399\x000.09984666854140.02294272929430.07110831886530.155293956399\x000.09531836211680.02175136096780.07110831886530.155293956399\x000.09189901500940.021424209699\x000.07110831886530.155293956399\x000.08859866112470.02154804952440.07110831886530.155293956399\x000.08544218540190.02176997996870.07110831886530.155293956399\x000.08282438665630.02190492860970.07110831886530.155293956399\x000.08139678090810.02203101851050.07110831886530.155293956399\x000.08115518838170.02241245843470.07110831886530.155293956399\x000.082506917417\x000.02345851436260.07110831886530.07372254878280.08655971288680.02555060759190.130224317312\x000.07162707298990.09516903758050.02920757979150.129824012518\x000.07033451646570.111329324543\x000.03527127951380.129125982523\x00'
tb.