cnumpy.core.multiarray
_reconstruct
p1
(cnumpy
ndarray
p2
(I0
tS'b'
tRp3
(I1
(I118
I4
tcnumpy
dtype
p4
(S'S15'
I0
I1
tRp5
(I3
S'|'
NNNI15
I1
I0
tbI00
S'0.209738954902\x000.08547274023290.256698697805\x000.109595485032\x000.220957621932\x000.092109426856\x000.265199899673\x000.115788690746\x000.231247901917\x000.09557681530710.275574982166\x000.123552806675\x000.237162277102\x000.09582230448720.289278626442\x000.132441848516\x000.240602716804\x000.09519756585360.302223324776\x000.142181068659\x000.247853890061\x000.09584713727240.311608165503\x000.15575145185\x00\x000.265950858593\x000.09873976558450.316273123026\x000.173261255026\x000.290513366461\x000.106916986406\x000.316331505775\x000.193353295326\x000.304897040129\x000.118394322693\x000.310657471418\x000.207216098905\x000.287857621908\x000.133899047971\x000.296550095081\x000.212672114372\x000.231513723731\x000.149413451552\x000.259767830372\x000.193138211966\x000.230444014072\x000.161100000143\x000.195668309927\x000.193516984582\x000.231445595622\x000.165615200996\x000.128535151482\x000.196672201157\x000.233397632837\x000.159898251295\x000.08186886459590.201276704669\x000.234948202968\x000.147249147296\x000.05550379306080.205848142505\x000.235635995865\x000.132907003164\x000.04183626919980.209509447217\x000.236105039716\x000.120830900967\x000.03460733965040.212152734399\x000.236553609371\x000.111989453435\x000.03043303824960.213751852512\x000.236974015832\x000.106599599123\x000.02776772342620.21402220428\x00\x000.236172839999\x000.104431435466\x000.02564733475450.212342500687\x000.230208933353\x000.104228109121\x000.02401119656860.208312451839\x000.216390758753\x000.104455336928\x000.02280518785120.201152920723\x000.216390758753\x000.104147091508\x000.022411679849\x000.201152920723\x000.216390758753\x000.103262446821\x000.022721875459\x000.201152920723\x000.216390758753\x000.101309597492\x000.02417337708180.201152920723\x000.216390758753\x000.09885518997910.026481481269\x000.201152920723\x000.216390758753\x000.09549564123150.03038630448280.126109942794\x000.09569066762920.09124183654790.036274664104\x000.09326011687520.07725397497420.08671758323910.04415792226790.075620688498\x000.06829261779790.083138525486\x000.05477339401840.06686729937790.06368418037890.08260300010440.06956395506860.06322099268440.06179964169860.08691844344140.08921728283170.06284253299240.06186414882540.09665524959560.113301239908\x000.06412636488680.06296861171720.108907043934\x000.137204363942\x000.06577227264640.064725227654\x000.120236694813\x000.155745446682\x000.066930256784\x000.06731404364110.130217462778\x000.16698487103\x00\x000.06741250306370.07045646011830.135814890265\x000.172977373004\x000.06795247644190.07384690642360.137377396226\x000.175660461187\x000.06885839998720.07723924517630.135426670313\x000.177750647068\x000.06958684325220.07805595546960.133680209517\x000.179578587413\x000.07039307802920.07879678905010.132559359074\x000.180178970098\x000.07076187431810.07821583002810.131821632385\x000.17823690176\x00\x000.07080626487730.07985620200630.131130024791\x000.177767053246\x000.07450097054240.08465604484080.127649098635\x000.181517630816\x000.07917948067190.09518733620640.119442284107\x000.193636506796\x000.08954351395370.114789068699\x000.107906162739\x000.21211373806\x00\x000.107998982072\x000.143953129649\x000.09360726177690.218782320619\x000.133581846952\x000.173041433096\x000.07964501529930.208446800709\x000.157942548394\x000.188795626163\x000.06777087599040.193442344666\x000.171757683158\x000.192473694682\x000.059059780091\x000.17841617763\x00\x000.177738979459\x000.189010411501\x000.05373917892580.167521417141\x000.179723739624\x000.185010448098\x000.05159072950480.160656884313\x000.185781493783\x000.171077594161\x000.05308809876440.156313970685\x000.185536652803\x000.147468596697\x000.05567345023160.15366563201\x00\x000.187534496188\x000.147468596697\x000.05717854946850.15203346312\x00\x000.187534496188\x000.147468596697\x000.05765962228180.152042359114\x000.187534496188\x000.147468596697\x000.058344937861\x000.15282098949\x00\x000.187534496188\x000.147468596697\x000.06163058057430.15349265933\x00\x000.187534496188\x000.147468596697\x000.06824392080310.153321444988\x000.187534496188\x000.147468596697\x000.07827939838170.150553286076\x000.187534496188\x000.147468596697\x000.09063072502610.145299598575\x000.466290086508\x000.569767355919\x000.105623163283\x000.139824464917\x000.44857186079\x00\x000.531824469566\x000.123064942658\x000.13675364852\x00\x000.428672254086\x000.489204764366\x000.14304767549\x00\x000.1396022439\x00\x00\x000.408696651459\x000.453736633062\x000.16313098371\x00\x000.152303233743\x000.390233337879\x000.425464600325\x000.178274288774\x000.171676501632\x000.374369889498\x000.404235810041\x000.184075891972\x000.189113333821\x000.363182067871\x000.38887822628\x00\x000.181127950549\x000.200472027063\x000.356812477112\x000.378694236279\x000.175668537617\x000.205442011356\x000.354802280664\x000.373532950878\x000.171774581075\x000.206259399652\x000.355064332485\x000.371529132128\x000.170415386558\x000.209664970636\x000.356205374002\x000.372328847647\x000.170522287488\x000.219031080604\x000.358993053436\x000.372964590788\x000.168363317847\x000.228949204087\x000.381965667009\x000.351463824511\x000.164627090096\x000.240838289261\x000.396083235741\x000.342650592327\x000.160839527845\x000.254958003759\x000.402036994696\x000.346875309944\x000.157697558403\x000.263622045517\x000.410188347101\x000.357538163662\x000.156800180674\x000.26715785265\x00\x000.421287178993\x000.365282356739\x000.160875976086\x000.269377797842\x000.421253621578\x000.372044920921\x000.170445367694\x000.277534812689\x000.429482936859\x000.383329629898\x000.186630427837\x000.283376574516\x000.43987762928\x00\x000.396442115307\x000.214167311788\x000.291548013687\x000.451872944832\x000.412346035242\x000.245219513774\x000.289926916361\x000.463668078184\x000.427447259426\x000.266809016466\x000.27867475152\x00\x000.474102586508\x000.439127415419\x000.278156459332\x000.268395245075\x000.482464402914\x000.44801825285\x00\x000.283250540495\x000.260338962078\x000.490200936794\x000.455257862806\x000.282510340214\x000.252987831831\x000.501686513424\x000.461414337158\x000.278440564871\x000.246546372771\x000.517121016979\x000.468991935253\x000.27503362298\x00\x000.24081300199\x00\x000.535795748234\x000.484923362732\x000.274146080017\x000.235889807343\x000.553181290627\x000.484923362732\x000.27437466383\x00\x000.232423871756\x000.553181290627\x000.484923362732\x000.274549782276\x000.231164708734\x000.553181290627\x000.484923362732\x000.274392843246\x000.231662422419\x000.553181290627\x000.484923362732\x000.274855554104\x000.231377616525\x000.553181290627\x000.484923362732\x000.278665065765\x000.229879245162\x000.553181290627\x000.484923362732\x000.288576841354\x000.228134050965\x000.553181290627\x000.484923362732\x000.295193612576\x000.225020006299\x000.553181290627\x000.484923362732\x000.300872534513\x000.221969053149\x000.553181290627\x000.484923362732\x000.307406336069\x000.218539088964\x000.553181290627\x000.484923362732\x000.316660344601\x000.216812968254\x000.553181290627\x000.484923362732\x000.322856217623\x000.216152265668\x000.553181290627\x000.484923362732\x000.326914280653\x000.216494947672\x000.553181290627\x000.484923362732\x000.328943371773\x000.217708155513\x000.553181290627\x000.484923362732\x000.329134345055\x000.218511596322\x000.553181290627\x000.484923362732\x000.328520029783\x000.218515664339\x000.553181290627\x000.484923362732\x000.327583491802\x000.218015164137\x000.553181290627\x000.484923362732\x000.32688075304\x00\x000.2178684026\x00\x00\x000.553181290627\x000.484923362732\x000.326334297657\x000.218034029007\x000.553181290627\x000.484923362732\x000.325457394123\x000.217940211296\x000.553181290627\x000.484923362732\x000.323384910822\x000.217558726668\x000.553181290627\x000.484923362732\x000.319582790136\x000.21584187448\x00\x000.553181290627\x000.484923362732\x000.315959632397\x000.212910681963\x000.553181290627\x000.484923362732\x000.316065698862\x000.213647693396\x000.553181290627\x000.484923362732\x000.321150392294\x000.22004789114\x00\x000.553181290627\x000.484923362732\x000.336813539267\x000.231712281704\x000.553181290627\x000.484923362732\x000.357072770596\x000.242981016636\x000.553181290627\x000.484923362732\x000.369538277388\x000.24996984005\x00\x000.553181290627\x000.484923362732\x000.37248018384\x00\x000.252302825451\x000.553181290627\x000.484923362732\x000.374541282654\x000.253137379885\x000.553181290627\x00'
tb.