cnumpy.core.multiarray
_reconstruct
p1
(cnumpy
ndarray
p2
(I0
tS'b'
tRp3
(I1
(I709
I4
tcnumpy
dtype
p4
(S'S13'
I0
I1
tRp5
(I3
S'|'
NNNI13
I1
I0
tbI00
S'838.940002441820.845214844822.49017334\x00855.389770508843.874938965817.555236816796.170471191850.454833984832.360046387814.265258789825.780151367850.454833984840.584960938809.330322266829.070068359850.454833984838.940002441810.975280762830.715087891850.454833984843.874938965814.265258789819.200195312845.519897461838.940002441809.330322266817.555236816842.229919434834.005004883804.395385742804.395385742848.809875488845.519897461804.395385742829.070068359847.164855957847.164855957799.460449219834.005004883848.809875488847.164855957796.170471191822.49017334\x00850.454833984847.164855957783.010620117825.780151367855.389770508843.874938965797.815490723829.070068359857.034729004845.519897461837.29498291\x00817.555236816860.324707031838.940002441829.070068359792.880554199850.454833984835.650024414838.940002441824.135131836848.809875488835.650024414819.200195312840.584960938855.389770508835.650024414806.040344238830.715087891847.164855957835.650024414820.845214844845.519897461847.164855957834.005004883815.91027832\x00809.330322266853.744812012842.229919434810.975280762824.135131836857.034729004843.874938965812.620300293830.715087891852.09979248\x00848.809875488812.620300293819.200195312852.09979248\x00847.164855957817.555236816812.620300293863.614685059837.29498291\x00807.68536377\x00815.91027832\x00853.744812012835.650024414807.68536377\x00838.940002441853.744812012838.940002441810.975280762830.715087891852.09979248\x00842.229919434809.330322266807.68536377\x00847.164855957845.519897461810.975280762797.815490723858.679748535842.229919434810.975280762830.715087891855.389770508843.874938965812.620300293835.650024414855.389770508852.09979248\x00817.555236816853.744812012853.744812012852.09979248\x00814.265258789835.650024414863.614685059847.164855957796.170471191814.265258789863.614685059837.29498291\x00806.040344238804.395385742860.324707031842.229919434797.815490723802.750427246865.259643555840.584960938814.265258789814.265258789853.744812012835.650024414807.68536377\x00817.555236816847.164855957838.940002441815.91027832\x00820.845214844852.09979248\x00832.360046387814.265258789843.874938965855.389770508840.584960938824.135131836832.360046387860.324707031838.940002441814.265258789810.975280762850.454833984835.650024414796.170471191799.460449219848.809875488835.650024414797.815490723827.425109863843.874938965829.070068359791.235534668812.620300293838.940002441825.780151367807.68536377\x00832.360046387840.584960938835.650024414807.68536377\x00827.425109863845.519897461853.744812012802.750427246801.105407715870.194580078858.679748535787.945556641829.070068359880.064453125827.425109863776.430725098842.229919434853.744812012804.395385742799.460449219820.845214844827.425109863776.430725098797.815490723829.070068359809.330322266756.690979004797.815490723814.265258789791.235534668730.371276855787.945556641834.005004883769.850830078704.051574707771.495788574901.44921875\x00751.75604248\x00679.37689209\x00759.980895996883.354431152730.371276855667.861999512756.690979004909.674133301717.211425781657.992126465750.111022949876.774536133720.501403809626.737487793730.371276855852.09979248\x00704.051574707621.80255127\x00759.980895996875.129516602697.471679688649.767211914771.495788574896.514282227718.856384277656.347167969763.270874023834.005004883718.856384277654.702148438786.300598145878.419494629712.276489258648.122253418751.75604248\x00893.224304199707.341552734644.832275391786.300598145881.709472656692.536743164671.151977539817.555236816904.739196777720.501403809690.891723633804.395385742880.064453125746.821105957708.98651123\x00802.750427246880.064453125764.91583252\x00728.726318359750.111022949880.064453125786.300598145736.951171875781.365661621884.999450684786.300598145743.53112793\x00792.880554199855.389770508779.720703125755.045959473804.395385742840.584960938801.105407715756.690979004796.170471191838.940002441802.750427246759.980895996787.945556641878.419494629799.460449219778.075683594809.330322266871.839599609820.845214844779.720703125814.265258789853.744812012812.620300293787.945556641804.395385742886.64440918\x00820.845214844796.170471191776.430725098866.904663086834.005004883797.815490723783.010620117883.354431152834.005004883801.105407715784.655639648852.09979248\x00843.874938965809.330322266786.300598145817.555236816845.519897461812.620300293799.460449219858.679748535840.584960938810.975280762797.815490723889.934387207845.519897461824.135131836801.105407715891.579345703847.164855957827.425109863807.68536377\x00868.549621582847.164855957834.005004883799.460449219840.584960938861.969726562835.650024414796.170471191843.874938965852.09979248\x00837.29498291\x00801.105407715834.005004883858.679748535842.229919434804.395385742861.969726562857.034729004834.005004883802.750427246878.419494629850.454833984840.584960938799.460449219873.484558105855.389770508840.584960938801.105407715880.064453125863.614685059842.229919434797.815490723835.650024414866.904663086838.940002441794.525512695853.744812012863.614685059840.584960938810.975280762843.874938965871.839599609852.09979248\x00804.395385742824.135131836880.064453125870.194580078804.395385742871.839599609894.86932373\x00855.389770508814.265258789889.934387207883.354431152842.229919434799.460449219880.064453125866.904663086853.744812012796.170471191866.904663086888.289367676853.744812012792.880554199838.940002441889.934387207870.194580078791.235534668855.389770508901.44921875\x00863.614685059796.170471191878.419494629896.514282227860.324707031802.750427246863.614685059888.289367676860.324707031809.330322266863.614685059888.289367676855.389770508809.330322266863.614685059889.934387207861.969726562809.330322266873.484558105891.579345703855.389770508799.460449219848.809875488888.289367676857.034729004794.525512695840.584960938888.289367676858.679748535794.525512695822.49017334\x00886.64440918\x00850.454833984799.460449219842.229919434886.64440918\x00843.874938965804.395385742876.774536133876.774536133845.519897461794.525512695857.034729004880.064453125853.744812012799.460449219876.774536133878.419494629861.969726562802.750427246853.744812012876.774536133853.744812012810.975280762853.744812012884.999450684855.389770508810.975280762857.034729004880.064453125848.809875488814.265258789858.679748535878.419494629860.324707031809.330322266840.584960938888.289367676860.324707031814.265258789840.584960938884.999450684845.519897461822.49017334\x00866.904663086886.64440918\x00850.454833984801.105407715857.034729004881.709472656835.650024414806.040344238861.969726562863.614685059845.519897461806.040344238837.29498291\x00870.194580078842.229919434807.68536377\x00832.360046387868.549621582829.070068359812.620300293860.324707031861.969726562835.650024414801.105407715857.034729004855.389770508843.874938965796.170471191868.549621582857.034729004838.940002441804.395385742852.09979248\x00853.744812012835.650024414817.555236816848.809875488853.744812012837.29498291\x00814.265258789860.324707031853.744812012830.715087891804.395385742853.744812012855.389770508835.650024414810.975280762850.454833984858.679748535842.229919434802.750427246834.005004883860.324707031832.360046387804.395385742837.29498291\x00857.034729004843.874938965824.135131836834.005004883857.034729004853.744812012812.620300293827.425109863855.389770508845.519897461819.200195312812.620300293848.809875488834.005004883822.49017334\x00853.744812012847.164855957832.360046387815.91027832\x00873.484558105845.519897461820.845214844812.620300293861.969726562845.519897461838.940002441806.040344238866.904663086850.454833984840.584960938810.975280762834.005004883842.229919434835.650024414817.555236816850.454833984845.519897461832.360046387822.49017334\x00848.809875488842.229919434834.005004883812.620300293827.425109863845.519897461824.135131836815.91027832\x00847.164855957840.584960938827.425109863815.91027832\x00845.519897461842.229919434829.070068359819.200195312814.265258789850.454833984824.135131836835.650024414838.940002441843.874938965834.005004883819.200195312835.650024414843.874938965843.874938965807.68536377\x00843.874938965850.454833984852.09979248\x00802.750427246875.129516602847.164855957809.330322266817.555236816860.324707031837.29498291\x00817.555236816824.135131836830.715087891840.584960938815.91027832\x00852.09979248\x00855.389770508829.070068359817.555236816838.940002441843.874938965832.360046387827.425109863830.715087891832.360046387832.360046387815.91027832\x00817.555236816838.940002441830.715087891817.555236816819.200195312850.454833984832.360046387835.650024414822.49017334\x00834.005004883830.715087891837.29498291\x00822.49017334\x00820.845214844838.940002441827.425109863829.070068359820.845214844834.005004883829.070068359830.715087891855.389770508832.360046387830.715087891812.620300293858.679748535840.584960938834.005004883822.49017334\x00860.324707031834.005004883817.555236816817.555236816830.715087891845.519897461822.49017334\x00824.135131836825.780151367834.005004883822.49017334\x00829.070068359852.09979248\x00834.005004883820.845214844822.49017334\x00857.034729004835.650024414834.005004883827.425109863845.519897461838.940002441835.650024414819.200195312835.650024414835.650024414840.584960938822.49017334\x00834.005004883842.229919434842.229919434820.845214844843.874938965840.584960938835.650024414815.91027832\x00820.845214844843.874938965842.229919434802.750427246822.49017334\x00850.454833984848.809875488807.68536377\x00842.229919434840.584960938838.940002441822.49017334\x00848.809875488842.229919434837.29498291\x00829.070068359860.324707031842.229919434838.940002441834.005004883850.454833984853.744812012835.650024414824.135131836837.29498291\x00847.164855957837.29498291\x00822.49017334\x00830.715087891847.164855957843.874938965812.620300293840.584960938848.809875488834.005004883806.040344238830.715087891842.229919434842.229919434814.265258789814.265258789850.454833984838.940002441809.330322266847.164855957847.164855957837.29498291\x00819.200195312870.194580078842.229919434842.229919434804.395385742848.809875488840.584960938840.584960938802.750427246837.29498291\x00843.874938965850.454833984822.49017334\x00819.200195312855.389770508843.874938965824.135131836830.715087891853.744812012838.940002441820.845214844834.005004883845.519897461834.005004883819.200195312845.519897461842.229919434838.940002441810.975280762830.715087891855.389770508842.229919434809.330322266824.135131836860.324707031847.164855957824.135131836848.809875488861.969726562848.809875488801.105407715847.164855957861.969726562848.809875488804.395385742817.555236816855.389770508850.454833984815.91027832\x00830.715087891860.324707031845.519897461802.750427246832.360046387858.679748535847.164855957820.845214844830.715087891858.679748535840.584960938817.555236816853.744812012852.09979248\x00848.809875488806.040344238829.070068359863.614685059858.679748535801.105407715824.135131836871.839599609845.519897461804.395385742832.360046387861.969726562837.29498291\x00815.91027832\x00838.940002441855.389770508838.940002441810.975280762842.229919434855.389770508837.29498291\x00810.975280762843.874938965852.09979248\x00842.229919434804.395385742819.200195312861.969726562843.874938965809.330322266820.845214844860.324707031848.809875488810.975280762840.584960938863.614685059843.874938965809.330322266838.940002441858.679748535848.809875488801.105407715852.09979248\x00857.034729004845.519897461804.395385742832.360046387858.679748535840.584960938809.330322266820.845214844855.389770508842.229919434809.330322266838.940002441848.809875488850.454833984810.975280762834.005004883861.969726562840.584960938801.105407715832.360046387855.389770508840.584960938809.330322266832.360046387850.454833984843.874938965807.68536377\x00802.750427246857.034729004843.874938965810.975280762814.265258789850.454833984843.874938965820.845214844857.034729004852.09979248\x00842.229919434807.68536377\x00835.650024414858.679748535845.519897461801.105407715840.584960938855.389770508852.09979248\x00799.460449219827.425109863852.09979248\x00852.09979248\x00792.880554199822.49017334\x00857.034729004843.874938965799.460449219829.070068359855.389770508838.940002441822.49017334\x00845.519897461858.679748535840.584960938810.975280762827.425109863860.324707031848.809875488807.68536377\x00804.395385742860.324707031847.164855957806.040344238807.68536377\x00861.969726562848.809875488796.170471191817.555236816861.969726562848.809875488810.975280762834.005004883865.259643555840.584960938810.975280762842.229919434855.389770508834.005004883819.200195312855.389770508845.519897461832.360046387822.49017334\x00845.519897461843.874938965837.29498291\x00810.975280762834.005004883845.519897461840.584960938812.620300293840.584960938848.809875488842.229919434807.68536377\x00819.200195312853.744812012832.360046387791.235534668819.200195312848.809875488834.005004883806.040344238837.29498291\x00855.389770508838.940002441797.815490723838.940002441858.679748535848.809875488792.880554199840.584960938860.324707031842.229919434814.265258789835.650024414848.809875488840.584960938804.395385742817.555236816845.519897461838.940002441809.330322266824.135131836857.034729004835.650024414814.265258789842.229919434850.454833984835.650024414796.170471191825.780151367853.744812012837.29498291\x00814.265258789848.809875488848.809875488837.29498291\x00820.845214844837.29498291\x00845.519897461838.940002441815.91027832\x00832.360046387852.09979248\x00842.229919434810.975280762827.425109863853.744812012840.584960938801.105407715809.330322266855.389770508842.229919434807.68536377\x00827.425109863861.969726562845.519897461819.200195312829.070068359853.744812012845.519897461807.68536377\x00807.68536377\x00852.09979248\x00843.874938965801.105407715843.874938965852.09979248\x00842.229919434802.750427246837.29498291\x00853.744812012842.229919434807.68536377\x00852.09979248\x00861.969726562848.809875488819.200195312842.229919434855.389770508843.874938965806.040344238814.265258789853.744812012845.519897461806.040344238819.200195312847.164855957847.164855957817.555236816829.070068359857.034729004847.164855957819.200195312845.519897461860.324707031847.164855957824.135131836804.395385742858.679748535853.744812012801.105407715789.590576172871.839599609847.164855957822.49017334\x00848.809875488863.614685059853.744812012817.555236816835.650024414861.969726562858.679748535804.395385742838.940002441865.259643555848.809875488814.265258789832.360046387857.034729004852.09979248\x00806.040344238832.360046387858.679748535850.454833984812.620300293829.070068359857.034729004855.389770508832.360046387812.620300293852.09979248\x00855.389770508815.91027832\x00830.715087891857.034729004845.519897461815.91027832\x00837.29498291\x00852.09979248\x00853.744812012814.265258789847.164855957860.324707031847.164855957822.49017334\x00852.09979248\x00863.614685059845.519897461820.845214844820.845214844857.034729004848.809875488812.620300293819.200195312866.904663086843.874938965812.620300293822.49017334\x00857.034729004845.519897461801.105407715783.010620117860.324707031848.809875488814.265258789792.880554199858.679748535850.454833984814.265258789845.519897461855.389770508848.809875488799.460449219848.809875488855.389770508850.454833984815.91027832\x00873.484558105857.034729004853.744812012817.555236816835.650024414858.679748535847.164855957810.975280762830.715087891855.389770508842.229919434820.845214844845.519897461842.229919434847.164855957806.040344238837.29498291\x00847.164855957847.164855957817.555236816787.945556641847.164855957843.874938965807.68536377\x00801.105407715847.164855957848.809875488815.91027832\x00838.940002441861.969726562848.809875488814.265258789835.650024414857.034729004840.584960938820.845214844857.034729004858.679748535842.229919434822.49017334\x00834.005004883861.969726562837.29498291\x00802.750427246829.070068359850.454833984835.650024414806.040344238832.360046387852.09979248\x00837.29498291\x00796.170471191834.005004883847.164855957843.874938965807.68536377\x00842.229919434850.454833984845.519897461819.200195312810.975280762863.614685059835.650024414815.91027832\x00822.49017334\x00860.324707031834.005004883807.68536377\x00835.650024414857.034729004840.584960938829.070068359838.940002441850.454833984842.229919434812.620300293852.09979248\x00848.809875488845.519897461814.265258789842.229919434848.809875488843.874938965824.135131836838.940002441852.09979248\x00837.29498291\x00820.845214844843.874938965848.809875488843.874938965824.135131836835.650024414857.034729004840.584960938822.49017334\x00812.620300293858.679748535837.29498291\x00819.200195312794.525512695853.744812012838.940002441807.68536377\x00835.650024414858.679748535830.715087891807.68536377\x00832.360046387843.874938965838.940002441804.395385742822.49017334\x00845.519897461827.425109863799.460449219810.975280762837.29498291\x00824.135131836812.620300293837.29498291\x00829.070068359834.005004883834.005004883853.744812012829.070068359832.360046387822.49017334\x00860.324707031838.940002441827.425109863817.555236816845.519897461843.874938965825.780151367810.975280762819.200195312847.164855957829.070068359817.555236816832.360046387842.229919434842.229919434830.715087891832.360046387835.650024414829.070068359809.330322266810.975280762834.005004883814.265258789809.330322266835.650024414832.360046387822.49017334\x00817.555236816845.519897461838.940002441815.91027832\x00820.845214844871.839599609832.360046387815.91027832\x00825.780151367842.229919434834.005004883822.49017334\x00827.425109863837.29498291\x00829.070068359804.395385742817.555236816838.940002441819.200195312796.170471191814.265258789829.070068359815.91027832\x00783.010620117819.200195312842.229919434792.880554199778.075683594819.200195312843.874938965794.525512695759.980895996825.780151367861.969726562778.075683594741.886108398819.200195312858.679748535758.3359375\x00\x00723.791320801820.845214844847.164855957745.176086426690.891723633822.49017334\x00847.164855957707.341552734682.666870117817.555236816827.425109863700.76159668\x00653.057189941824.135131836845.519897461669.507019043634.962402344812.620300293806.040344238644.832275391587.257995605815.91027832\x00837.29498291\x00610.287719727572.453186035814.265258789858.679748535585.612976074567.518188477814.265258789842.229919434585.612976074556.003356934802.750427246848.809875488570.808166504572.453186035806.040344238822.49017334\x00579.033081055559.293334961824.135131836812.620300293577.388122559560.938293457817.555236816817.555236816574.098144531562.583251953804.395385742884.999450684579.033081055587.257995605812.620300293878.419494629595.482910156600.41784668\x00820.845214844848.809875488605.352783203592.192932129857.034729004835.650024414593.837890625602.062805176832.360046387815.91027832\x00616.867614746613.577697754847.164855957832.360046387621.80255127\x00646.477294922829.070068359866.904663086659.637145996672.796936035825.780151367840.584960938687.601806641700.76159668\x00827.425109863830.715087891704.051574707720.501403809812.620300293824.135131836718.856384277730.371276855817.555236816865.259643555732.016235352748.466064453822.49017334\x00848.809875488746.821105957773.14074707\x00824.135131836830.715087891769.850830078794.525512695806.040344238857.034729004794.525512695807.68536377\x00801.105407715820.845214844817.555236816824.135131836820.845214844820.845214844830.715087891832.360046387824.135131836825.780151367837.29498291\x00837.29498291\x00829.070068359845.519897461842.229919434842.229919434835.650024414858.679748535850.454833984848.809875488812.620300293840.584960938861.969726562853.744812012797.815490723830.715087891866.904663086870.194580078797.815490723812.620300293876.774536133884.999450684791.235534668825.780151367888.289367676873.484558105807.68536377\x00847.164855957881.709472656863.614685059827.425109863817.555236816871.839599609881.709472656787.945556641806.040344238884.999450684884.999450684792.880554199814.265258789888.289367676881.709472656810.975280762852.09979248\x00880.064453125891.579345703809.330322266858.679748535893.224304199876.774536133842.229919434847.164855957884.999450684888.289367676840.584960938832.360046387891.579345703894.86932373\x00829.070068359822.49017334\x00898.159240723891.579345703824.135131836835.650024414899.804260254894.86932373\x00822.49017334\x00835.650024414898.159240723889.934387207822.49017334\x00843.874938965898.159240723898.159240723810.975280762832.360046387911.319091797896.514282227810.975280762837.29498291\x00904.739196777893.224304199801.105407715829.070068359909.674133301891.579345703806.040344238832.360046387904.739196777899.804260254815.91027832\x00819.200195312899.804260254904.739196777824.135131836820.845214844916.25402832\x00914.609069824842.229919434850.454833984914.609069824904.739196777815.91027832\x00838.940002441912.964111328906.384155273817.555236816840.584960938916.25402832\x00889.934387207824.135131836837.29498291\x00909.674133301888.289367676822.49017334\x00843.874938965904.739196777888.289367676827.425109863842.229919434898.159240723884.999450684837.29498291\x00857.034729004898.159240723894.86932373\x00824.135131836832.360046387904.739196777888.289367676810.975280762817.555236816894.86932373\x00894.86932373\x00835.650024414843.874938965898.159240723909.674133301819.200195312843.874938965903.094238281889.934387207824.135131836868.549621582891.579345703881.709472656834.005004883845.519897461899.804260254873.484558105819.200195312840.584960938891.579345703873.484558105832.360046387843.874938965884.999450684881.709472656832.360046387847.164855957893.224304199883.354431152825.780151367847.164855957893.224304199880.064453125827.425109863837.29498291\x00884.999450684883.354431152827.425109863825.780151367886.64440918\x00880.064453125820.845214844829.070068359878.419494629880.064453125837.29498291\x00832.360046387878.419494629876.774536133825.780151367840.584960938876.774536133873.484558105814.265258789853.744812012880.064453125878.419494629812.620300293857.034729004889.934387207868.549621582817.555236816865.259643555871.839599609876.774536133824.135131836853.744812012871.839599609873.484558105820.845214844853.744812012870.194580078875.129516602838.940002441847.164855957876.774536133880.064453125829.070068359847.164855957884.999450684884.999450684827.425109863861.969726562893.224304199878.419494629837.29498291\x00847.164855957888.289367676883.354431152824.135131836852.09979248\x00888.289367676880.064453125819.200195312845.519897461888.289367676881.709472656845.519897461812.620300293878.419494629884.999450684837.29498291\x00820.845214844889.934387207873.484558105829.070068359842.229919434870.194580078868.549621582825.780151367834.005004883883.354431152875.129516602815.91027832\x00829.070068359891.579345703871.839599609822.49017334\x00830.715087891876.774536133880.064453125814.265258789830.715087891881.709472656876.774536133815.91027832\x00827.425109863871.839599609883.354431152835.650024414837.29498291\x00881.709472656884.999450684827.425109863830.715087891891.579345703884.999450684840.584960938820.845214844880.064453125881.709472656834.005004883824.135131836880.064453125876.774536133814.265258789820.845214844876.774536133880.064453125822.49017334\x00810.975280762883.354431152878.419494629820.845214844779.720703125881.709472656871.839599609799.460449219804.395385742868.549621582873.484558105809.330322266830.715087891876.774536133866.904663086820.845214844850.454833984873.484558105868.549621582815.91027832\x00837.29498291\x00884.999450684866.904663086824.135131836812.620300293881.709472656865.259643555830.715087891802.750427246886.64440918\x00868.549621582819.200195312814.265258789880.064453125868.549621582812.620300293820.845214844878.419494629876.774536133815.91027832\x00817.555236816883.354431152876.774536133814.265258789822.49017334\x00884.999450684873.484558105814.265258789827.425109863889.934387207876.774536133815.91027832\x00825.780151367886.64440918\x00873.484558105796.170471191801.105407715881.709472656880.064453125807.68536377\x00806.040344238894.86932373\x00873.484558105801.105407715809.330322266889.934387207883.354431152807.68536377\x00801.105407715894.86932373\x00883.354431152814.265258789807.68536377\x00891.579345703881.709472656809.330322266819.200195312884.999450684875.129516602802.750427246824.135131836893.224304199880.064453125817.555236816810.975280762896.514282227871.839599609796.170471191802.750427246886.64440918\x00870.194580078801.105407715822.49017334\x00886.64440918\x00884.999450684809.330322266810.975280762881.709472656883.354431152807.68536377\x00842.229919434884.999450684878.419494629809.330322266815.91027832\x00888.289367676865.259643555807.68536377\x00806.040344238876.774536133863.614685059789.590576172827.425109863886.64440918\x00876.774536133776.430725098817.555236816894.86932373\x00880.064453125806.040344238806.040344238898.159240723870.194580078802.750427246804.395385742898.159240723860.324707031809.330322266814.265258789883.354431152880.064453125806.040344238804.395385742888.289367676875.129516602794.525512695845.519897461894.86932373\x00870.194580078789.590576172842.229919434889.934387207870.194580078773.14074707\x00814.265258789886.64440918\x00876.774536133778.075683594825.780151367909.674133301898.159240723820.845214844819.200195312904.739196777863.614685059810.975280762814.265258789873.484558105835.650024414820.845214844832.360046387868.549621582840.584960938806.040344238840.584960938857.034729004850.454833984792.880554199809.330322266878.419494629853.744812012804.395385742827.425109863888.289367676850.454833984794.525512695835.650024414873.484558105847.164855957776.430725098807.68536377\x00878.419494629853.744812012791.235534668819.200195312884.999450684860.324707031796.170471191807.68536377\x00883.354431152866.904663086814.265258789815.91027832\x00875.129516602861.969726562810.975280762850.454833984878.419494629878.419494629792.880554199847.164855957881.709472656863.614685059789.590576172843.874938965866.904663086855.389770508784.655639648822.49017334\x00876.774536133853.744812012804.395385742835.650024414855.389770508865.259643555807.68536377\x00853.744812012863.614685059861.969726562804.395385742825.780151367870.194580078855.389770508787.945556641797.815490723866.904663086861.969726562794.525512695824.135131836873.484558105847.164855957810.975280762840.584960938860.324707031855.389770508819.200195312834.005004883861.969726562857.034729004817.555236816832.360046387861.969726562855.389770508784.655639648817.555236816868.549621582853.744812012806.040344238838.940002441865.259643555837.29498291\x00810.975280762855.389770508852.09979248\x00825.780151367822.49017334\x00861.969726562852.09979248\x00843.874938965820.845214844848.809875488861.969726562850.454833984781.365661621845.519897461863.614685059843.874938965783.010620117838.940002441858.679748535834.005004883819.200195312829.070068359842.229919434810.975280762812.620300293819.200195312829.070068359822.49017334\x00822.49017334\x00848.809875488832.360046387840.584960938819.200195312830.715087891834.005004883835.650024414799.460449219825.780151367830.715087891817.555236816809.330322266824.135131836827.425109863820.845214844815.91027832\x00825.780151367835.650024414809.330322266806.040344238827.425109863829.070068359817.555236816815.91027832\x00824.135131836834.005004883825.780151367810.975280762840.584960938843.874938965830.715087891801.105407715834.005004883840.584960938834.005004883806.040344238834.005004883848.809875488835.650024414817.555236816809.330322266853.744812012822.49017334\x00807.68536377\x00834.005004883845.519897461819.200195312806.040344238840.584960938843.874938965830.715087891814.265258789840.584960938852.09979248\x00830.715087891817.555236816832.360046387855.389770508834.005004883824.135131836810.975280762852.09979248\x00837.29498291\x00814.265258789830.715087891858.679748535834.005004883814.265258789827.425109863853.744812012835.650024414817.555236816825.780151367861.969726562848.809875488820.845214844822.49017334\x00865.259643555848.809875488815.91027832\x00820.845214844857.034729004853.744812012817.555236816838.940002441858.679748535845.519897461820.845214844843.874938965850.454833984843.874938965824.135131836835.650024414852.09979248\x00845.519897461820.845214844814.265258789858.679748535848.809875488819.200195312807.68536377\x00861.969726562845.519897461814.265258789802.750427246848.809875488847.164855957830.715087891845.519897461861.969726562852.09979248\x00829.070068359837.29498291\x00855.389770508853.744812012825.780151367838.940002441860.324707031848.809875488822.49017334\x00824.135131836863.614685059850.454833984825.780151367822.49017334\x00853.744812012847.164855957822.49017334\x00827.425109863852.09979248\x00853.744812012832.360046387830.715087891861.969726562853.744812012820.845214844827.425109863866.904663086855.389770508801.105407715824.135131836861.969726562860.324707031832.360046387840.584960938861.969726562861.969726562825.780151367810.975280762858.679748535863.614685059829.070068359827.425109863857.034729004863.614685059830.715087891825.780151367857.034729004861.969726562810.975280762817.555236816855.389770508852.09979248\x00819.200195312840.584960938853.744812012848.809875488822.49017334\x00827.425109863853.744812012842.229919434829.070068359830.715087891857.034729004848.809875488819.200195312830.715087891857.034729004852.09979248\x00817.555236816820.845214844850.454833984850.454833984825.780151367837.29498291\x00857.034729004850.454833984807.68536377\x00812.620300293865.259643555847.164855957815.91027832\x00835.650024414857.034729004845.519897461814.265258789829.070068359855.389770508838.940002441814.265258789827.425109863852.09979248\x00848.809875488834.005004883832.360046387853.744812012838.940002441830.715087891822.49017334\x00853.744812012843.874938965815.91027832\x00824.135131836852.09979248\x00842.229919434804.395385742824.135131836847.164855957835.650024414804.395385742809.330322266848.809875488837.29498291\x00819.200195312847.164855957847.164855957835.650024414825.780151367845.519897461845.519897461835.650024414820.845214844832.360046387842.229919434838.940002441812.620300293825.780151367847.164855957838.940002441820.845214844820.845214844858.679748535837.29498291\x00807.68536377\x00840.584960938850.454833984838.940002441824.135131836842.229919434842.229919434829.070068359817.555236816834.005004883838.940002441834.005004883804.395385742809.330322266840.584960938827.425109863819.200195312838.940002441843.874938965827.425109863812.620300293834.005004883847.164855957820.845214844807.68536377\x00812.620300293838.940002441822.49017334\x00812.620300293779.720703125842.229919434824.135131836804.395385742820.845214844838.940002441825.780151367797.815490723832.360046387837.29498291\x00815.91027832\x00817.555236816838.940002441835.650024414819.200195312815.91027832\x00837.29498291\x00842.229919434824.135131836807.68536377\x00819.200195312842.229919434832.360046387814.265258789835.650024414848.809875488827.425109863815.91027832\x00830.715087891847.164855957824.135131836814.265258789829.070068359838.940002441827.425109863810.975280762825.780151367848.809875488830.715087891820.845214844827.425109863848.809875488829.070068359817.555236816840.584960938847.164855957827.425109863807.68536377\x00830.715087891847.164855957834.005004883794.525512695825.780151367837.29498291\x00834.005004883786.300598145806.040344238842.229919434832.360046387804.395385742809.330322266843.874938965838.940002441806.040344238838.940002441850.454833984837.29498291\x00806.040344238830.715087891848.809875488835.650024414809.330322266850.454833984845.519897461835.650024414810.975280762837.29498291\x00842.229919434829.070068359822.49017334\x00822.49017334\x00843.874938965830.715087891820.845214844824.135131836842.229919434835.650024414796.170471191830.715087891842.229919434832.360046387809.330322266829.070068359843.874938965835.650024414827.425109863825.780151367843.874938965840.584960938799.460449219814.265258789843.874938965834.005004883797.815490723817.555236816838.940002441822.49017334\x00792.880554199812.620300293834.005004883827.425109863804.395385742815.91027832\x00843.874938965832.360046387809.330322266822.49017334\x00845.519897461832.360046387802.750427246842.229919434838.940002441827.425109863817.555236816855.389770508835.650024414825.780151367806.040344238848.809875488834.005004883824.135131836815.91027832\x00829.070068359840.584960938832.360046387819.200195312840.584960938838.940002441843.874938965824.135131836842.229919434837.29498291\x00845.519897461824.135131836838.940002441842.229919434834.005004883810.975280762819.200195312834.005004883834.005004883804.395385742822.49017334\x00838.940002441824.135131836807.68536377\x00830.715087891838.940002441825.780151367814.265258789842.229919434834.005004883837.29498291\x00809.330322266815.91027832\x00842.229919434830.715087891812.620300293804.395385742837.29498291\x00830.715087891819.200195312850.454833984829.070068359830.715087891814.265258789855.389770508840.584960938829.070068359810.975280762837.29498291\x00840.584960938830.715087891799.460449219827.425109863842.229919434832.360046387822.49017334\x00814.265258789852.09979248\x00842.229919434830.715087891804.395385742842.229919434837.29498291\x00822.49017334\x00835.650024414842.229919434840.584960938812.620300293822.49017334\x00837.29498291\x00837.29498291\x00824.135131836840.584960938835.650024414847.164855957815.91027832\x00822.49017334\x00843.874938965840.584960938809.330322266820.845214844842.229919434829.070068359817.555236816847.164855957847.164855957842.229919434815.91027832\x00847.164855957847.164855957835.650024414827.425109863857.034729004830.715087891824.135131836817.555236816837.29498291\x00840.584960938827.425109863804.395385742806.040344238835.650024414830.715087891810.975280762822.49017334\x00838.940002441834.005004883820.845214844832.360046387853.744812012829.070068359817.555236816812.620300293832.360046387827.425109863819.200195312820.845214844829.070068359817.555236816814.265258789822.49017334\x00834.005004883825.780151367810.975280762804.395385742837.29498291\x00835.650024414801.105407715806.040344238840.584960938825.780151367797.815490723830.715087891830.715087891822.49017334\x00812.620300293834.005004883825.780151367838.940002441827.425109863845.519897461835.650024414834.005004883837.29498291\x00843.874938965850.454833984840.584960938822.49017334\x00829.070068359850.454833984843.874938965814.265258789819.200195312842.229919434834.005004883814.265258789829.070068359838.940002441829.070068359820.845214844829.070068359838.940002441825.780151367820.845214844837.29498291\x00858.679748535838.940002441815.91027832\x00827.425109863861.969726562843.874938965810.975280762835.650024414835.650024414847.164855957817.555236816835.650024414822.49017334\x00840.584960938822.49017334\x00824.135131836829.070068359829.070068359804.395385742820.845214844829.070068359834.005004883801.105407715801.105407715848.809875488835.650024414807.68536377\x00840.584960938848.809875488847.164855957809.330322266865.259643555840.584960938847.164855957819.200195312873.484558105848.809875488847.164855957812.620300293855.389770508855.389770508837.29498291\x00817.555236816832.360046387853.744812012835.650024414817.555236816834.005004883850.454833984847.164855957820.845214844825.780151367855.389770508852.09979248\x00819.200195312827.425109863857.034729004860.324707031817.555236816812.620300293866.904663086861.969726562812.620300293817.555236816871.839599609853.744812012812.620300293835.650024414876.774536133865.259643555812.620300293825.780151367873.484558105865.259643555815.91027832\x00840.584960938866.904663086824.135131836810.975280762812.620300293847.164855957842.229919434796.170471191807.68536377\x00863.614685059845.519897461801.105407715810.975280762866.904663086860.324707031806.040344238820.845214844863.614685059861.969726562804.395385742819.200195312870.194580078850.454833984815.91027832\x00827.425109863860.324707031850.454833984810.975280762822.49017334\x00866.904663086850.454833984812.620300293832.360046387875.129516602845.519897461807.68536377\x00812.620300293873.484558105847.164855957820.845214844799.460449219863.614685059850.454833984810.975280762817.555236816855.389770508858.679748535804.395385742825.780151367858.679748535848.809875488825.780151367860.324707031860.324707031838.940002441810.975280762829.070068359848.809875488842.229919434809.330322266824.135131836855.389770508852.09979248\x00817.555236816829.070068359855.389770508848.809875488814.265258789830.715087891840.584960938838.940002441812.620300293819.200195312857.034729004838.940002441825.780151367830.715087891858.679748535837.29498291\x00809.330322266825.780151367855.389770508840.584960938809.330322266827.425109863853.744812012838.940002441834.005004883843.874938965853.744812012840.584960938824.135131836834.005004883852.09979248\x00832.360046387829.070068359829.070068359835.650024414832.360046387809.330322266827.425109863847.164855957843.874938965806.040344238868.549621582858.679748535847.164855957825.780151367842.229919434855.389770508847.164855957827.425109863822.49017334\x00861.969726562834.005004883825.780151367842.229919434847.164855957832.360046387820.845214844817.555236816843.874938965834.005004883817.555236816834.005004883852.09979248\x00829.070068359806.040344238834.005004883855.389770508835.650024414815.91027832\x00829.070068359834.005004883847.164855957827.425109863850.454833984853.744812012843.874938965825.780151367840.584960938858.679748535840.584960938832.360046387845.519897461863.614685059843.874938965829.070068359840.584960938863.614685059843.874938965815.91027832\x00842.229919434845.519897461840.584960938812.620300293858.679748535847.164855957852.09979248\x00806.040344238845.519897461876.774536133842.229919434801.105407715832.360046387845.519897461840.584960938789.590576172834.005004883850.454833984853.744812012822.49017334\x00840.584960938853.744812012852.09979248\x00829.070068359837.29498291\x00853.744812012835.650024414827.425109863825.780151367838.940002441'
tb.