cnumpy.core.multiarray
_reconstruct
p1
(cnumpy
ndarray
p2
(I0
tS'b'
tRp3
(I1
(I46
I4
tcnumpy
dtype
p4
(S'S15'
I0
I1
tRp5
(I3
S'|'
NNNI15
I1
I0
tbI00
S'0.053517293185\x000.02161769755180.07224155217410.265134394169\x000.05368131771680.02151732705530.06485754251480.259080260992\x000.05407214909790.02153964154420.06485754251480.253035902977\x000.05484170839190.02187812328340.06485754251480.246961563826\x000.05624105036260.02238314226270.06485754251480.241255447268\x000.05847523361440.02268403768540.06485754251480.237571507692\x000.06126765534280.02240984328090.06485754251480.235218912363\x000.06407444924120.02172193117440.06485754251480.232549875975\x000.06672121584420.02137392014270.074146270752\x000.225570380688\x000.06672121584420.02236299589280.08739139139650.214697450399\x000.06672121584420.02541560307150.09677252918480.214697450399\x000.06672121584420.03003002703190.102359570563\x000.214697450399\x000.06672121584420.03466977924110.105502143502\x000.214697450399\x000.138017401099\x000.03809685260060.107999429107\x000.214697450399\x000.155029863119\x000.04112949594860.110767662525\x000.170547217131\x000.171741873026\x000.04492257535460.113659493625\x000.178555577993\x000.175933480263\x000.05134240165350.116275951266\x000.181611299515\x000.164878696203\x000.06204582005740.118646234274\x000.17972664535\x00\x000.142689734697\x000.08000335842370.120935343206\x000.173718184233\x000.128047719598\x000.107711240649\x000.123171001673\x000.164562419057\x000.120074614882\x000.137164875865\x000.179407045245\x000.155149072409\x000.114873789251\x000.148855239153\x000.236869260669\x000.148640334606\x000.112665139139\x000.146125629544\x000.261953562498\x000.146370530128\x000.11339455843\x00\x000.136301755905\x000.265298604965\x000.148601442575\x000.115948356688\x000.126326903701\x000.266936272383\x000.152871012688\x000.120812132955\x000.119537346065\x000.275407463312\x000.156825140119\x000.127868503332\x000.116051577032\x000.287023812532\x000.161014392972\x000.135600998998\x000.115521244705\x000.300973981619\x000.16356754303\x00\x000.143433332443\x000.115889102221\x000.304711103439\x000.163955688477\x000.149425581098\x000.117709219456\x000.298079639673\x000.16316306591\x00\x000.15245218575\x00\x000.117645598948\x000.285165458918\x000.16244995594\x00\x000.153644040227\x000.115967422724\x000.272772282362\x000.162394925952\x000.154079392552\x000.111733607948\x000.266232728958\x000.164192587137\x000.155965059996\x000.106625847518\x000.265133947134\x000.168448895216\x000.162848159671\x000.102867938578\x000.268712043762\x000.176106646657\x000.178317889571\x000.101590357721\x000.277770221233\x000.182584926486\x000.203792273998\x000.103546060622\x000.28953152895\x00\x000.191281840205\x000.219066336751\x000.10803219676\x00\x000.301172852516\x000.19850666821\x00\x000.222820281982\x000.113318033516\x000.307624042034\x000.201694995165\x000.22367182374\x00\x000.117622852325\x000.307625323534\x000.201082214713\x000.222322329879\x000.119871176779\x000.300101459026\x000.199120014906\x000.218765556812\x000.120921880007\x000.290101200342\x000.198388084769\x000.212270766497\x000.121973350644\x000.283456683159\x000.199813276529\x000.203022509813\x000.12509855628\x00\x000.28220269084\x00\x000.205449849367\x000.19120515883\x00\x000.133499652147\x000.289750307798\x000.213828355074\x000.174648910761\x000.148429185152\x000.305327236652\x000.224742606282\x00'
tb.