cnumpy.core.multiarray
_reconstruct
p1
(cnumpy
ndarray
p2
(I0
tS'b'
tRp3
(I1
(I119
I4
tcnumpy
dtype
p4
(S'S15'
I0
I1
tRp5
(I3
S'|'
NNNI15
I1
I0
tbI00
S'0.183354273438\x000.201968610287\x000.22462746501\x00\x000.19230158627\x00\x000.183354273438\x000.202322408557\x000.236264586449\x000.19230158627\x00\x000.184982031584\x000.201807036996\x000.229543194175\x000.193534970284\x000.185129836202\x000.200034096837\x000.217978060246\x000.196680873632\x000.182995721698\x000.19663579762\x00\x000.202528804541\x000.204515472054\x000.175775781274\x000.189665034413\x000.183190003037\x000.219269126654\x000.162530750036\x000.179397672415\x000.163736984134\x000.242140054703\x000.146648973227\x000.170641124249\x000.148829624057\x000.272972553968\x000.146648973227\x000.166459575295\x000.142600774765\x000.310270428658\x000.146648973227\x000.168761327863\x000.149432048202\x000.310270428658\x000.146648973227\x000.174751847982\x000.151934936643\x000.310270428658\x000.146648973227\x000.180178314447\x000.151141777635\x000.310270428658\x000.146648973227\x000.182041153312\x000.149005934596\x000.310270428658\x000.146648973227\x000.181447535753\x000.146677955985\x000.310270428658\x000.146648973227\x000.180618092418\x000.144247502089\x000.310270428658\x000.146648973227\x000.181635543704\x000.142015278339\x000.310270428658\x000.146648973227\x000.18547102809\x00\x000.13965921104\x00\x000.310270428658\x000.146648973227\x000.190063893795\x000.137936547399\x000.310270428658\x000.146648973227\x000.18973788619\x00\x000.138576939702\x000.310270428658\x000.146648973227\x000.188010454178\x000.140882208943\x000.310270428658\x000.146648973227\x000.18537093699\x00\x000.14078707993\x00\x000.117562279105\x000.07900775969030.180190980434\x000.135878279805\x000.106411762536\x000.07900775969030.173737198114\x000.125871494412\x000.106411762536\x000.07900775969030.165976032615\x000.110412597656\x000.106411762536\x000.07900775969030.155571401119\x000.09200842678550.106411762536\x000.07900775969030.145316615701\x000.07352366298440.106411762536\x000.07900775969030.136648535728\x000.059106990695\x000.106411762536\x000.07900775969030.129862695932\x000.04949950426820.106411762536\x000.07900775969030.12491351366\x00\x000.04399443045260.106411762536\x000.07900775969030.124362543225\x000.04294090718030.106411762536\x000.07900775969030.123786523938\x000.043674364686\x000.106411762536\x000.07900775969030.12024641037\x00\x000.04600545391440.106411762536\x000.07900775969030.113956294954\x000.04930300638080.08786773681640.07900775969030.106252081692\x000.05466810613870.08786773681640.07900775969030.076020643115\x000.05466810613870.08786773681640.07900775969030.07138869911430.05466810613870.08786773681640.07900775969030.07554119080310.05466810613870.08786773681640.07900775969030.07843464612960.05466810613870.08786773681640.07900775969030.08069902658460.06302119046450.08786773681640.07900775969030.08007977157830.06046189367770.08786773681640.07900775969030.07836708426480.05840549990530.08786773681640.07900775969030.07744971662760.05831392481920.08786773681640.07900775969030.07725968956950.06069624051450.08786773681640.07900775969030.07598066329960.06501995772120.08786773681640.07900775969030.07305755466220.06953877955680.08786773681640.07900775969030.070058055222\x000.07226151973010.08786773681640.07900775969030.06749106198550.07293972373010.08786773681640.07900775969030.06503169238570.07207381725310.08786773681640.07900775969030.06291165947910.07063619792460.08786773681640.07900775969030.06306014955040.06950867176060.08786773681640.07900775969030.06127268075940.06902430206540.08786773681640.07900775969030.05727817863230.06934881210330.08786773681640.07900775969030.05326684936880.06867591291670.08786773681640.07900775969030.05032821744680.06752328574660.08786773681640.07900775969030.04888783022760.06788654625420.08786773681640.07900775969030.04807926714420.071347206831\x000.08786773681640.180956289172\x000.04730798304080.08067850768570.103086255491\x000.180956289172\x000.04837584495540.09526921808720.09063134342430.180956289172\x000.05124672874810.110466487706\x000.09063134342430.180956289172\x000.05745135620240.121994994581\x000.09063134342430.180956289172\x000.06583670526740.130224272609\x000.09063134342430.180956289172\x000.07544762641190.135315179825\x000.09063134342430.180956289172\x000.085074223578\x000.138261675835\x000.09063134342430.180956289172\x000.09146128594880.139841198921\x000.09063134342430.180956289172\x000.095036663115\x000.141173124313\x000.09063134342430.180956289172\x000.09665805846450.14194470644\x00\x000.09063134342430.180956289172\x000.09667358547450.142100602388\x000.09063134342430.180956289172\x000.09613967686890.142476007342\x000.11269620806\x00\x000.180956289172\x000.09583475440740.14296784997\x00\x000.11563218385\x00\x000.180956289172\x000.09558136761190.143374338746\x000.117597080767\x000.180956289172\x000.09606787562370.142904028296\x000.121418662369\x000.180956289172\x000.09723515063520.140131428838\x000.121418662369\x000.180956289172\x000.09851364046340.13399836421\x00\x000.121418662369\x000.180956289172\x000.09959644079210.124725438654\x000.121418662369\x000.180956289172\x000.09907063096760.113837920129\x000.121418662369\x000.180956289172\x000.09656222909690.104977592826\x000.121418662369\x000.180956289172\x000.09548877179620.102645739913\x000.121418662369\x000.180956289172\x000.09866794198750.09878154098990.121418662369\x000.180956289172\x000.10555524379\x00\x000.095286719501\x000.121418662369\x000.180956289172\x000.114217631519\x000.09214780479670.121418662369\x000.180956289172\x000.12024795264\x00\x000.09114996343850.121418662369\x000.180956289172\x000.126630350947\x000.09295397251840.121418662369\x000.180956289172\x000.129976674914\x000.09565483778720.121418662369\x000.180956289172\x000.131492421031\x000.09896243363620.121418662369\x000.180956289172\x000.131058037281\x000.10198468715\x00\x000.121418662369\x000.180956289172\x000.129347577691\x000.105390094221\x000.121418662369\x000.180956289172\x000.127209544182\x000.109192617238\x000.121418662369\x000.180956289172\x000.125460252166\x000.114619359374\x000.121418662369\x000.180956289172\x000.124687604606\x000.114619359374\x000.121418662369\x000.180956289172\x000.124902173877\x000.114619359374\x000.121418662369\x000.180956289172\x000.125608757138\x000.114619359374\x000.121418662369\x000.180956289172\x000.125999540091\x000.114619359374\x000.121418662369\x000.180956289172\x000.12549084425\x00\x000.114619359374\x000.121418662369\x000.180956289172\x000.123906366527\x000.114619359374\x000.121418662369\x000.180956289172\x000.122680775821\x000.114619359374\x000.121418662369\x000.180956289172\x000.122210294008\x000.114619359374\x000.121418662369\x000.180956289172\x000.123015269637\x000.167832240462\x000.121418662369\x000.180956289172\x000.123509205878\x000.167356461287\x000.121418662369\x000.180956289172\x000.123276293278\x000.163308650255\x000.121418662369\x000.180956289172\x000.124891877174\x000.157303959131\x000.121418662369\x000.180956289172\x000.130749374628\x000.15093652904\x00\x000.121418662369\x000.180956289172\x000.139771580696\x000.145367622375\x000.121418662369\x000.180956289172\x000.147279560566\x000.140720754862\x000.121418662369\x000.180956289172\x000.151642173529\x000.136982187629\x000.121418662369\x000.180956289172\x000.153031125665\x000.133815929294\x000.121418662369\x000.180956289172\x000.151791781187\x000.131558075547\x000.121418662369\x000.180956289172\x000.148989826441\x000.129905283451\x000.121418662369\x000.180956289172\x000.147010579705\x000.128466680646\x000.121418662369\x000.180956289172\x000.146448865533\x000.124235004187\x000.121418662369\x000.180956289172\x000.146021828055\x000.11697589606\x00\x000.121418662369\x000.180956289172\x000.142960861325\x000.106000289321\x000.121418662369\x000.180956289172\x000.136068850756\x000.09121780842540.121418662369\x000.180956289172\x000.126029059291\x000.07546024769540.121418662369\x000.180956289172\x000.115197770298\x000.06327362358570.121418662369\x000.180956289172\x000.108347021043\x000.05709464475510.121418662369\x000.180956289172\x000.104366309941\x000.05437166243790.121418662369\x000.180956289172\x000.102400444448\x000.05146598443390.121418662369\x000.180956289172\x000.101630575955\x000.04738542437550.121418662369\x000.180956289172\x000.101237982512\x000.04239023476840.121418662369\x00'
tb.