cnumpy.core.multiarray
_reconstruct
p1
(cnumpy
ndarray
p2
(I0
tS'b'
tRp3
(I1
(I36
I1
tcnumpy
dtype
p4
(S'S14'
I0
I1
tRp5
(I3
S'|'
NNNI14
I1
I0
tbI00
S'0.6351041197780.64586275816\x000.6566214561460.6675941944120.67884606123\x000.6898646950720.7008833289150.7119019627570.7229205966\x00\x000.7339392304420.7449578642850.7559764981270.7669951319690.7780137658120.7890323996540.8000510334970.8110696673390.8220883011820.8331069350240.8441255688670.8322020173070.81872522831\x000.8042752742770.7893698215480.7742230296130.7592008113860.7446067929270.7302268743520.7158470153810.7012529969220.6862930655480.6709049344060.6546443700790.6381641030310.6221477389340.607498645782'
tb.