cnumpy.core.multiarray
_reconstruct
p1
(cnumpy
ndarray
p2
(I0
tS'b'
tRp3
(I1
(I118
I4
tcnumpy
dtype
p4
(S'S15'
I0
I1
tRp5
(I3
S'|'
NNNI15
I1
I0
tbI00
S'0.164893478155\x000.03250339254740.03331062942740.158990398049\x000.158466875553\x000.03089314140380.03767263889310.153586372733\x000.155151709914\x000.02871479652820.04423535615210.156206026673\x000.15056759119\x00\x000.02592585608360.05176767706870.160885974765\x000.143270611763\x000.02310364134610.05856117606160.161523893476\x000.143270611763\x000.02164357155560.06246886402370.161523893476\x000.143270611763\x000.02293838188050.06432770192620.161523893476\x000.143270611763\x000.02884288318460.07152639329430.161523893476\x000.143270611763\x000.04157286137340.07586325705050.161523893476\x000.143270611763\x000.06600125879050.08098707348110.161523893476\x000.143270611763\x000.09963764995340.08608426898720.161523893476\x000.143270611763\x000.13678728044\x00\x000.090701289475\x000.161523893476\x000.132607758045\x000.142744377255\x000.09519731253390.16218264401\x00\x000.121988020837\x000.148213937879\x000.100175715983\x000.159635961056\x000.119460456073\x000.153523996472\x000.105893999338\x000.163843274117\x000.12019982934\x00\x000.15869385004\x00\x000.111217692494\x000.17311128974\x00\x000.12019982934\x00\x000.163711354136\x000.113901123405\x000.17311128974\x00\x000.12019982934\x00\x000.168856292963\x000.112251207232\x000.17311128974\x00\x000.12019982934\x00\x000.174839183688\x000.106216013432\x000.17311128974\x00\x000.12019982934\x00\x000.182566016912\x000.106216013432\x000.17311128974\x00\x000.12019982934\x00\x000.172053769231\x000.106216013432\x000.17311128974\x00\x000.12019982934\x00\x000.173944994807\x000.106216013432\x000.17311128974\x00\x000.12019982934\x00\x000.176810637116\x000.106216013432\x000.17311128974\x00\x000.12019982934\x00\x000.176885247231\x000.106216013432\x000.17311128974\x00\x000.12019982934\x00\x000.170355767012\x000.106216013432\x000.17311128974\x00\x000.12019982934\x00\x000.154324874282\x000.106216013432\x000.17311128974\x00\x000.12019982934\x00\x000.119082033634\x000.106216013432\x000.17311128974\x00\x000.12019982934\x00\x000.119082033634\x000.106216013432\x000.17311128974\x00\x000.12019982934\x00\x000.119082033634\x000.106216013432\x000.17311128974\x00\x000.12019982934\x00\x000.119082033634\x000.106216013432\x000.17311128974\x00\x000.12019982934\x00\x000.119082033634\x000.106216013432\x000.17311128974\x00\x000.12019982934\x00\x000.119082033634\x000.106216013432\x000.17311128974\x00\x000.12019982934\x00\x000.119082033634\x000.106216013432\x000.17311128974\x00\x000.12019982934\x00\x000.119082033634\x000.106216013432\x000.17311128974\x00\x000.12019982934\x00\x000.119082033634\x000.106216013432\x000.17311128974\x00\x000.12019982934\x00\x000.125418886542\x000.106216013432\x000.17311128974\x00\x000.12019982934\x00\x000.128805726767\x000.106216013432\x000.17311128974\x00\x000.12019982934\x00\x000.128805726767\x000.106216013432\x000.17311128974\x00\x000.12019982934\x00\x000.128805726767\x000.106216013432\x000.17311128974\x00\x000.12019982934\x00\x000.128805726767\x000.106216013432\x000.17311128974\x00\x000.12019982934\x00\x000.128805726767\x000.106216013432\x000.17311128974\x00\x000.12019982934\x00\x000.128805726767\x000.106216013432\x000.17311128974\x00\x000.12019982934\x00\x000.128805726767\x000.106216013432\x000.17311128974\x00\x000.12019982934\x00\x000.128805726767\x000.106216013432\x000.17311128974\x00\x000.12019982934\x00\x000.09497909247880.106216013432\x000.17311128974\x00\x000.12019982934\x00\x000.08954117447140.106216013432\x000.17311128974\x00\x000.12019982934\x00\x000.08584124594930.106216013432\x000.17311128974\x00\x000.12019982934\x00\x000.08318567276\x00\x000.106216013432\x000.17311128974\x00\x000.12019982934\x00\x000.08112483471630.106216013432\x000.17311128974\x00\x000.12019982934\x00\x000.07912546396260.106216013432\x000.17311128974\x00\x000.12019982934\x00\x000.07696460932490.106216013432\x000.17311128974\x00\x000.12019982934\x00\x000.07472904771570.106216013432\x000.17311128974\x00\x000.120434217155\x000.07259596139190.106216013432\x000.07691613584760.112212799489\x000.07066743075850.106216013432\x000.06940257549290.106310851872\x000.069072663784\x000.01229390967640.06965639442210.101885519922\x000.06777197122570.01565058343110.07908263802530.096399217844\x000.05081295222040.02442546747620.102384231985\x000.09593950957060.04020358249550.03909690305590.138560622931\x000.107687361538\x000.04181138053540.05411066859960.177514791489\x000.107687361538\x000.05404121428730.06968551874160.177514791489\x000.107687361538\x000.07206965982910.08273147046570.177514791489\x000.107687361538\x000.09111508727070.093471288681\x000.177514791489\x000.107687361538\x000.107720226049\x000.100987456739\x000.177514791489\x000.107687361538\x000.121665522456\x000.103987678885\x000.177514791489\x000.107344605029\x000.132860064507\x000.103404060006\x000.186156019568\x000.107948079705\x000.140515610576\x000.10025972873\x00\x000.198497623205\x000.111663557589\x000.144877120852\x000.09956680238250.215054690838\x000.117914378643\x000.146767407656\x000.09997498244050.234830006957\x000.126586824656\x000.147524654865\x000.101943217218\x000.258945465088\x000.137778788805\x000.148229494691\x000.105541676283\x000.283735990524\x000.137778788805\x000.149549886584\x000.109996877611\x000.283735990524\x000.137778788805\x000.151295781136\x000.114357918501\x000.283735990524\x000.137778788805\x000.15353757143\x00\x000.117424115539\x000.283735990524\x000.137778788805\x000.156411156058\x000.119445502758\x000.283735990524\x000.137778788805\x000.159532785416\x000.120225228369\x000.283735990524\x000.137778788805\x000.162701636553\x000.120755836368\x000.283735990524\x000.137778788805\x000.165308952332\x000.119926929474\x000.283735990524\x000.178574249148\x000.161332994699\x000.11902782321\x00\x000.17808714509\x00\x000.199483588338\x000.157384723425\x000.118749059737\x000.197273477912\x000.216865554452\x000.157115906477\x000.120681129396\x000.212763547897\x000.224757015705\x000.1589846313\x00\x00\x000.124751992524\x000.224860861897\x000.22487436235\x00\x000.161645397544\x000.129455789924\x000.236658677459\x000.220395967364\x000.165485709906\x000.133643314242\x000.247624009848\x000.214584827423\x000.170689374208\x000.147906884551\x000.257971823215\x000.211166471243\x000.17750954628\x00\x000.150149196386\x000.265962213278\x000.210816398263\x000.185478359461\x000.151396200061\x000.264147818089\x000.213784605265\x000.191779881716\x000.152018427849\x000.256993114948\x000.216259002686\x000.19498321414\x00\x000.153034880757\x000.249747812748\x000.211724638939\x000.19728782773\x00\x000.172070324421\x000.245390504599\x000.216307505965\x000.198442175984\x000.183258265257\x000.245135188103\x000.220644935966\x000.197918638587\x000.188550695777\x000.243603125215\x000.223215639591\x000.197118505836\x000.191338866949\x000.240672469139\x000.222675874829\x000.195104047656\x000.192146643996\x000.236474022269\x000.218761771917\x000.191724866629\x000.191633373499\x000.231182932854\x000.213410943747\x000.187516868114\x000.19157423079\x00\x000.225760996342\x000.208657965064\x000.184760212898\x000.196506515145\x000.2188346982\x00\x00\x000.207889929414\x000.185138359666\x000.193706318736\x000.210899487138\x000.210891634226\x000.18669706583\x00\x000.192072093487\x000.201194956899\x000.214704290032\x000.186989307404\x000.184247285128\x000.188990578055\x000.218081697822\x000.184748798609\x000.181432858109\x000.177321314812\x000.219549179077\x000.178693085909\x000.177518486977\x000.161345168948\x000.217996373773\x000.16994702816\x00\x000.172336280346\x000.142513036728\x000.214874595404\x000.160629361868\x000.166932165623\x000.12441059202\x00\x000.210769072175\x000.151661351323\x000.147673755884\x000.11338378489\x00\x000.213123962283\x000.144329041243\x000.131735295057\x000.109249763191\x000.227019071579\x000.136502116919\x000.119241431355\x000.108817085624\x000.248414993286\x000.129267275333\x000.110648341477\x000.107533127069\x000.265543729067\x000.123953588307\x000.106345787644\x000.110000133514\x000.276814818382\x000.123618908226\x000.10676793009\x00\x000.116063885391\x000.283979892731\x000.13012214005\x00\x000.1103939116\x00\x00\x000.124152347445\x000.283979892731\x000.14110481739\x00\x000.112308561802\x000.124152347445\x000.283979892731\x000.151668697596\x000.109601542354\x000.124152347445\x000.283979892731\x000.15982426703\x00\x000.102529071271\x000.124152347445\x000.283979892731\x000.164426937699\x000.09205083549020.124152347445\x000.283979892731\x000.165419355035\x000.081962198019\x000.124152347445\x000.283979892731\x000.165306001902\x000.07465325295930.124152347445\x000.283979892731\x000.165654823184\x000.07098536193370.124152347445\x000.283979892731\x000.166034832597\x000.06990137696270.124152347445\x00'
tb.